00000000: 54 E0 00           JMP     $00E0
00000003: 00                 NOP     
00000004: 54 2A 0C           JMP     $0C2A
00000007: 00                 NOP     
00000008: 11                 EXX     
00000009: 10                 EXA     
0000000A: 54 17 98           JMP     $9817
0000000D: 00                 NOP     
0000000E: 00                 NOP     
0000000F: 00                 NOP     
00000010: 00                 NOP     
00000011: 00                 NOP     
00000012: 00                 NOP     
00000013: 00                 NOP     
00000014: 00                 NOP     
00000015: 00                 NOP     
00000016: 00                 NOP     
00000017: 00                 NOP     
00000018: 11                 EXX     
00000019: 10                 EXA     
0000001A: 54 1A 98           JMP     $981A
0000001D: 00                 NOP     
0000001E: 00                 NOP     
0000001F: 00                 NOP     
00000020: 00                 NOP     
00000021: 00                 NOP     
00000022: 00                 NOP     
00000023: 00                 NOP     
00000024: 00                 NOP     
00000025: 00                 NOP     
00000026: 00                 NOP     
00000027: 00                 NOP     
00000028: 54 CE 20           JMP     $20CE
0000002B: B4                 PUSH    EA
0000002C: B0                 PUSH    VA
0000002D: B1                 PUSH    BC
0000002E: 53                 DCR     C
0000002F: C1                 JR      $0031
00000030: CC                 JR      $003D
00000031: 6A 36              MVI     B,$36
00000033: 44 01 00           LXI     EA,$0001
00000036: 69 01              MVI     A,$01
00000038: 48 3D              DIV     A
0000003A: 52                 DCR     B
0000003B: F7                 JR      $0033
0000003C: F1                 JR      $002E
0000003D: A1                 POP     BC
0000003E: A0                 POP     VA
0000003F: A4                 POP     EA
00000040: B8                 RET     
00000041: 48 83              LDEAX   (HL)
00000043: A9                 DCX     EA
00000044: 48 93              STEAX   (HL)
00000046: B8                 RET     
00000047: 48 A0              DSLR    EA
00000049: 48 A0              DSLR    EA
0000004B: 48 A0              DSLR    EA
0000004D: 48 A0              DSLR    EA
0000004F: B8                 RET     
00000050: 48 29              CALB    
00000052: B9                 RETS    
00000053: B8                 RET     
00000054: 00                 NOP     
00000055: 00                 NOP     
00000056: 00                 NOP     
00000057: 00                 NOP     
00000058: 00                 NOP     
00000059: 00                 NOP     
0000005A: 00                 NOP     
0000005B: 00                 NOP     
0000005C: 00                 NOP     
0000005D: 00                 NOP     
0000005E: 00                 NOP     
0000005F: 00                 NOP     
00000060: 00                 NOP     
00000061: 00                 NOP     
00000062: 00                 NOP     
00000063: 00                 NOP     
00000064: 00                 NOP     
00000065: 00                 NOP     
00000066: 00                 NOP     
00000067: 00                 NOP     
00000068: 00                 NOP     
00000069: 00                 NOP     
0000006A: 00                 NOP     
0000006B: 00                 NOP     
0000006C: 00                 NOP     
0000006D: 00                 NOP     
0000006E: 00                 NOP     
0000006F: 00                 NOP     
00000070: 00                 NOP     
00000071: 00                 NOP     
00000072: 00                 NOP     
00000073: 00                 NOP     
00000074: 00                 NOP     
00000075: 00                 NOP     
00000076: 00                 NOP     
00000077: 00                 NOP     
00000078: 00                 NOP     
00000079: 00                 NOP     
0000007A: 00                 NOP     
0000007B: 00                 NOP     
0000007C: 00                 NOP     
0000007D: 00                 NOP     
0000007E: 00                 NOP     
0000007F: 00                 NOP     
00000080: 2B                 LDAX    (HL)
00000081: 00                 NOP     
00000082: 57 10              OFFI    A,$10
00000084: 25 13 EC           GTIW    VV:13,$EC
00000087: 14 CA 00           LXI     BC,$00CA
0000008A: 0F                 MOV     A,L
0000008B: 17 F7              ORI     A,$F7
0000008D: 16 EB              XRI     A,$EB
0000008F: 0F                 MOV     A,L
00000090: 01 0F              LDAW    VV:0F
00000092: A1                 POP     BC
00000093: 10                 EXA     
00000094: 9B                 CALT    ($00B6)
00000095: 10                 EXA     
00000096: 05 1B 93           ANIW    VV:1B,$93
00000099: 1C                 MOV     D,A
0000009A: 89                 CALT    ($0092)
0000009B: 20 16              INRW    VV:16
0000009D: 21                 JB      
0000009E: F3                 JR      $0092
0000009F: 21                 JB      
000000A0: 3A                 STAX    (DE)
000000A1: 2E                 LDAX    (DE-)
000000A2: 3F                 STAX    (HL-)
000000A3: 31                 BLOCK   
000000A4: D2                 JR      $00B7
000000A5: 78 A4              CALF    $08A4
000000A7: 7B 4D              CALF    $0B4D
000000A9: 7B 8D              CALF    $0B8D
000000AB: 79 95              CALF    $0995
000000AD: 7B 80              CALF    $0B80
000000AF: 16 02              XRI     A,$02
000000B1: 1B                 MOV     C,A
000000B2: 50                 EXH     
000000B3: 00                 NOP     
000000B4: 2B                 LDAX    (HL)
000000B5: 24 F4 28           LXI     DE,$28F4
000000B8: A5                 DMOV    EA,BC
000000B9: 05 6F 21           ANIW    VV:6F,$21
000000BC: 34 13 41           LXI     HL,$4113
000000BF: 00                 NOP     
000000C0: 6A 00              MVI     B,$00
000000C2: 48 2B              STC     
000000C4: 48 36              RLL     B
000000C6: 51                 DCR     A
000000C7: FC                 JR      $00C4
000000C8: 0A                 MOV     A,B
000000C9: B8                 RET     
000000CA: B5                 DMOV    BC,EA
000000CB: 48 2F              MUL     C
000000CD: B4                 PUSH    EA
000000CE: 48 2E              MUL     B
000000D0: A1                 POP     BC
000000D1: 08                 MOV     A,EAH
000000D2: 77 00              EQI     A,$00
000000D4: C8                 JR      $00DD
000000D5: 09                 MOV     A,EAL
000000D6: 44 00 00           LXI     EA,$0000
000000D9: 18                 MOV     EAH,A
000000DA: 74 C5              DADD    EA,BC
000000DC: B8                 RET     
000000DD: 48 2B              STC     
000000DF: B8                 RET     
000000E0: 68 FF              MVI     V,$FF
000000E2: 04 00 00           LXI     SP,$0000
000000E5: 69 0F              MVI     A,$0F
000000E7: 4D D0              MOV     MM,A
000000E9: 69 C7              MVI     A,$C7
000000EB: 64 00 38           MVI     PA,$38
000000EE: 4D D2              MOV     MA,A
000000F0: 69 FF              MVI     A,$FF
000000F2: 4D D3              MOV     MB,A
000000F4: 69 CB              MVI     A,$CB
000000F6: 64 83 99           MVI     EOM,$99
000000F9: 4D D1              MOV     MCC,A
000000FB: 69 0A              MVI     A,$0A
000000FD: 64 02 00           MVI     PC,$00
00000100: 4D D4              MOV     MC,A
00000102: 6A 02              MVI     B,$02
00000104: 6B FF              MVI     C,$FF
00000106: 69 08              MVI     A,$08
00000108: 4D C8              MOV     ANM,A
0000010A: 48 48              SKIT    FAD
0000010C: 48 48              SKIT    FAD
0000010E: FD                 JR      $010C
0000010F: 53                 DCR     C
00000110: FB                 JR      $010C
00000111: 4C E1              MOV     A,CR1
00000113: 74 4A 02           ONI     B,$02
00000116: C5                 JR      $011C
00000117: 37 CA              LTI     A,$CA
00000119: 6A FD              MVI     B,$FD
0000011B: E8                 JR      $0104
0000011C: 37 CA              LTI     A,$CA
0000011E: 48 40              SKIT    NMI
00000120: 54 00 00           JMP     $0000
00000123: 69 81              MVI     A,$81
00000125: 70 79 04 C0        MOV     ($C004),A
00000129: 34 00 FF           LXI     HL,$FF00
0000012C: 24 00 FF           LXI     DE,$FF00
0000012F: 69 FF              MVI     A,$FF
00000131: 3C                 STAX    (DE+)
00000132: 6B FE              MVI     C,$FE
00000134: 31                 BLOCK   
00000135: 77 FF              EQI     A,$FF
00000137: CE                 JR      $0146
00000138: 34 00 FF           LXI     HL,$FF00
0000013B: 24 00 FF           LXI     DE,$FF00
0000013E: 69 00              MVI     A,$00
00000140: 3C                 STAX    (DE+)
00000141: 6B FE              MVI     C,$FE
00000143: 31                 BLOCK   
00000144: 77 00              EQI     A,$00
00000146: 54 33 10           JMP     $1033
00000149: 40 B3 05           CALL    $05B3
0000014C: 40 B5 05           CALL    $05B5
0000014F: 34 41 98           LXI     HL,$9841
00000152: 4B 01              MVIX    HL,$01
00000154: 04 00 A0           LXI     SP,$A000
00000157: 68 98              MVI     V,$98
00000159: 10                 EXA     
0000015A: 68 98              MVI     V,$98
0000015C: 48 44              SKIT    F2
0000015E: 00                 NOP     
0000015F: AA                 EI      
00000160: 40 D8 01           CALL    $01D8
00000163: 69 FD              MVI     A,$FD
00000165: 4D D3              MOV     MB,A
00000167: 40 64 0C           CALL    $0C64
0000016A: 69 54              MVI     A,$54
0000016C: 70 79 17 98        MOV     ($9817),A
00000170: 70 79 1A 98        MOV     ($981A),A
00000174: 40 F7 0B           CALL    $0BF7
00000177: 05 41 FE           ANIW    VV:41,$FE
0000017A: 40 CC 02           CALL    $02CC
0000017D: 40 33 20           CALL    $2033
00000180: 40 23 20           CALL    $2023
00000183: 40 13 23           CALL    $2313
00000186: 05 4F F7           ANIW    VV:4F,$F7
00000189: 15 4F 40           ORIW    VV:4F,$40
0000018C: 40 B1 77           CALL    $77B1
0000018F: 40 FA 2A           CALL    $2AFA
00000192: 40 A0 19           CALL    $19A0
00000195: 9D                 CALT    ($00BA)
00000196: 5B 4F              BIT     3,VV:4F
00000198: 34 00 2D           LXI     HL,$2D00
0000019B: 34 80 4C           LXI     HL,$4C80
0000019E: 70 3E 3D 99        SHLD    $993D
000001A2: 40 5A 2B           CALL    $2B5A
000001A5: 40 A8 10           CALL    $10A8
000001A8: 40 33 02           CALL    $0233
000001AB: 55 14 20           OFFIW   VV:14,$20
000001AE: D5                 JR      $01C4
000001AF: 40 5B 0F           CALL    $0F5B
000001B2: 55 03 02           OFFIW   VV:03,$02
000001B5: 54 50 03           JMP     $0350
000001B8: 55 03 04           OFFIW   VV:03,$04
000001BB: 54 92 03           JMP     $0392
000001BE: 55 14 04           OFFIW   VV:14,$04
000001C1: 54 3E 04           JMP     $043E
000001C4: 40 CF 01           CALL    $01CF
000001C7: 40 38 13           CALL    $1338
000001CA: F9                 JR      $01C4
000001CB: 40 CD 05           CALL    $05CD
000001CE: F5                 JR      $01C4
000001CF: 40 A2 0E           CALL    $0EA2
000001D2: 8D                 CALT    ($009A)
000001D3: 40 27 21           CALL    $2127
000001D6: F8                 JR      $01CF
000001D7: B8                 RET     
000001D8: 40 F1 01           CALL    $01F1
000001DB: B1                 PUSH    BC
000001DC: 40 F1 01           CALL    $01F1
000001DF: A4                 POP     EA
000001E0: 74 FD              DEQ     EA,BC
000001E2: F5                 JR      $01D8
000001E3: 74 4A 80           ONI     B,$80
000001E6: 15 11 80           ORIW    VV:11,$80
000001E9: 74 0A 7F           ANI     B,$7F
000001EC: 70 1E 31 98        SBCD    $9831
000001F0: B8                 RET     
000001F1: 4C C1              MOV     A,PB
000001F3: 1B                 MOV     C,A
000001F4: 6A 00              MVI     B,$00
000001F6: 69 00              MVI     A,$00
000001F8: 40 2B 02           CALL    $022B
000001FB: 4C E0              MOV     A,CR0
000001FD: 57 80              OFFI    A,$80
000001FF: 74 1A 01           ORI     B,$01
00000202: 4C E1              MOV     A,CR1
00000204: 57 80              OFFI    A,$80
00000206: 74 1A 02           ORI     B,$02
00000209: 4C E2              MOV     A,CR2
0000020B: 57 80              OFFI    A,$80
0000020D: 74 1A 04           ORI     B,$04
00000210: 4C E3              MOV     A,CR3
00000212: 57 80              OFFI    A,$80
00000214: 74 1A 08           ORI     B,$08
00000217: 69 08              MVI     A,$08
00000219: 40 2B 02           CALL    $022B
0000021C: 4C E0              MOV     A,CR0
0000021E: 57 80              OFFI    A,$80
00000220: 74 1A 10           ORI     B,$10
00000223: 4C E3              MOV     A,CR3
00000225: 57 80              OFFI    A,$80
00000227: 74 1A 80           ORI     B,$80
0000022A: B8                 RET     
0000022B: 4D C8              MOV     ANM,A
0000022D: 48 48              SKIT    FAD
0000022F: 48 48              SKIT    FAD
00000231: FD                 JR      $022F
00000232: B8                 RET     
00000233: 01 31              LDAW    VV:31
00000235: 57 01              OFFI    A,$01
00000237: C5                 JR      $023D
00000238: B0                 PUSH    VA
00000239: 40 10 15           CALL    $1510
0000023C: A0                 POP     VA
0000023D: 47 02              ONI     A,$02
0000023F: 15 04 40           ORIW    VV:04,$40
00000242: 47 08              ONI     A,$08
00000244: C9                 JR      $024E
00000245: 47 04              ONI     A,$04
00000247: 34 20 0A           LXI     HL,$0A20
0000024A: 34 48 09           LXI     HL,$0948
0000024D: C8                 JR      $0256
0000024E: 47 04              ONI     A,$04
00000250: 34 D8 09           LXI     HL,$09D8
00000253: 34 2C 07           LXI     HL,$072C
00000256: 70 3E 2D 99        SHLD    $992D
0000025A: 70 3E 31 99        SHLD    $9931
0000025E: 57 10              OFFI    A,$10
00000260: D6                 JR      $0277
00000261: 15 04 30           ORIW    VV:04,$30
00000264: 57 80              OFFI    A,$80
00000266: 15 04 01           ORIW    VV:04,$01
00000269: 57 40              OFFI    A,$40
0000026B: 15 04 02           ORIW    VV:04,$02
0000026E: 57 20              OFFI    A,$20
00000270: 15 04 04           ORIW    VV:04,$04
00000273: 71 0C 00           MVIW    VV:0C,$00
00000276: D2                 JR      $0289
00000277: 05 04 F8           ANIW    VV:04,$F8
0000027A: 57 80              OFFI    A,$80
0000027C: 15 0C 01           ORIW    VV:0C,$01
0000027F: 57 40              OFFI    A,$40
00000281: 15 0C 02           ORIW    VV:0C,$02
00000284: 57 20              OFFI    A,$20
00000286: 15 0C 04           ORIW    VV:0C,$04
00000289: 01 32              LDAW    VV:32
0000028B: 47 01              ONI     A,$01
0000028D: 15 14 01           ORIW    VV:14,$01
00000290: 05 02 DF           ANIW    VV:02,$DF
00000293: 47 02              ONI     A,$02
00000295: 15 02 20           ORIW    VV:02,$20
00000298: A7                 DMOV    EA,HL
00000299: 6A 00              MVI     B,$00
0000029B: 47 04              ONI     A,$04
0000029D: 6A D8              MVI     B,$D8
0000029F: 70 62              ESUB    EA,B
000002A1: B7                 DMOV    HL,EA
000002A2: 70 3E 2F 99        SHLD    $992F
000002A6: 47 08              ONI     A,$08
000002A8: 15 02 80           ORIW    VV:02,$80
000002AB: 57 10              OFFI    A,$10
000002AD: 15 02 0C           ORIW    VV:02,$0C
000002B0: 69 10              MVI     A,$10
000002B2: 70 79 06 98        MOV     ($9806),A
000002B6: 55 4F 04           OFFIW   VV:4F,$04
000002B9: 40 F8 14           CALL    $14F8
000002BC: 40 2B 15           CALL    $152B
000002BF: 58 4F              BIT     0,VV:4F
000002C1: 40 2F 15           CALL    $152F
000002C4: 59 4F              BIT     1,VV:4F
000002C6: 54 CD 15           JMP     $15CD
000002C9: 54 C9 15           JMP     $15C9
000002CC: 40 E4 0F           CALL    $0FE4
000002CF: D1                 JR      $02E1
000002D0: 87                 CALT    ($008E)
000002D1: C5                 JR      $02D7
000002D2: 15 03 04           ORIW    VV:03,$04
000002D5: 4E 30              JRE     $0307
000002D7: 40 F2 0F           CALL    $0FF2
000002DA: 4E 22              JRE     $02FE
000002DC: 40 09 03           CALL    $0309
000002DF: 4E 26              JRE     $0307
000002E1: 87                 CALT    ($008E)
000002E2: CF                 JR      $02F2
000002E3: 40 F2 0F           CALL    $0FF2
000002E6: C6                 JR      $02ED
000002E7: 40 E9 0C           CALL    $0CE9
000002EA: 54 26 10           JMP     $1026
000002ED: 15 4F 01           ORIW    VV:4F,$01
000002F0: 4E 0F              JRE     $0301
000002F2: 40 F2 0F           CALL    $0FF2
000002F5: B8                 RET     
000002F6: 40 26 10           CALL    $1026
000002F9: B8                 RET     
000002FA: 40 26 10           CALL    $1026
000002FD: B8                 RET     
000002FE: 05 4F FE           ANIW    VV:4F,$FE
00000301: 15 03 02           ORIW    VV:03,$02
00000304: 15 11 40           ORIW    VV:11,$40
00000307: 81                 CALT    ($0082)
00000308: B8                 RET     
00000309: 40 54 10           CALL    $1054
0000030C: 40 26 10           CALL    $1026
0000030F: 44 00 00           LXI     EA,$0000
00000312: B4                 PUSH    EA
00000313: A4                 POP     EA
00000314: 40 48 03           CALL    $0348
00000317: B8                 RET     
00000318: B4                 PUSH    EA
00000319: 87                 CALT    ($008E)
0000031A: F8                 JR      $0313
0000031B: 81                 CALT    ($0082)
0000031C: 40 26 10           CALL    $1026
0000031F: A4                 POP     EA
00000320: 40 48 03           CALL    $0348
00000323: B8                 RET     
00000324: B4                 PUSH    EA
00000325: 40 E4 0F           CALL    $0FE4
00000328: F6                 JR      $031F
00000329: 81                 CALT    ($0082)
0000032A: 40 26 10           CALL    $1026
0000032D: A4                 POP     EA
0000032E: 40 48 03           CALL    $0348
00000331: B8                 RET     
00000332: B4                 PUSH    EA
00000333: 40 F2 0F           CALL    $0FF2
00000336: F6                 JR      $032D
00000337: 81                 CALT    ($0082)
00000338: 40 26 10           CALL    $1026
0000033B: A4                 POP     EA
0000033C: 40 48 03           CALL    $0348
0000033F: B8                 RET     
00000340: B4                 PUSH    EA
00000341: 87                 CALT    ($008E)
00000342: F8                 JR      $033B
00000343: A4                 POP     EA
00000344: 15 14 04           ORIW    VV:14,$04
00000347: B8                 RET     
00000348: A8                 INX     EA
00000349: 24 00 FF           LXI     DE,$FF00
0000034C: 74 FE              DEQ     EA,DE
0000034E: B9                 RETS    
0000034F: B8                 RET     
00000350: 40 B9 0D           CALL    $0DB9
00000353: 34 8B 03           LXI     HL,$038B
00000356: 40 F4 08           CALL    $08F4
00000359: 40 82 2B           CALL    $2B82
0000035C: 40 26 10           CALL    $1026
0000035F: 40 0A 09           CALL    $090A
00000362: 69 20              MVI     A,$20
00000364: 63 28              STAW    VV:28
00000366: B0                 PUSH    VA
00000367: 40 A2 0E           CALL    $0EA2
0000036A: A0                 POP     VA
0000036B: 63 16              STAW    VV:16
0000036D: 63 15              STAW    VV:15
0000036F: 40 E4 05           CALL    $05E4
00000372: 40 B1 08           CALL    $08B1
00000375: C1                 JR      $0377
00000376: CA                 JR      $0381
00000377: 86                 CALT    ($008C)
00000378: 01 28              LDAW    VV:28
0000037A: 40 34 04           CALL    $0434
0000037D: 63 28              STAW    VV:28
0000037F: 4F E5              JRE     $0366
00000381: 40 1B 22           CALL    $221B
00000384: 01 16              LDAW    VV:16
00000386: 40 34 04           CALL    $0434
00000389: 4F DB              JRE     $0366
0000038B: 50                 EXH     
0000038C: 53                 DCR     C
0000038D: 32                 INX     HL
0000038E: 34 31 34           LXI     HL,$3431
00000391: 00                 NOP     
00000392: 40 2F 15           CALL    $152F
00000395: 40 FC 14           CALL    $14FC
00000398: 34 03 04           LXI     HL,$0403
0000039B: 40 F4 08           CALL    $08F4
0000039E: 40 82 2B           CALL    $2B82
000003A1: 40 26 10           CALL    $1026
000003A4: 14 00 00           LXI     BC,$0000
000003A7: B1                 PUSH    BC
000003A8: 40 AD 09           CALL    $09AD
000003AB: A1                 POP     BC
000003AC: B1                 PUSH    BC
000003AD: 40 CF 01           CALL    $01CF
000003B0: A1                 POP     BC
000003B1: 44 0F 00           LXI     EA,$000F
000003B4: 74 8D              DAN     EA,BC
000003B6: B6                 DMOV    DE,EA
000003B7: 44 06 FF           LXI     EA,$FF06
000003BA: 74 C6              DADD    EA,DE
000003BC: 74 C6              DADD    EA,DE
000003BE: 74 C6              DADD    EA,DE
000003C0: B6                 DMOV    DE,EA
000003C1: B0                 PUSH    VA
000003C2: 40 20 04           CALL    $0420
000003C5: A0                 POP     VA
000003C6: 44 0F 00           LXI     EA,$000F
000003C9: 74 8D              DAN     EA,BC
000003CB: B6                 DMOV    DE,EA
000003CC: 44 37 FF           LXI     EA,$FF37
000003CF: 74 C6              DADD    EA,DE
000003D1: B6                 DMOV    DE,EA
000003D2: B1                 PUSH    BC
000003D3: 1A                 MOV     B,A
000003D4: 74 0A 7F           ANI     B,$7F
000003D7: 74 3A 20           LTI     B,$20
000003DA: 74 6A 7F           NEI     B,$7F
000003DD: 69 2E              MVI     A,$2E
000003DF: 3A                 STAX    (DE)
000003E0: A1                 POP     BC
000003E1: 55 03 01           OFFIW   VV:03,$01
000003E4: CE                 JR      $03F3
000003E5: 24 00 FF           LXI     DE,$FF00
000003E8: 0A                 MOV     A,B
000003E9: 40 20 04           CALL    $0420
000003EC: 0B                 MOV     A,C
000003ED: 40 20 04           CALL    $0420
000003F0: 15 03 01           ORIW    VV:03,$01
000003F3: 12                 INX     BC
000003F4: 74 5B 0F           OFFI    C,$0F
000003F7: 4F B3              JRE     $03AC
000003F9: B1                 PUSH    BC
000003FA: 34 00 FF           LXI     HL,$FF00
000003FD: 40 F4 08           CALL    $08F4
00000400: A1                 POP     BC
00000401: 4F A4              JRE     $03A7
00000403: 44 61 74           LXI     EA,$7461
00000406: 61                 DAA     
00000407: 20 44              INRW    VV:44
00000409: 75 6D 70           EQIW    VV:6D,$70
0000040C: 20 4D              INRW    VV:4D
0000040E: 6F 64              MVI     L,$64
00000410: 65 00 34           NEIW    VV:00,$34
00000413: 00                 NOP     
00000414: FF                 JR      $0414
00000415: 40 FE 08           CALL    $08FE
00000418: 40 AD 09           CALL    $09AD
0000041B: 8B                 CALT    ($0096)
0000041C: 40 07 17           CALL    $1707
0000041F: B9                 RETS    
00000420: 70 79 89 FF        MOV     ($FF89),A
00000424: 40 27 04           CALL    $0427
00000427: 34 89 FF           LXI     HL,$FF89
0000042A: 69 30              MVI     A,$30
0000042C: 48 38              RLD     
0000042E: 37 3A              LTI     A,$3A
00000430: 46 07              ADI     A,$07
00000432: 3C                 STAX    (DE+)
00000433: B8                 RET     
00000434: 41                 INR     A
00000435: 67 7F              NEI     A,$7F
00000437: 69 A0              MVI     A,$A0
00000439: 67 FF              NEI     A,$FF
0000043B: 69 20              MVI     A,$20
0000043D: B8                 RET     
0000043E: 40 54 10           CALL    $1054
00000441: 40 D8 31           CALL    $31D8
00000444: 40 CC 04           CALL    $04CC
00000447: 40 2B 15           CALL    $152B
0000044A: 40 C9 15           CALL    $15C9
0000044D: 40 FC 14           CALL    $14FC
00000450: 40 14 15           CALL    $1514
00000453: 71 46 04           MVIW    VV:46,$04
00000456: D8                 JR      $046F
00000457: 65 46 02           NEIW    VV:46,$02
0000045A: 71 46 01           MVIW    VV:46,$01
0000045D: 65 46 01           NEIW    VV:46,$01
00000460: C4                 JR      $0465
00000461: 40 2F 15           CALL    $152F
00000464: C6                 JR      $046B
00000465: 40 2B 15           CALL    $152B
00000468: 40 C9 15           CALL    $15C9
0000046B: 14 88 82           LXI     BC,$8288
0000046E: 91                 CALT    ($00A2)
0000046F: 40 D6 04           CALL    $04D6
00000472: 14 88 02           LXI     BC,$0288
00000475: 91                 CALT    ($00A2)
00000476: 48 64              SKNIT   F2
00000478: CE                 JR      $0487
00000479: 40 F2 0F           CALL    $0FF2
0000047C: C1                 JR      $047E
0000047D: DC                 JR      $049A
0000047E: 40 E4 0F           CALL    $0FE4
00000481: C2                 JR      $0484
00000482: 4E 25              JRE     $04A9
00000484: 87                 CALT    ($008E)
00000485: F0                 JR      $0476
00000486: E4                 JR      $046B
00000487: 40 26 10           CALL    $1026
0000048A: 30 46              DCRW    VV:46
0000048C: 4F C9              JRE     $0457
0000048E: 05 14 FB           ANIW    VV:14,$FB
00000491: 40 48 0C           CALL    $0C48
00000494: 40 9A 0C           CALL    $0C9A
00000497: 54 00 00           JMP     $0000
0000049A: 81                 CALT    ($0082)
0000049B: 40 26 10           CALL    $1026
0000049E: 40 B8 04           CALL    $04B8
000004A1: 37 FF              LTI     A,$FF
000004A3: 4F D1              JRE     $0476
000004A5: 41                 INR     A
000004A6: 3B                 STAX    (HL)
000004A7: 4F CD              JRE     $0476
000004A9: 81                 CALT    ($0082)
000004AA: 40 26 10           CALL    $1026
000004AD: 40 B8 04           CALL    $04B8
000004B0: 27 00              GTI     A,$00
000004B2: 4F C2              JRE     $0476
000004B4: 51                 DCR     A
000004B5: 3B                 STAX    (HL)
000004B6: 4F BE              JRE     $0476
000004B8: 01 46              LDAW    VV:46
000004BA: 44 50 98           LXI     EA,$9850
000004BD: 70 41              EADD    EA,A
000004BF: B7                 DMOV    HL,EA
000004C0: 2B                 LDAX    (HL)
000004C1: B8                 RET     
000004C2: 01 46              LDAW    VV:46
000004C4: 44 21 0D           LXI     EA,$0D21
000004C7: 70 41              EADD    EA,A
000004C9: B7                 DMOV    HL,EA
000004CA: 2B                 LDAX    (HL)
000004CB: B8                 RET     
000004CC: 74 E5              DSUB    EA,BC
000004CE: B5                 DMOV    BC,EA
000004CF: 40 88 2B           CALL    $2B88
000004D2: 40 B9 32           CALL    $32B9
000004D5: B8                 RET     
000004D6: 71 2C 24           MVIW    VV:2C,$24
000004D9: 65 46 04           NEIW    VV:46,$04
000004DC: D5                 JR      $04F2
000004DD: 65 46 03           NEIW    VV:46,$03
000004E0: CE                 JR      $04EF
000004E1: 65 46 01           NEIW    VV:46,$01
000004E4: C7                 JR      $04EC
000004E5: 75 46 00           EQIW    VV:46,$00
000004E8: B8                 RET     
000004E9: 34 8A 05           LXI     HL,$058A
000004EC: 34 78 05           LXI     HL,$0578
000004EF: 34 65 05           LXI     HL,$0565
000004F2: 34 53 05           LXI     HL,$0553
000004F5: 40 9C 05           CALL    $059C
000004F8: 40 C2 04           CALL    $04C2
000004FB: 1A                 MOV     B,A
000004FC: 40 B8 04           CALL    $04B8
000004FF: 60 B2              SUBNB   A,B
00000501: C1                 JR      $0503
00000502: CE                 JR      $0511
00000503: 48 3A              NEGA    
00000505: 67 00              NEI     A,$00
00000507: C9                 JR      $0511
00000508: B0                 PUSH    VA
00000509: 69 2D              MVI     A,$2D
0000050B: 63 15              STAW    VV:15
0000050D: 40 CD 05           CALL    $05CD
00000510: A0                 POP     VA
00000511: 40 59 0E           CALL    $0E59
00000514: 09                 MOV     A,EAL
00000515: 63 15              STAW    VV:15
00000517: B4                 PUSH    EA
00000518: 40 CD 05           CALL    $05CD
0000051B: A4                 POP     EA
0000051C: 08                 MOV     A,EAH
0000051D: 63 15              STAW    VV:15
0000051F: 40 CD 05           CALL    $05CD
00000522: 69 48              MVI     A,$48
00000524: 63 15              STAW    VV:15
00000526: 40 CD 05           CALL    $05CD
00000529: 40 4C 05           CALL    $054C
0000052C: 86                 CALT    ($008C)
0000052D: 71 2C 15           MVIW    VV:2C,$15
00000530: 71 45 03           MVIW    VV:45,$03
00000533: 71 15 48           MVIW    VV:15,$48
00000536: 40 E4 05           CALL    $05E4
00000539: 40 B1 08           CALL    $08B1
0000053C: C4                 JR      $0541
0000053D: 40 1B 22           CALL    $221B
00000540: F2                 JR      $0533
00000541: 40 4C 05           CALL    $054C
00000544: 86                 CALT    ($008C)
00000545: 30 45              DCRW    VV:45
00000547: EB                 JR      $0533
00000548: 71 2C 24           MVIW    VV:2C,$24
0000054B: B8                 RET     
0000054C: 25 46 02           GTIW    VV:46,$02
0000054F: 05 06 EF           ANIW    VV:06,$EF
00000552: B8                 RET     
00000553: 4E 4C              JRE     $05A1
00000555: 51                 DCR     A
00000556: 20 20              INRW    VV:20
00000558: 20 48              INRW    VV:48
0000055A: 20 2F              INRW    VV:2F
0000055C: 41                 INR     A
0000055D: 64 6A 75           NEI     PC,$75
00000560: 73                 illegal 
00000561: 74 3D 20           LTI     E,$20
00000564: 00                 NOP     
00000565: 44 72 61           LXI     EA,$6172
00000568: 66 74              SUI     A,$74
0000056A: 20 48              INRW    VV:48
0000056C: 20 2F              INRW    VV:2F
0000056E: 41                 INR     A
0000056F: 64 6A 75           NEI     PC,$75
00000572: 73                 illegal 
00000573: 74 3D 20           LTI     E,$20
00000576: 00                 NOP     
00000577: 00                 NOP     
00000578: 4E 4C              JRE     $05C6
0000057A: 51                 DCR     A
0000057B: 20 20              INRW    VV:20
0000057D: 20 4C              INRW    VV:4C
0000057F: 20 2F              INRW    VV:2F
00000581: 41                 INR     A
00000582: 64 6A 75           NEI     PC,$75
00000585: 73                 illegal 
00000586: 74 3D 20           LTI     E,$20
00000589: 00                 NOP     
0000058A: 44 72 61           LXI     EA,$6172
0000058D: 66 74              SUI     A,$74
0000058F: 20 4C              INRW    VV:4C
00000591: 20 2F              INRW    VV:2F
00000593: 41                 INR     A
00000594: 64 6A 75           NEI     PC,$75
00000597: 73                 illegal 
00000598: 74 3D 20           LTI     E,$20
0000059B: 00                 NOP     
0000059C: B3                 PUSH    HL
0000059D: 40 A5 0E           CALL    $0EA5
000005A0: A3                 POP     HL
000005A1: 40 FE 08           CALL    $08FE
000005A4: B8                 RET     
000005A5: 69 00              MVI     A,$00
000005A7: B3                 PUSH    HL
000005A8: B2                 PUSH    DE
000005A9: B7                 DMOV    HL,EA
000005AA: B6                 DMOV    DE,EA
000005AB: 3C                 STAX    (DE+)
000005AC: 31                 BLOCK   
000005AD: 52                 DCR     B
000005AE: FD                 JR      $05AC
000005AF: 2B                 LDAX    (HL)
000005B0: A2                 POP     DE
000005B1: A3                 POP     HL
000005B2: B8                 RET     
000005B3: 69 FF              MVI     A,$FF
000005B5: 69 00              MVI     A,$00
000005B7: 44 00 98           LXI     EA,$9800
000005BA: 14 FE 1F           LXI     BC,$1FFE
000005BD: B0                 PUSH    VA
000005BE: 40 A7 05           CALL    $05A7
000005C1: A1                 POP     BC
000005C2: 60 FB              EQA     A,C
000005C4: C1                 JR      $05C6
000005C5: B8                 RET     
000005C6: 40 48 0C           CALL    $0C48
000005C9: 40 44 10           CALL    $1044
000005CC: FF                 JR      $05CC
000005CD: 01 15              LDAW    VV:15
000005CF: B0                 PUSH    VA
000005D0: 40 E4 05           CALL    $05E4
000005D3: 40 B1 08           CALL    $08B1
000005D6: C5                 JR      $05DC
000005D7: A0                 POP     VA
000005D8: 40 1B 22           CALL    $221B
000005DB: B8                 RET     
000005DC: 86                 CALT    ($008C)
000005DD: A0                 POP     VA
000005DE: 63 15              STAW    VV:15
000005E0: 58 05              BIT     0,VV:05
000005E2: EA                 JR      $05CD
000005E3: B8                 RET     
000005E4: 05 08 8C           ANIW    VV:08,$8C
000005E7: 01 0A              LDAW    VV:0A
000005E9: 07 73              ANI     A,$73
000005EB: 74 98 08           ORAW    VV:08
000005EE: 63 08              STAW    VV:08
000005F0: 05 09 26           ANIW    VV:09,$26
000005F3: 01 0B              LDAW    VV:0B
000005F5: 07 D9              ANI     A,$D9
000005F7: 74 98 09           ORAW    VV:09
000005FA: 63 09              STAW    VV:09
000005FC: 05 07 EF           ANIW    VV:07,$EF
000005FF: 59 09              BIT     1,VV:09
00000601: CC                 JR      $060E
00000602: 5F 09              BIT     7,VV:09
00000604: CC                 JR      $0611
00000605: 5A 08              BIT     2,VV:08
00000607: 55 09 40           OFFIW   VV:09,$40
0000060A: 05 06 EF           ANIW    VV:06,$EF
0000060D: C3                 JR      $0611
0000060E: 55 09 40           OFFIW   VV:09,$40
00000611: 15 08 20           ORIW    VV:08,$20
00000614: 40 D6 1A           CALL    $1AD6
00000617: C8                 JR      $0620
00000618: 15 08 02           ORIW    VV:08,$02
0000061B: 40 D0 06           CALL    $06D0
0000061E: 4E A6              JRE     $06C6
00000620: 40 32 06           CALL    $0632
00000623: 5C 07              BIT     4,VV:07
00000625: 40 F7 07           CALL    $07F7
00000628: 5E 04              BIT     6,VV:04
0000062A: B8                 RET     
0000062B: 65 15 30           NEIW    VV:15,$30
0000062E: 71 15 7F           MVIW    VV:15,$7F
00000631: B8                 RET     
00000632: 01 04              LDAW    VV:04
00000634: 1A                 MOV     B,A
00000635: 01 15              LDAW    VV:15
00000637: 67 5F              NEI     A,$5F
00000639: 15 09 08           ORIW    VV:09,$08
0000063C: 47 80              ONI     A,$80
0000063E: B8                 RET     
0000063F: 5D 04              BIT     5,VV:04
00000641: 4E 22              JRE     $0665
00000643: 74 0A 07           ANI     B,$07
00000646: 74 2A 04           GTI     B,$04
00000649: 74 6A 00           NEI     B,$00
0000064C: 4E 28              JRE     $0676
0000064E: 34 5D 06           LXI     HL,$065D
00000651: 48 26              SLL     B
00000653: 74 62 02           SUI     B,$02
00000656: 48 8D              LDEAX   (HL+B)
00000658: B5                 DMOV    BC,EA
00000659: 48 29              CALB    
0000065B: B8                 RET     
0000065C: D9                 JR      $0676
0000065D: 08                 MOV     A,EAH
0000065E: 07 12              ANI     A,$12
00000660: 07 1C              ANI     A,$1C
00000662: 07 26              ANI     A,$26
00000664: 07 47              ANI     A,$47
00000666: 80                 CALT    ($0080)
00000667: C6                 JR      $066E
00000668: 15 09 80           ORIW    VV:09,$80
0000066B: 05 15 7F           ANIW    VV:15,$7F
0000066E: 01 15              LDAW    VV:15
00000670: 67 5F              NEI     A,$5F
00000672: 15 09 08           ORIW    VV:09,$08
00000675: B8                 RET     
00000676: 27 AF              GTI     A,$AF
00000678: B8                 RET     
00000679: 37 E0              LTI     A,$E0
0000067B: 54 9F 06           JMP     $069F
0000067E: 40 D0 06           CALL    $06D0
00000681: 55 0A 20           OFFIW   VV:0A,$20
00000684: CA                 JR      $068F
00000685: 55 09 02           OFFIW   VV:09,$02
00000688: C6                 JR      $068F
00000689: 55 09 40           OFFIW   VV:09,$40
0000068C: 05 08 DF           ANIW    VV:08,$DF
0000068F: 05 08 EF           ANIW    VV:08,$EF
00000692: 05 09 3F           ANIW    VV:09,$3F
00000695: 34 28 06           LXI     HL,$0628
00000698: AC                 LDAX    (HL+A)
00000699: 74 98 09           ORAW    VV:09
0000069C: 63 09              STAW    VV:09
0000069E: B8                 RET     
0000069F: 77 F4              EQI     A,$F4
000006A1: 67 F5              NEI     A,$F5
000006A3: C6                 JR      $06AA
000006A4: 67 FF              NEI     A,$FF
000006A6: 71 15 20           MVIW    VV:15,$20
000006A9: B8                 RET     
000006AA: 55 0A 20           OFFIW   VV:0A,$20
000006AD: CA                 JR      $06B8
000006AE: 55 09 02           OFFIW   VV:09,$02
000006B1: C6                 JR      $06B8
000006B2: 55 09 40           OFFIW   VV:09,$40
000006B5: 05 08 DF           ANIW    VV:08,$DF
000006B8: 67 F4              NEI     A,$F4
000006BA: 15 09 10           ORIW    VV:09,$10
000006BD: 05 08 EF           ANIW    VV:08,$EF
000006C0: 05 09 3F           ANIW    VV:09,$3F
000006C3: 40 D0 06           CALL    $06D0
000006C6: 5E 07              BIT     6,VV:07
000006C8: B8                 RET     
000006C9: 55 11 20           OFFIW   VV:11,$20
000006CC: 05 07 BF           ANIW    VV:07,$BF
000006CF: B8                 RET     
000006D0: 05 06 EF           ANIW    VV:06,$EF
000006D3: B8                 RET     
000006D4: 15 06 10           ORIW    VV:06,$10
000006D7: B8                 RET     
000006D8: 10                 EXA     
000006D9: 10                 EXA     
000006DA: 10                 EXA     
000006DB: 10                 EXA     
000006DC: 10                 EXA     
000006DD: 10                 EXA     
000006DE: 10                 EXA     
000006DF: 10                 EXA     
000006E0: 10                 EXA     
000006E1: 10                 EXA     
000006E2: 10                 EXA     
000006E3: 10                 EXA     
000006E4: 00                 NOP     
000006E5: 00                 NOP     
000006E6: 00                 NOP     
000006E7: 10                 EXA     
000006E8: 08                 MOV     A,EAH
000006E9: 08                 MOV     A,EAH
000006EA: 18                 MOV     EAH,A
000006EB: 18                 MOV     EAH,A
000006EC: 08                 MOV     A,EAH
000006ED: 18                 MOV     EAH,A
000006EE: 18                 MOV     EAH,A
000006EF: 18                 MOV     EAH,A
000006F0: 08                 MOV     A,EAH
000006F1: 18                 MOV     EAH,A
000006F2: 08                 MOV     A,EAH
000006F3: 18                 MOV     EAH,A
000006F4: 18                 MOV     EAH,A
000006F5: 08                 MOV     A,EAH
000006F6: 18                 MOV     EAH,A
000006F7: 08                 MOV     A,EAH
000006F8: 08                 MOV     A,EAH
000006F9: 18                 MOV     EAH,A
000006FA: 18                 MOV     EAH,A
000006FB: 08                 MOV     A,EAH
000006FC: 08                 MOV     A,EAH
000006FD: 18                 MOV     EAH,A
000006FE: 18                 MOV     EAH,A
000006FF: 18                 MOV     EAH,A
00000700: 18                 MOV     EAH,A
00000701: 00                 NOP     
00000702: 18                 MOV     EAH,A
00000703: 18                 MOV     EAH,A
00000704: 18                 MOV     EAH,A
00000705: 10                 EXA     
00000706: 18                 MOV     EAH,A
00000707: 08                 MOV     A,EAH
00000708: 34 49 07           LXI     HL,$0749
0000070B: 6A 2E              MVI     B,$2E
0000070D: 6B 00              MVI     C,$00
0000070F: 6C 09              MVI     D,$09
00000711: DE                 JR      $0730
00000712: 34 A7 07           LXI     HL,$07A7
00000715: 6A 0F              MVI     B,$0F
00000717: 6B 00              MVI     C,$00
00000719: 6C 01              MVI     D,$01
0000071B: D4                 JR      $0730
0000071C: 34 C7 07           LXI     HL,$07C7
0000071F: 6A 14              MVI     B,$14
00000721: 6B 00              MVI     C,$00
00000723: 6C 05              MVI     D,$05
00000725: CA                 JR      $0730
00000726: 34 F1 07           LXI     HL,$07F1
00000729: 6A 02              MVI     B,$02
0000072B: 6B 00              MVI     C,$00
0000072D: 6C 04              MVI     D,$04
0000072F: C0                 JR      $0730
00000730: 43                 INR     C
00000731: 32                 INX     HL
00000732: 70 ED              NEAX    (HL+)
00000734: C3                 JR      $0738
00000735: 52                 DCR     B
00000736: F9                 JR      $0730
00000737: B9                 RETS    
00000738: 33                 DCX     HL
00000739: 33                 DCX     HL
0000073A: 2B                 LDAX    (HL)
0000073B: 63 15              STAW    VV:15
0000073D: 0C                 MOV     A,D
0000073E: 60 AB              GTA     A,C
00000740: C4                 JR      $0745
00000741: 15 07 10           ORIW    VV:07,$10
00000744: B8                 RET     
00000745: 15 08 40           ORIW    VV:08,$40
00000748: B8                 RET     
00000749: 15 9B 14           ORIW    VV:9B,$14
0000074C: 9D                 CALT    ($00BA)
0000074D: 9B                 CALT    ($00B6)
0000074E: BD                 STAX    (HL+B)
0000074F: 1F                 MOV     L,A
00000750: BE                 STAX    (HL+EA)
00000751: 0B                 MOV     A,C
00000752: CF                 JR      $0762
00000753: 7C DD              CALF    $0CDD
00000755: 10                 EXA     
00000756: F5                 JR      $074C
00000757: 16 F9              XRI     A,$F9
00000759: 80                 CALT    ($0080)
0000075A: 9E                 CALT    ($00BC)
0000075B: 81                 CALT    ($0082)
0000075C: A9                 DCX     EA
0000075D: 82                 CALT    ($0084)
0000075E: B5                 DMOV    BC,EA
0000075F: 83                 CALT    ($0086)
00000760: B6                 DMOV    DE,EA
00000761: 84                 CALT    ($0088)
00000762: B7                 DMOV    HL,EA
00000763: 85                 CALT    ($008A)
00000764: B8                 RET     
00000765: 86                 CALT    ($008C)
00000766: C6                 JR      $076D
00000767: 87                 CALT    ($008E)
00000768: C7                 JR      $0770
00000769: 88                 CALT    ($0090)
0000076A: D0                 JR      $077B
0000076B: 89                 CALT    ($0092)
0000076C: D1                 JR      $077E
0000076D: 8A                 CALT    ($0094)
0000076E: D2                 JR      $0781
0000076F: 8B                 CALT    ($0096)
00000770: D3                 JR      $0784
00000771: 8C                 CALT    ($0098)
00000772: D4                 JR      $0787
00000773: 8D                 CALT    ($009A)
00000774: D5                 JR      $078A
00000775: 8E                 CALT    ($009C)
00000776: D6                 JR      $078D
00000777: 8F                 CALT    ($009E)
00000778: D7                 JR      $0790
00000779: 90                 CALT    ($00A0)
0000077A: D8                 JR      $0793
0000077B: 91                 CALT    ($00A2)
0000077C: DE                 JR      $079B
0000077D: 92                 CALT    ($00A4)
0000077E: E0                 JR      $075F
0000077F: 93                 CALT    ($00A6)
00000780: E2                 JR      $0763
00000781: 94                 CALT    ($00A8)
00000782: E3                 JR      $0766
00000783: 95                 CALT    ($00AA)
00000784: E4                 JR      $0769
00000785: 96                 CALT    ($00AC)
00000786: E5                 JR      $076C
00000787: 97                 CALT    ($00AE)
00000788: E7                 JR      $0770
00000789: 98                 CALT    ($00B0)
0000078A: E8                 JR      $0773
0000078B: 99                 CALT    ($00B2)
0000078C: E9                 JR      $0776
0000078D: 9A                 CALT    ($00B4)
0000078E: EA                 JR      $0779
0000078F: 9B                 CALT    ($00B6)
00000790: EB                 JR      $077C
00000791: 9C                 CALT    ($00B8)
00000792: EC                 JR      $077F
00000793: 9D                 CALT    ($00BA)
00000794: ED                 JR      $0782
00000795: 9E                 CALT    ($00BC)
00000796: EE                 JR      $0785
00000797: 9F                 CALT    ($00BE)
00000798: EF                 JR      $0788
00000799: A0                 POP     VA
0000079A: F0                 JR      $078B
0000079B: A1                 POP     BC
0000079C: F2                 JR      $078F
0000079D: A2                 POP     DE
0000079E: F3                 JR      $0792
0000079F: A3                 POP     HL
000007A0: F4                 JR      $0795
000007A1: A4                 POP     EA
000007A2: F7                 JR      $079A
000007A3: A5                 DMOV    EA,BC
000007A4: FB                 JR      $07A0
000007A5: A6                 DMOV    EA,DE
000007A6: FC                 JR      $07A3
000007A7: 86                 CALT    ($008C)
000007A8: 84                 CALT    ($0088)
000007A9: 82                 CALT    ($0084)
000007AA: 86                 CALT    ($008C)
000007AB: 8A                 CALT    ($0094)
000007AC: 89                 CALT    ($0092)
000007AD: 8E                 CALT    ($009C)
000007AE: 8B                 CALT    ($0096)
000007AF: 93                 CALT    ($00A6)
000007B0: 8C                 CALT    ($0098)
000007B1: 87                 CALT    ($008E)
000007B2: 8E                 CALT    ($009C)
000007B3: 83                 CALT    ($0086)
000007B4: 8F                 CALT    ($009E)
000007B5: 84                 CALT    ($0088)
000007B6: 91                 CALT    ($00A2)
000007B7: 8C                 CALT    ($0098)
000007B8: 92                 CALT    ($00A4)
000007B9: 95                 CALT    ($00AA)
000007BA: 94                 CALT    ($00A8)
000007BB: 99                 CALT    ($00B2)
000007BC: 96                 CALT    ($00AC)
000007BD: 91                 CALT    ($00A2)
000007BE: 98                 CALT    ($00B0)
000007BF: 96                 CALT    ($00AC)
000007C0: 99                 CALT    ($00B2)
000007C1: 9B                 CALT    ($00B6)
000007C2: 9D                 CALT    ($00BA)
000007C3: 92                 CALT    ($00A4)
000007C4: 9F                 CALT    ($00BE)
000007C5: 94                 CALT    ($00A8)
000007C6: A9                 DCX     EA
000007C7: 10                 EXA     
000007C8: 8F                 CALT    ($009E)
000007C9: 0B                 MOV     A,C
000007CA: 98                 CALT    ($00B0)
000007CB: 7C A0              CALF    $0CA0
000007CD: 16 A4              XRI     A,$A4
000007CF: 83                 CALT    ($0086)
000007D0: 84                 CALT    ($0088)
000007D1: A3                 POP     HL
000007D2: 86                 CALT    ($008C)
000007D3: A1                 POP     BC
000007D4: 8D                 CALT    ($009A)
000007D5: 84                 CALT    ($0088)
000007D6: 8E                 CALT    ($009C)
000007D7: 8C                 CALT    ($0098)
000007D8: 91                 CALT    ($00A2)
000007D9: 8A                 CALT    ($0094)
000007DA: 92                 CALT    ($00A4)
000007DB: 8B                 CALT    ($0096)
000007DC: 94                 CALT    ($00A8)
000007DD: 90                 CALT    ($00A0)
000007DE: 95                 CALT    ($00AA)
000007DF: 93                 CALT    ($00A6)
000007E0: 99                 CALT    ($00B2)
000007E1: 9B                 CALT    ($00B6)
000007E2: 9D                 CALT    ($00BA)
000007E3: 9A                 CALT    ($00B4)
000007E4: 9E                 CALT    ($00BC)
000007E5: 9F                 CALT    ($00BE)
000007E6: A1                 POP     BC
000007E7: A4                 POP     EA
000007E8: A5                 DMOV    EA,BC
000007E9: A6                 DMOV    EA,DE
000007EA: A6                 DMOV    EA,DE
000007EB: 9E                 CALT    ($00BC)
000007EC: A7                 DMOV    EA,HL
000007ED: 8F                 CALT    ($009E)
000007EE: A8                 INX     EA
000007EF: A2                 POP     DE
000007F0: AD                 LDAX    (HL+B)
000007F1: 15 9B 14           ORIW    VV:9B,$14
000007F4: 9D                 CALT    ($00BA)
000007F5: 0B                 MOV     A,C
000007F6: AF 01              LDAX    (HL+$01)
000007F8: 15 47 80           ORIW    VV:47,$80
000007FB: 65 0C 00           NEIW    VV:0C,$00
000007FE: B8                 RET     
000007FF: 34 15 08           LXI     HL,$0815
00000802: 6A 0B              MVI     B,$0B
00000804: 70 ED              NEAX    (HL+)
00000806: C3                 JR      $080A
00000807: 52                 DCR     B
00000808: FB                 JR      $0804
00000809: B8                 RET     
0000080A: 33                 DCX     HL
0000080B: 01 0C              LDAW    VV:0C
0000080D: 6A 0C              MVI     B,$0C
0000080F: 48 2E              MUL     B
00000811: AE                 LDAX    (HL+EA)
00000812: 63 15              STAW    VV:15
00000814: B8                 RET     
00000815: 23                 DCX     DE
00000816: 24 40 5B           LXI     DE,$5B40
00000819: 5C 5D              BIT     4,VV:5D
0000081B: 5E 60              BIT     6,VV:60
0000081D: 7B 7C              CALF    $0B7C
0000081F: 7D 7E              CALF    $0D7E
00000821: 23                 DCX     DE
00000822: 24 00 05           LXI     DE,$0500
00000825: 0F                 MOV     A,L
00000826: 10                 EXA     
00000827: 5E 60              BIT     6,VV:60
00000829: 1E                 MOV     H,A
0000082A: 02                 INX     SP
0000082B: 01 16              LDAW    VV:16
0000082D: 23                 DCX     DE
0000082E: 24 10 17           LXI     DE,$1710
00000831: 18                 MOV     EAH,A
00000832: 19                 MOV     EAL,A
00000833: 5E 60              BIT     6,VV:60
00000835: 1A                 MOV     B,A
00000836: 1B                 MOV     C,A
00000837: 1C                 MOV     D,A
00000838: 11                 EXX     
00000839: 06                 illegal 
0000083A: 24 40 5B           LXI     DE,$5B40
0000083D: 5C 5D              BIT     4,VV:5D
0000083F: 5E 60              BIT     6,VV:60
00000841: 7B 7C              CALF    $0B7C
00000843: 7D 7E              CALF    $0D7E
00000845: 23                 DCX     DE
00000846: 24 40 12           LXI     DE,$1240
00000849: 14 0D 5E           LXI     BC,$5E0D
0000084C: 60 13              XRA     C,A
0000084E: 15 0E 7E           ORIW    VV:0E,$7E
00000851: 23                 DCX     DE
00000852: 0B                 MOV     A,C
00000853: 1D                 MOV     E,A
00000854: 17 18              ORI     A,$18
00000856: 0D                 MOV     A,E
00000857: 19                 MOV     EAL,A
00000858: 1E                 MOV     H,A
00000859: 1A                 MOV     B,A
0000085A: 1B                 MOV     C,A
0000085B: 0E                 MOV     A,H
0000085C: 1C                 MOV     D,A
0000085D: 23                 DCX     DE
0000085E: 24 40 05           LXI     DE,$0540
00000861: 5C 1E              BIT     4,VV:1E
00000863: 5E 02              BIT     6,VV:02
00000865: 00                 NOP     
00000866: 03                 DCX     SP
00000867: 01 04              LDAW    VV:04
00000869: 0C                 MOV     A,D
0000086A: 24 40 07           LXI     DE,$0740
0000086D: 09                 MOV     A,EAL
0000086E: 08                 MOV     A,EAH
0000086F: 5E 60              BIT     6,VV:60
00000871: 16 0A              XRI     A,$0A
00000873: 7D 7E              CALF    $0D7E
00000875: 23                 DCX     DE
00000876: 24 40 5B           LXI     DE,$5B40
00000879: 1F                 MOV     L,A
0000087A: 5D 5E              BIT     5,VV:5E
0000087C: 60 7B              EQA     C,A
0000087E: 7C 7D              CALF    $0C7D
00000880: 7E 23              CALF    $0E23
00000882: 0B                 MOV     A,C
00000883: 1D                 MOV     E,A
00000884: 12                 INX     BC
00000885: 14 0D 19           LXI     BC,$190D
00000888: 1E                 MOV     H,A
00000889: 13                 DCX     BC
0000088A: 15 0E 1C           ORIW    VV:0E,$1C
0000088D: 23                 DCX     DE
0000088E: 24 1D 12           LXI     DE,$121D
00000891: 14 0D 19           LXI     BC,$190D
00000894: 1E                 MOV     H,A
00000895: 13                 DCX     BC
00000896: 15 0E 1C           ORIW    VV:0E,$1C
00000899: 23                 DCX     DE
0000089A: 24 A0 07           LXI     DE,$07A0
0000089D: 09                 MOV     A,EAL
0000089E: 08                 MOV     A,EAH
0000089F: 1E                 MOV     H,A
000008A0: 60 A1              ADDNC   A,A
000008A2: 0A                 MOV     A,B
000008A3: A2                 POP     DE
000008A4: A3                 POP     HL
000008A5: 23                 DCX     DE
000008A6: 24 A0 07           LXI     DE,$07A0
000008A9: 09                 MOV     A,EAL
000008AA: 08                 MOV     A,EAH
000008AB: 1E                 MOV     H,A
000008AC: 1C                 MOV     D,A
000008AD: A1                 POP     BC
000008AE: 0A                 MOV     A,B
000008AF: A2                 POP     DE
000008B0: A3                 POP     HL
000008B1: 05 11 FB           ANIW    VV:11,$FB
000008B4: 05 05 FE           ANIW    VV:05,$FE
000008B7: 01 15              LDAW    VV:15
000008B9: 70 1F 08 98        LBCD    $9808
000008BD: 40 C9 22           CALL    $22C9
000008C0: B7                 DMOV    HL,EA
000008C1: 70 3E 3B 99        SHLD    $993B
000008C5: 70 3F 01 99        LHLD    $9901
000008C9: 74 C7              DADD    EA,HL
000008CB: 70 3F 3D 99        LHLD    $993D
000008CF: 74 AF              DGT     EA,HL
000008D1: B9                 RETS    
000008D2: 5F 05              BIT     7,VV:05
000008D4: B8                 RET     
000008D5: 75 15 20           EQIW    VV:15,$20
000008D8: C4                 JR      $08DD
000008D9: 15 05 01           ORIW    VV:05,$01
000008DC: B8                 RET     
000008DD: B4                 PUSH    EA
000008DE: 34 47 99           LXI     HL,$9947
000008E1: 48 83              LDEAX   (HL)
000008E3: 48 A0              DSLR    EA
000008E5: 70 3F 3D 99        LHLD    $993D
000008E9: 74 C7              DADD    EA,HL
000008EB: B7                 DMOV    HL,EA
000008EC: A4                 POP     EA
000008ED: 74 AF              DGT     EA,HL
000008EF: B9                 RETS    
000008F0: 15 11 04           ORIW    VV:11,$04
000008F3: B8                 RET     
000008F4: B3                 PUSH    HL
000008F5: 40 A5 0E           CALL    $0EA5
000008F8: A3                 POP     HL
000008F9: 40 FE 08           CALL    $08FE
000008FC: 86                 CALT    ($008C)
000008FD: B8                 RET     
000008FE: 2D                 LDAX    (HL+)
000008FF: 67 00              NEI     A,$00
00000901: B8                 RET     
00000902: 63 15              STAW    VV:15
00000904: B3                 PUSH    HL
00000905: 40 CD 05           CALL    $05CD
00000908: A3                 POP     HL
00000909: F4                 JR      $08FE
0000090A: 34 D5 09           LXI     HL,$09D5
0000090D: 01 31              LDAW    VV:31
0000090F: 70 79 8A FF        MOV     ($FF8A),A
00000913: 40 55 09           CALL    $0955
00000916: 40 55 09           CALL    $0955
00000919: 01 31              LDAW    VV:31
0000091B: 1A                 MOV     B,A
0000091C: 74 0A 0C           ANI     B,$0C
0000091F: 48 22              SLR     B
00000921: 48 22              SLR     B
00000923: 40 5E 09           CALL    $095E
00000926: 5D 04              BIT     5,VV:04
00000928: D0                 JR      $0939
00000929: 01 04              LDAW    VV:04
0000092B: 1A                 MOV     B,A
0000092C: 74 0A 07           ANI     B,$07
0000092F: 40 5E 09           CALL    $095E
00000932: 40 CF 09           CALL    $09CF
00000935: 40 CF 09           CALL    $09CF
00000938: CC                 JR      $0945
00000939: 40 CF 09           CALL    $09CF
0000093C: 40 55 09           CALL    $0955
0000093F: 01 0C              LDAW    VV:0C
00000941: 1A                 MOV     B,A
00000942: 40 5E 09           CALL    $095E
00000945: 01 32              LDAW    VV:32
00000947: 70 79 8A FF        MOV     ($FF8A),A
0000094B: 40 55 09           CALL    $0955
0000094E: 40 55 09           CALL    $0955
00000951: 40 55 09           CALL    $0955
00000954: C0                 JR      $0955
00000955: 70 69 8A FF        MOV     A,($FF8A)
00000959: 6A 01              MVI     B,$01
0000095B: 48 01              SLRC    A
0000095D: 52                 DCR     B
0000095E: B1                 PUSH    BC
0000095F: B3                 PUSH    HL
00000960: 40 AD 09           CALL    $09AD
00000963: A3                 POP     HL
00000964: A1                 POP     BC
00000965: 24 00 FF           LXI     DE,$FF00
00000968: 40 BF 09           CALL    $09BF
0000096B: 40 C5 09           CALL    $09C5
0000096E: 24 14 FF           LXI     DE,$FF14
00000971: 40 BF 09           CALL    $09BF
00000974: 40 CD 09           CALL    $09CD
00000977: 2B                 LDAX    (HL)
00000978: 67 FF              NEI     A,$FF
0000097A: C6                 JR      $0981
0000097B: 24 25 FF           LXI     DE,$FF25
0000097E: 40 8E 09           CALL    $098E
00000981: 69 00              MVI     A,$00
00000983: 3A                 STAX    (DE)
00000984: B3                 PUSH    HL
00000985: 34 00 FF           LXI     HL,$FF00
00000988: 40 F4 08           CALL    $08F4
0000098B: A3                 POP     HL
0000098C: 4E 41              JRE     $09CF
0000098E: 40 BF 09           CALL    $09BF
00000991: 22                 INX     DE
00000992: 69 4F              MVI     A,$4F
00000994: 3C                 STAX    (DE+)
00000995: 70 69 8A FF        MOV     A,($FF8A)
00000999: 44 46 46           LXI     EA,$4646
0000099C: 48 01              SLRC    A
0000099E: 44 4E 20           LXI     EA,$204E
000009A1: 48 94              STEAX   (DE++)
000009A3: 70 79 8A FF        MOV     ($FF8A),A
000009A7: 22                 INX     DE
000009A8: 2B                 LDAX    (HL)
000009A9: 77 02              EQI     A,$02
000009AB: E2                 JR      $098E
000009AC: B8                 RET     
000009AD: 44 4E 00           LXI     EA,$004E
000009B0: 34 02 FF           LXI     HL,$FF02
000009B3: 69 00              MVI     A,$00
000009B5: BE                 STAX    (HL+EA)
000009B6: 69 20              MVI     A,$20
000009B8: B5                 DMOV    BC,EA
000009B9: 44 00 FF           LXI     EA,$FF00
000009BC: 54 A7 05           JMP     $05A7
000009BF: 2D                 LDAX    (HL+)
000009C0: 67 00              NEI     A,$00
000009C2: B8                 RET     
000009C3: 3C                 STAX    (DE+)
000009C4: FA                 JR      $09BF
000009C5: 52                 DCR     B
000009C6: C1                 JR      $09C8
000009C7: B8                 RET     
000009C8: 2D                 LDAX    (HL+)
000009C9: 77 00              EQI     A,$00
000009CB: FC                 JR      $09C8
000009CC: F8                 JR      $09C5
000009CD: 69 01              MVI     A,$01
000009CF: 69 02              MVI     A,$02
000009D1: 70 FD              EQAX    (HL+)
000009D3: FD                 JR      $09D1
000009D4: B8                 RET     
000009D5: 43                 INR     C
000009D6: 68 61              MVI     V,$61
000009D8: 72                 SOFTI   
000009D9: 61                 DAA     
000009DA: 63 74              STAW    VV:74
000009DC: 65 72 20           NEIW    VV:72,$20
000009DF: 50                 EXH     
000009E0: 69 74              MVI     A,$74
000009E2: 63 68              STAW    VV:68
000009E4: 00                 NOP     
000009E5: 31                 BLOCK   
000009E6: 32                 INX     HL
000009E7: 20 43              INRW    VV:43
000009E9: 50                 EXH     
000009EA: 49 00              MVIX    BC,$00
000009EC: 31                 BLOCK   
000009ED: 30 20              DCRW    VV:20
000009EF: 43                 INR     C
000009F0: 50                 EXH     
000009F1: 49 00              MVIX    BC,$00
000009F3: 01 31              LDAW    VV:31
000009F5: 2D                 LDAX    (HL+)
000009F6: 31                 BLOCK   
000009F7: 00                 NOP     
000009F8: 02                 INX     SP
000009F9: 53                 DCR     C
000009FA: 68 61              MVI     V,$61
000009FC: 70 65              illegal 
000009FE: 20 6F              INRW    VV:6F
00000A00: 66 20              SUI     A,$20
00000A02: 5A 65              BIT     2,VV:65
00000A04: 72                 SOFTI   
00000A05: 6F 00              MVI     L,$00
00000A07: 30 20              DCRW    VV:20
00000A09: 28                 illegal 
00000A0A: 53                 DCR     C
00000A0B: 6C 61              MVI     D,$61
00000A0D: 73                 illegal 
00000A0E: 68 65              MVI     V,$65
00000A10: 64 29 00           GTI     PB,$00
00000A13: 30 20              DCRW    VV:20
00000A15: 28                 illegal 
00000A16: 55 6E 73           OFFIW   VV:6E,$73
00000A19: 6C 61              MVI     D,$61
00000A1B: 73                 illegal 
00000A1C: 68 65              MVI     V,$65
00000A1E: 64 29 00           GTI     PB,$00
00000A21: 01 31              LDAW    VV:31
00000A23: 2D                 LDAX    (HL+)
00000A24: 32                 INX     HL
00000A25: 00                 NOP     
00000A26: 02                 INX     SP
00000A27: 50                 EXH     
00000A28: 61                 DAA     
00000A29: 67 65              NEI     A,$65
00000A2B: 20 4C              INRW    VV:4C
00000A2D: 65 6E 67           NEIW    VV:6E,$67
00000A30: 74 68 00           NEI     V,$00
00000A33: 37 30              LTI     A,$30
00000A35: 2F                 LDAX    (HL-)
00000A36: 36 20              SUINB   A,$20
00000A38: 69 6E              MVI     A,$6E
00000A3A: 63 68              STAW    VV:68
00000A3C: 00                 NOP     
00000A3D: 38                 illegal 
00000A3E: 2E                 LDAX    (DE-)
00000A3F: 35 20 69           LTIW    VV:20,$69
00000A42: 6E 63              MVI     H,$63
00000A44: 68 00              MVI     V,$00
00000A46: 31                 BLOCK   
00000A47: 32                 INX     HL
00000A48: 20 69              INRW    VV:69
00000A4A: 6E 63              MVI     H,$63
00000A4C: 68 00              MVI     V,$00
00000A4E: 31                 BLOCK   
00000A4F: 31                 BLOCK   
00000A50: 20 69              INRW    VV:69
00000A52: 6E 63              MVI     H,$63
00000A54: 68 00              MVI     V,$00
00000A56: 01 31              LDAW    VV:31
00000A58: 2D                 LDAX    (HL+)
00000A59: 33                 DCX     HL
00000A5A: 00                 NOP     
00000A5B: 31                 BLOCK   
00000A5C: 2D                 LDAX    (HL+)
00000A5D: 34 00 02           LXI     HL,$0200
00000A60: 50                 EXH     
00000A61: 43                 INR     C
00000A62: 20 54              INRW    VV:54
00000A64: 61                 DAA     
00000A65: 62                 RETI    
00000A66: 6C 65              MVI     D,$65
00000A68: 00                 NOP     
00000A69: 55 6E 69           OFFIW   VV:6E,$69
00000A6C: 74 65 64           SUI     E,$64
00000A6F: 20 53              INRW    VV:53
00000A71: 74 61 74           SUI     A,$74
00000A74: 65 73 00           NEIW    VV:73,$00
00000A77: 4D 75              illegal 
00000A79: 6C 74              MVI     D,$74
00000A7B: 69 6C              MVI     A,$6C
00000A7D: 69 6E              MVI     A,$6E
00000A7F: 67 75              NEI     A,$75
00000A81: 61                 DAA     
00000A82: 6C 00              MVI     D,$00
00000A84: 50                 EXH     
00000A85: 6F 72              MVI     L,$72
00000A87: 74 75 67           SBI     E,$67
00000A8A: 61                 DAA     
00000A8B: 6C 00              MVI     D,$00
00000A8D: 43                 INR     C
00000A8E: 61                 DAA     
00000A8F: 6E 61              MVI     H,$61
00000A91: 64 61 2D           SUI     PB,$2D
00000A94: 46 72              ADI     A,$72
00000A96: 65 6E 63           NEIW    VV:6E,$63
00000A99: 68 00              MVI     V,$00
00000A9B: 4E 6F              JRE     $0B0C
00000A9D: 72                 SOFTI   
00000A9E: 77 61              EQI     A,$61
00000AA0: 79 00              CALF    $0900
00000AA2: 55 6E 69           OFFIW   VV:6E,$69
00000AA5: 74 65 64           SUI     E,$64
00000AA8: 20 53              INRW    VV:53
00000AAA: 74 61 74           SUI     A,$74
00000AAD: 65 73 00           NEIW    VV:73,$00
00000AB0: 55 6E 69           OFFIW   VV:6E,$69
00000AB3: 74 65 64           SUI     E,$64
00000AB6: 20 53              INRW    VV:53
00000AB8: 74 61 74           SUI     A,$74
00000ABB: 65 73 00           NEIW    VV:73,$00
00000ABE: 55 6E 69           OFFIW   VV:6E,$69
00000AC1: 74 65 64           SUI     E,$64
00000AC4: 20 53              INRW    VV:53
00000AC6: 74 61 74           SUI     A,$74
00000AC9: 65 73 00           NEIW    VV:73,$00
00000ACC: 01 31              LDAW    VV:31
00000ACE: 2D                 LDAX    (HL+)
00000ACF: 35 00 31           LTIW    VV:00,$31
00000AD2: 2D                 LDAX    (HL+)
00000AD3: 36 00              SUINB   A,$00
00000AD5: 31                 BLOCK   
00000AD6: 2D                 LDAX    (HL+)
00000AD7: 37 00              LTI     A,$00
00000AD9: 31                 BLOCK   
00000ADA: 2D                 LDAX    (HL+)
00000ADB: 38                 illegal 
00000ADC: 00                 NOP     
00000ADD: 02                 INX     SP
00000ADE: 43                 INR     C
00000ADF: 68 61              MVI     V,$61
00000AE1: 72                 SOFTI   
00000AE2: 61                 DAA     
00000AE3: 63 74              STAW    VV:74
00000AE5: 65 72 20           NEIW    VV:72,$20
00000AE8: 54 61 62           JMP     $6261
00000AEB: 6C 65              MVI     D,$65
00000AED: 00                 NOP     
00000AEE: 47 72              ONI     A,$72
00000AF0: 61                 DAA     
00000AF1: 70 68 69 63        MOV     V,($6369)
00000AF5: 73                 illegal 
00000AF6: 00                 NOP     
00000AF7: C9                 JR      $0B01
00000AF8: F4                 JR      $0AED
00000AF9: E1                 JR      $0ADB
00000AFA: EC                 JR      $0AE7
00000AFB: E9                 JR      $0AE5
00000AFC: E3                 JR      $0AE0
00000AFD: F3                 JR      $0AF1
00000AFE: 00                 NOP     
00000AFF: 01 31              LDAW    VV:31
00000B01: 2D                 LDAX    (HL+)
00000B02: 35 00 02           LTIW    VV:00,$02
00000B05: 43                 INR     C
00000B06: 6F 75              MVI     L,$75
00000B08: 6E 74              MVI     H,$74
00000B0A: 72                 SOFTI   
00000B0B: 79 00              CALF    $0900
00000B0D: 55 2E 53           OFFIW   VV:2E,$53
00000B10: 2E                 LDAX    (DE-)
00000B11: 41                 INR     A
00000B12: 2E                 LDAX    (DE-)
00000B13: 00                 NOP     
00000B14: 46 72              ADI     A,$72
00000B16: 61                 DAA     
00000B17: 6E 63              MVI     H,$63
00000B19: 65 00 47           NEIW    VV:00,$47
00000B1C: 65 72 6D           NEIW    VV:72,$6D
00000B1F: 61                 DAA     
00000B20: 6E 79              MVI     H,$79
00000B22: 00                 NOP     
00000B23: 55 2E 4B           OFFIW   VV:2E,$4B
00000B26: 2E                 LDAX    (DE-)
00000B27: 00                 NOP     
00000B28: 44 65 6E           LXI     EA,$6E65
00000B2B: 6D 61              MVI     E,$61
00000B2D: 72                 SOFTI   
00000B2E: 6B 00              MVI     C,$00
00000B30: 53                 DCR     C
00000B31: 77 65              EQI     A,$65
00000B33: 64 65 6E           SUI     PF,$6E
00000B36: 00                 NOP     
00000B37: 49 74              MVIX    BC,$74
00000B39: 61                 DAA     
00000B3A: 6C 79              MVI     D,$79
00000B3C: 00                 NOP     
00000B3D: 53                 DCR     C
00000B3E: 70 61              ESUB    EA,A
00000B40: 69 6E              MVI     A,$6E
00000B42: 00                 NOP     
00000B43: 01 31              LDAW    VV:31
00000B45: 2D                 LDAX    (HL+)
00000B46: 36 00              SUINB   A,$00
00000B48: 31                 BLOCK   
00000B49: 2D                 LDAX    (HL+)
00000B4A: 37 00              LTI     A,$00
00000B4C: 31                 BLOCK   
00000B4D: 2D                 LDAX    (HL+)
00000B4E: 38                 illegal 
00000B4F: 00                 NOP     
00000B50: 02                 INX     SP
00000B51: 53                 DCR     C
00000B52: 68 6F              MVI     V,$6F
00000B54: 72                 SOFTI   
00000B55: 74 20 54           ADINC   V,$54
00000B58: 65 61 72           NEIW    VV:61,$72
00000B5B: 2D                 LDAX    (HL+)
00000B5C: 6F 66              MVI     L,$66
00000B5E: 66 00              SUI     A,$00
00000B60: 49 6E              MVIX    BC,$6E
00000B62: 76 61              SBI     A,$61
00000B64: 6C 69              MVI     D,$69
00000B66: 64 00 56           MVI     PA,$56
00000B69: 61                 DAA     
00000B6A: 6C 69              MVI     D,$69
00000B6C: 64 00 01           MVI     PA,$01
00000B6F: 32                 INX     HL
00000B70: 2D                 LDAX    (HL+)
00000B71: 31                 BLOCK   
00000B72: 00                 NOP     
00000B73: 02                 INX     SP
00000B74: 43                 INR     C
00000B75: 53                 DCR     C
00000B76: 46 20              ADI     A,$20
00000B78: 4D 6F              illegal 
00000B7A: 64 65 00           SUI     PF,$00
00000B7D: 56 61              ACI     A,$61
00000B7F: 6C 69              MVI     D,$69
00000B81: 64 00 49           MVI     PA,$49
00000B84: 6E 76              MVI     H,$76
00000B86: 61                 DAA     
00000B87: 6C 69              MVI     D,$69
00000B89: 64 00 01           MVI     PA,$01
00000B8C: 32                 INX     HL
00000B8D: 2D                 LDAX    (HL+)
00000B8E: 32                 INX     HL
00000B8F: 00                 NOP     
00000B90: 02                 INX     SP
00000B91: 53                 DCR     C
00000B92: 6B 69              MVI     C,$69
00000B94: 70 20              illegal 
00000B96: 50                 EXH     
00000B97: 65 72 66           NEIW    VV:72,$66
00000B9A: 6F 72              MVI     L,$72
00000B9C: 61                 DAA     
00000B9D: 74 69 6F           NEI     A,$6F
00000BA0: 6E 00              MVI     H,$00
00000BA2: 31                 BLOCK   
00000BA3: 20 69              INRW    VV:69
00000BA5: 6E 63              MVI     H,$63
00000BA7: 68 00              MVI     V,$00
00000BA9: 4E 6F              JRE     $0C1A
00000BAB: 6E 65              MVI     H,$65
00000BAD: 00                 NOP     
00000BAE: 01 32              LDAW    VV:32
00000BB0: 2D                 LDAX    (HL+)
00000BB1: 33                 DCX     HL
00000BB2: 00                 NOP     
00000BB3: 02                 INX     SP
00000BB4: 41                 INR     A
00000BB5: 75 74 6F           EQIW    VV:74,$6F
00000BB8: 20 4C              INRW    VV:4C
00000BBA: 46 00              ADI     A,$00
00000BBC: 56 61              ACI     A,$61
00000BBE: 6C 69              MVI     D,$69
00000BC0: 64 00 44           MVI     PA,$44
00000BC3: 65 70 65           NEIW    VV:70,$65
00000BC6: 6E 64              MVI     H,$64
00000BC8: 20 6F              INRW    VV:6F
00000BCA: 6E 20              MVI     H,$20
00000BCC: 49 2F              MVIX    BC,$2F
00000BCE: 46 00              ADI     A,$00
00000BD0: 01 32              LDAW    VV:32
00000BD2: 2D                 LDAX    (HL+)
00000BD3: 34 00 02           LXI     HL,$0200
00000BD6: 44 72 61           LXI     EA,$6172
00000BD9: 66 74              SUI     A,$74
00000BDB: 20 50              INRW    VV:50
00000BDD: 72                 SOFTI   
00000BDE: 69 6E              MVI     A,$6E
00000BE0: 74 20 53           ADINC   V,$53
00000BE3: 70 65              illegal 
00000BE5: 65 64 00           NEIW    VV:64,$00
00000BE8: 4E 6F              JRE     $0C59
00000BEA: 72                 SOFTI   
00000BEB: 6D 61              MVI     E,$61
00000BED: 6C 00              MVI     D,$00
00000BEF: 48 69              SKNIT   FSR
00000BF1: 67 68              NEI     A,$68
00000BF3: 00                 NOP     
00000BF4: 01 FF              LDAW    VV:FF
00000BF6: 02                 INX     SP
00000BF7: 64 9D E0           ORI     TMM,$E0
00000BFA: 48 42              SKIT    FT1
00000BFC: 00                 NOP     
00000BFD: 69 26              MVI     A,$26
00000BFF: 4D DB              MOV     TM1,A
00000C01: 34 0F 0C           LXI     HL,$0C0F
00000C04: 70 3E 18 98        SHLD    $9818
00000C08: 64 8D 3F           ANI     TMM,$3F
00000C0B: 64 0F FB           ANI     MKL,$FB
00000C0E: B8                 RET     
00000C0F: 40 16 0C           CALL    $0C16
00000C12: 11                 EXX     
00000C13: 10                 EXA     
00000C14: AA                 EI      
00000C15: 62                 RETI    
00000C16: 4C E1              MOV     A,CR1
00000C18: 55 41 02           OFFIW   VV:41,$02
00000C1B: C6                 JR      $0C22
00000C1C: 27 B8              GTI     A,$B8
00000C1E: 15 41 02           ORIW    VV:41,$02
00000C21: B8                 RET     
00000C22: 27 B8              GTI     A,$B8
00000C24: 4E 0E              JRE     $0C34
00000C26: 05 41 FD           ANIW    VV:41,$FD
00000C29: B8                 RET     
00000C2A: 74 78 98           EQI     V,$98
00000C2D: 54 00 00           JMP     $0000
00000C30: 55 41 01           OFFIW   VV:41,$01
00000C33: D2                 JR      $0C46
00000C34: 15 41 01           ORIW    VV:41,$01
00000C37: 40 48 0C           CALL    $0C48
00000C3A: 40 9A 0C           CALL    $0C9A
00000C3D: 69 C3              MVI     A,$C3
00000C3F: 70 79 04 C0        MOV     ($C004),A
00000C43: 54 00 00           JMP     $0000
00000C46: AA                 EI      
00000C47: 62                 RETI    
00000C48: 64 07 FF           MVI     MKL,$FF
00000C4B: 64 06 FF           MVI     MKH,$FF
00000C4E: 34 05 C0           LXI     HL,$C005
00000C51: 44 00 00           LXI     EA,$0000
00000C54: 48 95              STEAX   (HL++)
00000C56: 48 95              STEAX   (HL++)
00000C58: 64 83 99           MVI     EOM,$99
00000C5B: 05 0F 3F           ANIW    VV:0F,$3F
00000C5E: 05 01 CF           ANIW    VV:01,$CF
00000C61: 54 9C 0F           JMP     $0F9C
00000C64: 71 42 00           MVIW    VV:42,$00
00000C67: 40 6F 0D           CALL    $0D6F
00000C6A: 34 47 98           LXI     HL,$9847
00000C6D: 6A 00              MVI     B,$00
00000C6F: 6B 07              MVI     C,$07
00000C71: B1                 PUSH    BC
00000C72: 40 27 0D           CALL    $0D27
00000C75: 48 95              STEAX   (HL++)
00000C77: 14 FF FF           LXI     BC,$FFFF
00000C7A: 74 FD              DEQ     EA,BC
00000C7C: 40 67 0D           CALL    $0D67
00000C7F: 20 42              INRW    VV:42
00000C81: A1                 POP     BC
00000C82: 09                 MOV     A,EAL
00000C83: 60 42              ADD     B,A
00000C85: 08                 MOV     A,EAH
00000C86: 60 42              ADD     B,A
00000C88: 53                 DCR     C
00000C89: E7                 JR      $0C71
00000C8A: 74 6A 1D           NEI     B,$1D
00000C8D: C8                 JR      $0C96
00000C8E: 25 42 08           GTIW    VV:42,$08
00000C91: 4F D4              JRE     $0C67
00000C93: 40 D3 0C           CALL    $0CD3
00000C96: 40 7A 0D           CALL    $0D7A
00000C99: B8                 RET     
00000C9A: 40 BF 0C           CALL    $0CBF
00000C9D: 40 6F 0D           CALL    $0D6F
00000CA0: 35 42 09           LTIW    VV:42,$09
00000CA3: 71 42 00           MVIW    VV:42,$00
00000CA6: 34 47 98           LXI     HL,$9847
00000CA9: 6B 07              MVI     C,$07
00000CAB: B1                 PUSH    BC
00000CAC: 48 85              LDEAX   (HL++)
00000CAE: 14 FF FF           LXI     BC,$FFFF
00000CB1: 74 FD              DEQ     EA,BC
00000CB3: 40 52 0D           CALL    $0D52
00000CB6: 20 42              INRW    VV:42
00000CB8: A1                 POP     BC
00000CB9: 53                 DCR     C
00000CBA: F0                 JR      $0CAB
00000CBB: 40 7A 0D           CALL    $0D7A
00000CBE: B8                 RET     
00000CBF: 69 00              MVI     A,$00
00000CC1: 34 47 98           LXI     HL,$9847
00000CC4: 6A 0E              MVI     B,$0E
00000CC6: 70 C5              ADDX    (HL+)
00000CC8: 52                 DCR     B
00000CC9: FC                 JR      $0CC6
00000CCA: 6A 1D              MVI     B,$1D
00000CCC: 60 62              SUB     B,A
00000CCE: 70 7A 56 98        MOV     ($9856),B
00000CD2: B8                 RET     
00000CD3: 40 54 10           CALL    $1054
00000CD6: 40 6F 0D           CALL    $0D6F
00000CD9: 40 6B 0D           CALL    $0D6B
00000CDC: 40 7A 0D           CALL    $0D7A
00000CDF: 34 18 0D           LXI     HL,$0D18
00000CE2: 24 47 98           LXI     DE,$9847
00000CE5: 6B 0E              MVI     C,$0E
00000CE7: 31                 BLOCK   
00000CE8: B8                 RET     
00000CE9: 40 54 10           CALL    $1054
00000CEC: 40 6F 0D           CALL    $0D6F
00000CEF: 40 6B 0D           CALL    $0D6B
00000CF2: 40 7A 0D           CALL    $0D7A
00000CF5: 34 50 98           LXI     HL,$9850
00000CF8: 2D                 LDAX    (HL+)
00000CF9: B0                 PUSH    VA
00000CFA: 2D                 LDAX    (HL+)
00000CFB: B0                 PUSH    VA
00000CFC: 2D                 LDAX    (HL+)
00000CFD: B0                 PUSH    VA
00000CFE: 2D                 LDAX    (HL+)
00000CFF: B0                 PUSH    VA
00000D00: 2B                 LDAX    (HL)
00000D01: B0                 PUSH    VA
00000D02: B3                 PUSH    HL
00000D03: 34 18 0D           LXI     HL,$0D18
00000D06: 24 47 98           LXI     DE,$9847
00000D09: 6B 0E              MVI     C,$0E
00000D0B: 31                 BLOCK   
00000D0C: A3                 POP     HL
00000D0D: A0                 POP     VA
00000D0E: 3F                 STAX    (HL-)
00000D0F: A0                 POP     VA
00000D10: 3F                 STAX    (HL-)
00000D11: A0                 POP     VA
00000D12: 3F                 STAX    (HL-)
00000D13: A0                 POP     VA
00000D14: 3F                 STAX    (HL-)
00000D15: A0                 POP     VA
00000D16: 3B                 STAX    (HL)
00000D17: B8                 RET     
00000D18: 00                 NOP     
00000D19: 00                 NOP     
00000D1A: 00                 NOP     
00000D1B: 00                 NOP     
00000D1C: 00                 NOP     
00000D1D: 00                 NOP     
00000D1E: 90                 CALT    ($00A0)
00000D1F: 12                 INX     BC
00000D20: 00                 NOP     
00000D21: 2D                 LDAX    (HL+)
00000D22: 1F                 MOV     L,A
00000D23: 39                 STAX    (BC)
00000D24: 37 23              LTI     A,$23
00000D26: 00                 NOP     
00000D27: 40 87 0D           CALL    $0D87
00000D2A: 64 09 FD           ANI     PB,$FD
00000D2D: 64 1A 10           ORI     PC,$10
00000D30: 64 0A EF           ANI     PC,$EF
00000D33: 44 00 00           LXI     EA,$0000
00000D36: 6B 0F              MVI     C,$0F
00000D38: 48 2A              CLC     
00000D3A: 64 59 01           OFFI    PB,$01
00000D3D: 48 2B              STC     
00000D3F: 48 B4              DRLL    EA
00000D41: 64 1A 10           ORI     PC,$10
00000D44: 64 0A EF           ANI     PC,$EF
00000D47: 53                 DCR     C
00000D48: EF                 JR      $0D38
00000D49: 64 0A DF           ANI     PC,$DF
00000D4C: 00                 NOP     
00000D4D: 00                 NOP     
00000D4E: 00                 NOP     
00000D4F: 00                 NOP     
00000D50: 00                 NOP     
00000D51: B8                 RET     
00000D52: 40 85 0D           CALL    $0D85
00000D55: 08                 MOV     A,EAH
00000D56: 40 A3 0D           CALL    $0DA3
00000D59: 09                 MOV     A,EAL
00000D5A: 40 A3 0D           CALL    $0DA3
00000D5D: 64 09 FD           ANI     PB,$FD
00000D60: 64 0A DF           ANI     PC,$DF
00000D63: 6B 0A              MVI     C,$0A
00000D65: 80                 CALT    ($0080)
00000D66: B8                 RET     
00000D67: 40 89 0D           CALL    $0D89
00000D6A: F2                 JR      $0D5D
00000D6B: 40 80 0D           CALL    $0D80
00000D6E: EE                 JR      $0D5D
00000D6F: 40 82 0D           CALL    $0D82
00000D72: 64 09 FD           ANI     PB,$FD
00000D75: 64 0A DF           ANI     PC,$DF
00000D78: 4F D2              JRE     $0D4C
00000D7A: 40 7E 0D           CALL    $0D7E
00000D7D: F4                 JR      $0D72
00000D7E: 69 00              MVI     A,$00
00000D80: 69 20              MVI     A,$20
00000D82: 69 30              MVI     A,$30
00000D84: C9                 JR      $0D8E
00000D85: 69 40              MVI     A,$40
00000D87: 69 80              MVI     A,$80
00000D89: 69 C0              MVI     A,$C0
00000D8B: 74 98 42           ORAW    VV:42
00000D8E: 64 09 FD           ANI     PB,$FD
00000D91: 64 1A 20           ORI     PC,$20
00000D94: 64 1A 10           ORI     PC,$10
00000D97: 64 0A EF           ANI     PC,$EF
00000D9A: 64 19 02           ORI     PB,$02
00000D9D: 64 1A 10           ORI     PC,$10
00000DA0: 64 0A EF           ANI     PC,$EF
00000DA3: 6A 80              MVI     B,$80
00000DA5: 64 09 FD           ANI     PB,$FD
00000DA8: 60 DA              OFFA    A,B
00000DAA: 64 19 02           ORI     PB,$02
00000DAD: 64 1A 10           ORI     PC,$10
00000DB0: 64 0A EF           ANI     PC,$EF
00000DB3: 48 22              SLR     B
00000DB5: 48 0A              SK      CY
00000DB7: ED                 JR      $0DA5
00000DB8: B8                 RET     
00000DB9: 40 E5 32           CALL    $32E5
00000DBC: B8                 RET     
00000DBD: 40 47 2D           CALL    $2D47
00000DC0: 40 E5 32           CALL    $32E5
00000DC3: B8                 RET     
00000DC4: 40 AD 09           CALL    $09AD
00000DC7: 34 0E 0E           LXI     HL,$0E0E
00000DCA: 40 F4 08           CALL    $08F4
00000DCD: 40 AD 09           CALL    $09AD
00000DD0: 40 34 0E           CALL    $0E34
00000DD3: 44 90 12           LXI     EA,$1290
00000DD6: 70 3F 77 9A        LHLD    $9A77
00000DDA: 74 E7              DSUB    EA,HL
00000DDC: 34 42 01           LXI     HL,$0142
00000DDF: 74 C7              DADD    EA,HL
00000DE1: 34 4D 98           LXI     HL,$984D
00000DE4: 48 93              STEAX   (HL)
00000DE6: 01 2C              LDAW    VV:2C
00000DE8: 48 3D              DIV     A
00000DEA: 77 00              EQI     A,$00
00000DEC: A8                 INX     EA
00000DED: 40 75 0E           CALL    $0E75
00000DF0: 34 26 0E           LXI     HL,$0E26
00000DF3: 24 00 FF           LXI     DE,$FF00
00000DF6: 40 BF 09           CALL    $09BF
00000DF9: 0A                 MOV     A,B
00000DFA: 40 45 0E           CALL    $0E45
00000DFD: 0B                 MOV     A,C
00000DFE: 40 51 0E           CALL    $0E51
00000E01: 69 2E              MVI     A,$2E
00000E03: 3A                 STAX    (DE)
00000E04: 34 00 FF           LXI     HL,$FF00
00000E07: 40 F4 08           CALL    $08F4
00000E0A: 40 7D 2D           CALL    $2D7D
00000E0D: B8                 RET     
00000E0E: 54 68 69           JMP     $6968
00000E11: 73                 illegal 
00000E12: 20 69              INRW    VV:69
00000E14: 73                 illegal 
00000E15: 20 74              INRW    VV:74
00000E17: 68 65              MVI     V,$65
00000E19: 20 66              INRW    VV:66
00000E1B: 69 72              MVI     A,$72
00000E1D: 73                 illegal 
00000E1E: 74 20 6C           ADINC   V,$6C
00000E21: 69 6E              MVI     A,$6E
00000E23: 65 2E 00           NEIW    VV:2E,$00
00000E26: 54 68 69           JMP     $6968
00000E29: 73                 illegal 
00000E2A: 20 69              INRW    VV:69
00000E2C: 73                 illegal 
00000E2D: 20 6C              INRW    VV:6C
00000E2F: 69 6E              MVI     A,$6E
00000E31: 65 20 00           NEIW    VV:20,$00
00000E34: 14 90 12           LXI     BC,$1290
00000E37: 91                 CALT    ($00A2)
00000E38: 14 1E 01           LXI     BC,$011E
00000E3B: 40 AE 2E           CALL    $2EAE
00000E3E: 54 AE 2D           JMP     $2DAE
00000E41: 05 13 DF           ANIW    VV:13,$DF
00000E44: B8                 RET     
00000E45: 40 59 0E           CALL    $0E59
00000E48: 09                 MOV     A,EAL
00000E49: 77 30              EQI     A,$30
00000E4B: 3C                 STAX    (DE+)
00000E4C: 08                 MOV     A,EAH
00000E4D: 77 30              EQI     A,$30
00000E4F: 3C                 STAX    (DE+)
00000E50: B8                 RET     
00000E51: 40 59 0E           CALL    $0E59
00000E54: 09                 MOV     A,EAL
00000E55: 3C                 STAX    (DE+)
00000E56: 08                 MOV     A,EAH
00000E57: 3C                 STAX    (DE+)
00000E58: B8                 RET     
00000E59: 18                 MOV     EAH,A
00000E5A: 48 21              SLR     A
00000E5C: 48 21              SLR     A
00000E5E: 48 21              SLR     A
00000E60: 48 21              SLR     A
00000E62: 40 6E 0E           CALL    $0E6E
00000E65: 19                 MOV     EAL,A
00000E66: 08                 MOV     A,EAH
00000E67: 07 0F              ANI     A,$0F
00000E69: 40 6E 0E           CALL    $0E6E
00000E6C: 18                 MOV     EAH,A
00000E6D: B8                 RET     
00000E6E: 37 0A              LTI     A,$0A
00000E70: 46 07              ADI     A,$07
00000E72: 46 30              ADI     A,$30
00000E74: B8                 RET     
00000E75: 24 00 00           LXI     DE,$0000
00000E78: 69 02              MVI     A,$02
00000E7A: 6A 0A              MVI     B,$0A
00000E7C: 48 3E              DIV     B
00000E7E: 77 02              EQI     A,$02
00000E80: C5                 JR      $0E86
00000E81: B0                 PUSH    VA
00000E82: 0A                 MOV     A,B
00000E83: 1D                 MOV     E,A
00000E84: A0                 POP     VA
00000E85: D6                 JR      $0E9C
00000E86: 77 01              EQI     A,$01
00000E88: CC                 JR      $0E95
00000E89: B0                 PUSH    VA
00000E8A: B4                 PUSH    EA
00000E8B: 69 10              MVI     A,$10
00000E8D: 48 2E              MUL     B
00000E8F: 74 C6              DADD    EA,DE
00000E91: B6                 DMOV    DE,EA
00000E92: A4                 POP     EA
00000E93: A0                 POP     VA
00000E94: C7                 JR      $0E9C
00000E95: 77 00              EQI     A,$00
00000E97: C4                 JR      $0E9C
00000E98: B0                 PUSH    VA
00000E99: 0A                 MOV     A,B
00000E9A: 1C                 MOV     D,A
00000E9B: A0                 POP     VA
00000E9C: 51                 DCR     A
00000E9D: 4F DB              JRE     $0E7A
00000E9F: A6                 DMOV    EA,DE
00000EA0: B5                 DMOV    BC,EA
00000EA1: B8                 RET     
00000EA2: 40 09 0F           CALL    $0F09
00000EA5: 40 4B 2E           CALL    $2E4B
00000EA8: 4E 18              JRE     $0EC2
00000EAA: 40 0A 2F           CALL    $2F0A
00000EAD: 54 2B 2C           JMP     $2C2B
00000EB0: 48 44              SKIT    F2
00000EB2: B8                 RET     
00000EB3: 5C 13              BIT     4,VV:13
00000EB5: C5                 JR      $0EBB
00000EB6: 40 EF 2F           CALL    $2FEF
00000EB9: 88                 CALT    ($0090)
00000EBA: B8                 RET     
00000EBB: 55 03 04           OFFIW   VV:03,$04
00000EBE: 40 12 04           CALL    $0412
00000EC1: 8B                 CALT    ($0096)
00000EC2: 40 E9 2F           CALL    $2FE9
00000EC5: 40 9C 0F           CALL    $0F9C
00000EC8: 40 08 2E           CALL    $2E08
00000ECB: 40 D0 31           CALL    $31D0
00000ECE: 88                 CALT    ($0090)
00000ECF: 40 37 2C           CALL    $2C37
00000ED2: 48 44              SKIT    F2
00000ED4: FA                 JR      $0ECF
00000ED5: 55 13 20           OFFIW   VV:13,$20
00000ED8: CC                 JR      $0EE5
00000ED9: 40 08 2E           CALL    $2E08
00000EDC: D6                 JR      $0EF3
00000EDD: 40 EC 32           CALL    $32EC
00000EE0: 90                 CALT    ($00A0)
00000EE1: C3                 JR      $0EE5
00000EE2: 5E 13              BIT     6,VV:13
00000EE4: CE                 JR      $0EF3
00000EE5: 40 C0 2C           CALL    $2CC0
00000EE8: 55 13 60           OFFIW   VV:13,$60
00000EEB: E2                 JR      $0ECE
00000EEC: 40 E5 32           CALL    $32E5
00000EEF: 90                 CALT    ($00A0)
00000EF0: C2                 JR      $0EF3
00000EF1: 4F DB              JRE     $0ECE
00000EF3: 05 13 BB           ANIW    VV:13,$BB
00000EF6: 40 70 0F           CALL    $0F70
00000EF9: 40 0A 2F           CALL    $2F0A
00000EFC: 54 2B 2C           JMP     $2C2B
00000EFF: 88                 CALT    ($0090)
00000F00: B8                 RET     
00000F01: 40 13 10           CALL    $1013
00000F04: FC                 JR      $0F01
00000F05: 48 44              SKIT    F2
00000F07: 00                 NOP     
00000F08: B8                 RET     
00000F09: 55 13 10           OFFIW   VV:13,$10
00000F0C: B8                 RET     
00000F0D: 87                 CALT    ($008E)
00000F0E: 4E 23              JRE     $0F33
00000F10: 55 0B 02           OFFIW   VV:0B,$02
00000F13: 55 0A 01           OFFIW   VV:0A,$01
00000F16: CB                 JR      $0F22
00000F17: 40 51 10           CALL    $1051
00000F1A: 15 4F 02           ORIW    VV:4F,$02
00000F1D: 40 C9 15           CALL    $15C9
00000F20: 4E 35              JRE     $0F57
00000F22: 40 54 10           CALL    $1054
00000F25: 05 4F FD           ANIW    VV:4F,$FD
00000F28: 40 CD 15           CALL    $15CD
00000F2B: 15 4F 01           ORIW    VV:4F,$01
00000F2E: 40 2B 15           CALL    $152B
00000F31: 4E 24              JRE     $0F57
00000F33: 40 E4 0F           CALL    $0FE4
00000F36: C8                 JR      $0F3F
00000F37: 81                 CALT    ($0082)
00000F38: 05 4F FE           ANIW    VV:4F,$FE
00000F3B: 40 2F 15           CALL    $152F
00000F3E: D8                 JR      $0F57
00000F3F: 40 F2 0F           CALL    $0FF2
00000F42: D7                 JR      $0F5A
00000F43: 5A 0B              BIT     2,VV:0B
00000F45: CA                 JR      $0F50
00000F46: 40 54 10           CALL    $1054
00000F49: 05 4F FB           ANIW    VV:4F,$FB
00000F4C: 40 FC 14           CALL    $14FC
00000F4F: C7                 JR      $0F57
00000F50: 81                 CALT    ($0082)
00000F51: 15 4F 04           ORIW    VV:4F,$04
00000F54: 40 F8 14           CALL    $14F8
00000F57: 40 26 10           CALL    $1026
00000F5A: B8                 RET     
00000F5B: 90                 CALT    ($00A0)
00000F5C: D3                 JR      $0F70
00000F5D: 40 EC 32           CALL    $32EC
00000F60: 40 7D 2D           CALL    $2D7D
00000F63: 40 E5 32           CALL    $32E5
00000F66: 55 01 04           OFFIW   VV:01,$04
00000F69: C6                 JR      $0F70
00000F6A: 40 CF 32           CALL    $32CF
00000F6D: 54 C2 0E           JMP     $0EC2
00000F70: 15 14 40           ORIW    VV:14,$40
00000F73: 69 B3              MVI     A,$B3
00000F75: 8A                 CALT    ($0094)
00000F76: 55 03 02           OFFIW   VV:03,$02
00000F79: B8                 RET     
00000F7A: 69 10              MVI     A,$10
00000F7C: 89                 CALT    ($0092)
00000F7D: 5F 11              BIT     7,VV:11
00000F7F: CC                 JR      $0F8C
00000F80: 55 11 40           OFFIW   VV:11,$40
00000F83: B8                 RET     
00000F84: 64 0E FD           ANI     MKH,$FD
00000F87: 69 11              MVI     A,$11
00000F89: 4D D8              MOV     TXB,A
00000F8B: CD                 JR      $0F99
00000F8C: 34 02 C0           LXI     HL,$C002
00000F8F: 2B                 LDAX    (HL)
00000F90: 57 80              OFFI    A,$80
00000F92: B8                 RET     
00000F93: 69 20              MVI     A,$20
00000F95: 89                 CALT    ($0092)
00000F96: 69 DF              MVI     A,$DF
00000F98: 8A                 CALT    ($0094)
00000F99: 54 05 23           JMP     $2305
00000F9C: 8D                 CALT    ($009A)
00000F9D: 05 14 BF           ANIW    VV:14,$BF
00000FA0: 69 EF              MVI     A,$EF
00000FA2: 8A                 CALT    ($0094)
00000FA3: 55 11 40           OFFIW   VV:11,$40
00000FA6: CA                 JR      $0FB1
00000FA7: 69 13              MVI     A,$13
00000FA9: 4D D8              MOV     TXB,A
00000FAB: 40 0C 23           CALL    $230C
00000FAE: 6B 01              MVI     C,$01
00000FB0: 80                 CALT    ($0080)
00000FB1: 69 40              MVI     A,$40
00000FB3: 34 04 C0           LXI     HL,$C004
00000FB6: 70 CB              ONAX    (HL)
00000FB8: 69 04              MVI     A,$04
00000FBA: 69 0C              MVI     A,$0C
00000FBC: 54 A1 10           JMP     $10A1
00000FBF: 4C C0              MOV     A,PA
00000FC1: 1A                 MOV     B,A
00000FC2: 4C C0              MOV     A,PA
00000FC4: 60 FA              EQA     A,B
00000FC6: F8                 JR      $0FBF
00000FC7: B8                 RET     
00000FC8: 40 BF 0F           CALL    $0FBF
00000FCB: B1                 PUSH    BC
00000FCC: 6B 0A              MVI     C,$0A
00000FCE: 80                 CALT    ($0080)
00000FCF: 40 BF 0F           CALL    $0FBF
00000FD2: A1                 POP     BC
00000FD3: 60 FA              EQA     A,B
00000FD5: F2                 JR      $0FC8
00000FD6: B8                 RET     
00000FD7: 4C C2              MOV     A,PC
00000FD9: 07 3C              ANI     A,$3C
00000FDB: 1A                 MOV     B,A
00000FDC: 4C C2              MOV     A,PC
00000FDE: 07 3C              ANI     A,$3C
00000FE0: 60 FA              EQA     A,B
00000FE2: F4                 JR      $0FD7
00000FE3: B8                 RET     
00000FE4: 40 BF 0F           CALL    $0FBF
00000FE7: 47 40              ONI     A,$40
00000FE9: B9                 RETS    
00000FEA: B8                 RET     
00000FEB: 40 BF 0F           CALL    $0FBF
00000FEE: 47 80              ONI     A,$80
00000FF0: B9                 RETS    
00000FF1: B8                 RET     
00000FF2: 4C E2              MOV     A,CR2
00000FF4: 57 80              OFFI    A,$80
00000FF6: B8                 RET     
00000FF7: 48 48              SKIT    FAD
00000FF9: 00                 NOP     
00000FFA: 48 48              SKIT    FAD
00000FFC: FD                 JR      $0FFA
00000FFD: 4C E2              MOV     A,CR2
00000FFF: 57 80              OFFI    A,$80
00001001: B8                 RET     
00001002: B9                 RETS    
00001003: 40 D7 0F           CALL    $0FD7
00001006: 47 08              ONI     A,$08
00001008: B9                 RETS    
00001009: B8                 RET     
0000100A: 34 EB 0F           LXI     HL,$0FEB
0000100D: 34 E4 0F           LXI     HL,$0FE4
00001010: 34 F2 0F           LXI     HL,$0FF2
00001013: 34 03 10           LXI     HL,$1003
00001016: A7                 DMOV    EA,HL
00001017: B5                 DMOV    BC,EA
00001018: B1                 PUSH    BC
00001019: 48 29              CALB    
0000101B: C2                 JR      $101E
0000101C: A1                 POP     BC
0000101D: B8                 RET     
0000101E: 6B 0A              MVI     C,$0A
00001020: 80                 CALT    ($0080)
00001021: A1                 POP     BC
00001022: 48 29              CALB    
00001024: B9                 RETS    
00001025: B8                 RET     
00001026: 40 0A 10           CALL    $100A
00001029: FC                 JR      $1026
0000102A: 40 0D 10           CALL    $100D
0000102D: F8                 JR      $1026
0000102E: 40 10 10           CALL    $1010
00001031: F4                 JR      $1026
00001032: B8                 RET     
00001033: 69 00              MVI     A,$00
00001035: 4D CC              MOV     ETMM,A
00001037: 64 83 B0           MVI     EOM,$B0
0000103A: 44 8C 00           LXI     EA,$008C
0000103D: 48 D3              DMOV    ETM1,EA
0000103F: 69 0C              MVI     A,$0C
00001041: 4D CC              MOV     ETMM,A
00001043: FF                 JR      $1043
00001044: 34 01 03           LXI     HL,$0301
00001047: 34 00 04           LXI     HL,$0400
0000104A: 34 02 01           LXI     HL,$0102
0000104D: CF                 JR      $105D
0000104E: 34 03 04           LXI     HL,$0403
00001051: 34 02 00           LXI     HL,$0002
00001054: 34 01 00           LXI     HL,$0001
00001057: 34 00 00           LXI     HL,$0000
0000105A: 15 10 04           ORIW    VV:10,$04
0000105D: B3                 PUSH    HL
0000105E: 40 B1 7B           CALL    $7BB1
00001061: A3                 POP     HL
00001062: A7                 DMOV    EA,HL
00001063: B5                 DMOV    BC,EA
00001064: B1                 PUSH    BC
00001065: B1                 PUSH    BC
00001066: 40 84 10           CALL    $1084
00001069: 6B 1E              MVI     C,$1E
0000106B: 5A 10              BIT     2,VV:10
0000106D: 6B 64              MVI     C,$64
0000106F: 80                 CALT    ($0080)
00001070: A1                 POP     BC
00001071: 53                 DCR     C
00001072: F2                 JR      $1065
00001073: A1                 POP     BC
00001074: 52                 DCR     B
00001075: C4                 JR      $107A
00001076: 05 10 FB           ANIW    VV:10,$FB
00001079: B8                 RET     
0000107A: B1                 PUSH    BC
0000107B: 6B 64              MVI     C,$64
0000107D: 5A 10              BIT     2,VV:10
0000107F: 6B C8              MVI     C,$C8
00001081: 80                 CALT    ($0080)
00001082: A1                 POP     BC
00001083: E0                 JR      $1064
00001084: 69 00              MVI     A,$00
00001086: 4D CC              MOV     ETMM,A
00001088: 64 83 B0           MVI     EOM,$B0
0000108B: 44 8C 00           LXI     EA,$008C
0000108E: 48 D3              DMOV    ETM1,EA
00001090: 69 0C              MVI     A,$0C
00001092: 4D CC              MOV     ETMM,A
00001094: 6B 3C              MVI     C,$3C
00001096: 80                 CALT    ($0080)
00001097: 64 83 99           MVI     EOM,$99
0000109A: B8                 RET     
0000109B: 34 04 C0           LXI     HL,$C004
0000109E: 70 8B              ANAX    (HL)
000010A0: C5                 JR      $10A6
000010A1: 34 04 C0           LXI     HL,$C004
000010A4: 70 9B              ORAX    (HL)
000010A6: 3B                 STAX    (HL)
000010A7: B8                 RET     
000010A8: 34 30 98           LXI     HL,$9830
000010AB: 69 03              MVI     A,$03
000010AD: 3F                 STAX    (HL-)
000010AE: 51                 DCR     A
000010AF: FD                 JR      $10AD
000010B0: B8                 RET     
000010B1: 8E                 CALT    ($009C)
000010B2: 34 CD 10           LXI     HL,$10CD
000010B5: 6A 03              MVI     B,$03
000010B7: 70 EF              NEAX    (HL-)
000010B9: C4                 JR      $10BE
000010BA: 52                 DCR     B
000010BB: FB                 JR      $10B7
000010BC: 8E                 CALT    ($009C)
000010BD: B8                 RET     
000010BE: B1                 PUSH    BC
000010BF: 8E                 CALT    ($009C)
000010C0: A1                 POP     BC
000010C1: 07 0F              ANI     A,$0F
000010C3: 34 2D 98           LXI     HL,$982D
000010C6: 27 06              GTI     A,$06
000010C8: BD                 STAX    (HL+B)
000010C9: B8                 RET     
000010CA: 4B 4C              MVIX    HL,$4C
000010CC: 59 5A              BIT     1,VV:5A
000010CE: 01 2D              LDAW    VV:2D
000010D0: DD                 JR      $10EE
000010D1: 01 2E              LDAW    VV:2E
000010D3: DA                 JR      $10EE
000010D4: 01 2F              LDAW    VV:2F
000010D6: D7                 JR      $10EE
000010D7: 01 30              LDAW    VV:30
000010D9: D4                 JR      $10EE
000010DA: 8E                 CALT    ($009C)
000010DB: 07 0F              ANI     A,$0F
000010DD: 37 08              LTI     A,$08
000010DF: B8                 RET     
000010E0: 67 07              NEI     A,$07
000010E2: C9                 JR      $10EC
000010E3: CA                 JR      $10EE
000010E4: 8E                 CALT    ($009C)
000010E5: 07 0F              ANI     A,$0F
000010E7: 15 12 08           ORIW    VV:12,$08
000010EA: 37 02              LTI     A,$02
000010EC: 4E A2              JRE     $1190
000010EE: 77 02              EQI     A,$02
000010F0: 67 03              NEI     A,$03
000010F2: 15 12 04           ORIW    VV:12,$04
000010F5: 67 05              NEI     A,$05
000010F7: 15 12 60           ORIW    VV:12,$60
000010FA: 67 06              NEI     A,$06
000010FC: 15 12 20           ORIW    VV:12,$20
000010FF: 48 25              SLL     A
00001101: 48 25              SLL     A
00001103: 34 09 13           LXI     HL,$1309
00001106: 24 21 98           LXI     DE,$9821
00001109: 48 8C              LDEAX   (HL+A)
0000110B: 48 94              STEAX   (DE++)
0000110D: 46 02              ADI     A,$02
0000110F: 48 8C              LDEAX   (HL+A)
00001111: 48 92              STEAX   (DE)
00001113: 40 83 12           CALL    $1283
00001116: 4E 74              JRE     $118C
00001118: 15 13 02           ORIW    VV:13,$02
0000111B: 40 FA 11           CALL    $11FA
0000111E: 86                 CALT    ($008C)
0000111F: 14 00 00           LXI     BC,$0000
00001122: 70 3F 3D 99        LHLD    $993D
00001126: A7                 DMOV    EA,HL
00001127: 70 3F 01 99        LHLD    $9901
0000112B: 74 E7              DSUB    EA,HL
0000112D: 01 22              LDAW    VV:22
0000112F: 48 3D              DIV     A
00001131: B6                 DMOV    DE,EA
00001132: 34 41 99           LXI     HL,$9941
00001135: 48 83              LDEAX   (HL)
00001137: 74 AE              DGT     EA,DE
00001139: CA                 JR      $1144
0000113A: 15 12 10           ORIW    VV:12,$10
0000113D: 70 2E 41 99        SDED    $9941
00001141: 74 E6              DSUB    EA,DE
00001143: B5                 DMOV    BC,EA
00001144: 70 1E 3F 99        SBCD    $993F
00001148: 70 2F 41 99        LDED    $9941
0000114C: A6                 DMOV    EA,DE
0000114D: 01 22              LDAW    VV:22
0000114F: 84                 CALT    ($0088)
00001150: 34 3B 99           LXI     HL,$993B
00001153: 48 93              STEAX   (HL)
00001155: 70 3F 41 99        LHLD    $9941
00001159: A7                 DMOV    EA,HL
0000115A: 55 12 08           OFFIW   VV:12,$08
0000115D: 48 A4              DSLL    EA
0000115F: B7                 DMOV    HL,EA
00001160: 44 00 10           LXI     EA,$1000
00001163: 74 E7              DSUB    EA,HL
00001165: 70 3F 15 99        LHLD    $9915
00001169: 74 BF              DLT     EA,HL
0000116B: C4                 JR      $1170
0000116C: B4                 PUSH    EA
0000116D: 8D                 CALT    ($009A)
0000116E: A4                 POP     EA
0000116F: F5                 JR      $1165
00001170: 70 3F 01 99        LHLD    $9901
00001174: 70 3E 55 99        SHLD    $9955
00001178: 15 03 80           ORIW    VV:03,$80
0000117B: 15 05 02           ORIW    VV:05,$02
0000117E: 40 A6 11           CALL    $11A6
00001181: 05 05 FD           ANIW    VV:05,$FD
00001184: 34 3F 99           LXI     HL,$993F
00001187: 48 83              LDEAX   (HL)
00001189: 40 96 11           CALL    $1196
0000118C: 71 12 00           MVIW    VV:12,$00
0000118F: B8                 RET     
00001190: 40 83 12           CALL    $1283
00001193: 00                 NOP     
00001194: A7                 DMOV    EA,HL
00001195: F3                 JR      $1189
00001196: 55 12 08           OFFIW   VV:12,$08
00001199: 48 A4              DSLL    EA
0000119B: 34 00 00           LXI     HL,$0000
0000119E: 74 EF              DNE     EA,HL
000011A0: B8                 RET     
000011A1: B4                 PUSH    EA
000011A2: 8E                 CALT    ($009C)
000011A3: A4                 POP     EA
000011A4: A9                 DCX     EA
000011A5: F5                 JR      $119B
000011A6: 40 0B 12           CALL    $120B
000011A9: B8                 RET     
000011AA: 8B                 CALT    ($0096)
000011AB: 40 0C 1F           CALL    $1F0C
000011AE: 70 1F 3B 99        LBCD    $993B
000011B2: 34 01 99           LXI     HL,$9901
000011B5: 48 83              LDEAX   (HL)
000011B7: 74 C5              DADD    EA,BC
000011B9: 48 93              STEAX   (HL)
000011BB: 59 12              BIT     1,VV:12
000011BD: 4E 2F              JRE     $11EE
000011BF: 40 68 2B           CALL    $2B68
000011C2: 40 13 2C           CALL    $2C13
000011C5: 01 21              LDAW    VV:21
000011C7: 63 20              STAW    VV:20
000011C9: 01 22              LDAW    VV:22
000011CB: 63 25              STAW    VV:25
000011CD: 70 3F 23 98        LHLD    $9823
000011D1: 70 3E 23 99        SHLD    $9923
000011D5: 5A 12              BIT     2,VV:12
000011D7: 34 05 C0           LXI     HL,$C005
000011DA: 34 06 C0           LXI     HL,$C006
000011DD: 2B                 LDAX    (HL)
000011DE: 40 94 12           CALL    $1294
000011E1: 15 12 80           ORIW    VV:12,$80
000011E4: 05 00 FB           ANIW    VV:00,$FB
000011E7: 92                 CALT    ($00A4)
000011E8: 40 2D 1F           CALL    $1F2D
000011EB: 40 0C 1F           CALL    $1F0C
000011EE: 70 3F 3D 99        LHLD    $993D
000011F2: 5C 12              BIT     4,VV:12
000011F4: 70 3F 01 99        LHLD    $9901
000011F8: 85                 CALT    ($008A)
000011F9: B8                 RET     
000011FA: 70 3F 01 99        LHLD    $9901
000011FE: A7                 DMOV    EA,HL
000011FF: 01 22              LDAW    VV:22
00001201: 70 41              EADD    EA,A
00001203: 70 3F 3D 99        LHLD    $993D
00001207: 74 AF              DGT     EA,HL
00001209: B9                 RETS    
0000120A: B8                 RET     
0000120B: 15 12 02           ORIW    VV:12,$02
0000120E: 70 1F 41 99        LBCD    $9941
00001212: 70 2F 13 99        LDED    $9913
00001216: 2C                 LDAX    (DE+)
00001217: 8F                 CALT    ($009E)
00001218: 77 00              EQI     A,$00
0000121A: 4E 21              JRE     $123D
0000121C: 5B 12              BIT     3,VV:12
0000121E: C5                 JR      $1224
0000121F: 2C                 LDAX    (DE+)
00001220: 8F                 CALT    ($009E)
00001221: 57 80              OFFI    A,$80
00001223: D9                 JR      $123D
00001224: 13                 DCX     BC
00001225: 44 00 00           LXI     EA,$0000
00001228: 74 FD              DEQ     EA,BC
0000122A: EB                 JR      $1216
0000122B: 05 12 FD           ANIW    VV:12,$FD
0000122E: 55 12 10           OFFIW   VV:12,$10
00001231: CB                 JR      $123D
00001232: 70 2F 3B 99        LDED    $993B
00001236: 40 0B 19           CALL    $190B
00001239: D4                 JR      $124E
0000123A: 14 00 00           LXI     BC,$0000
0000123D: 70 3F 41 99        LHLD    $9941
00001241: A7                 DMOV    EA,HL
00001242: 74 E5              DSUB    EA,BC
00001244: B7                 DMOV    HL,EA
00001245: 70 3E 43 99        SHLD    $9943
00001249: 70 1E 41 99        SBCD    $9941
0000124D: B9                 RETS    
0000124E: 34 3F 99           LXI     HL,$993F
00001251: 48 83              LDEAX   (HL)
00001253: 70 1F 41 99        LBCD    $9941
00001257: 74 C5              DADD    EA,BC
00001259: 48 93              STEAX   (HL)
0000125B: B8                 RET     
0000125C: 70 2F 41 99        LDED    $9941
00001260: 44 00 00           LXI     EA,$0000
00001263: 74 EE              DNE     EA,DE
00001265: B8                 RET     
00001266: 23                 DCX     DE
00001267: 70 2E 41 99        SDED    $9941
0000126B: 40 27 21           CALL    $2127
0000126E: 00                 NOP     
0000126F: 44 00 00           LXI     EA,$0000
00001272: 18                 MOV     EAH,A
00001273: 5B 12              BIT     3,VV:12
00001275: C7                 JR      $127D
00001276: B4                 PUSH    EA
00001277: 40 27 21           CALL    $2127
0000127A: 00                 NOP     
0000127B: A4                 POP     EA
0000127C: 19                 MOV     EAL,A
0000127D: 34 25 99           LXI     HL,$9925
00001280: 48 93              STEAX   (HL)
00001282: B9                 RETS    
00001283: 8E                 CALT    ($009C)
00001284: 1F                 MOV     L,A
00001285: B3                 PUSH    HL
00001286: 9E                 CALT    ($00BC)
00001287: A3                 POP     HL
00001288: 1E                 MOV     H,A
00001289: 44 00 00           LXI     EA,$0000
0000128C: 74 EF              DNE     EA,HL
0000128E: B8                 RET     
0000128F: 70 3E 41 99        SHLD    $9941
00001293: B9                 RETS    
00001294: 34 43 99           LXI     HL,$9943
00001297: 48 83              LDEAX   (HL)
00001299: 40 96 11           CALL    $1196
0000129C: 34 43 99           LXI     HL,$9943
0000129F: 48 83              LDEAX   (HL)
000012A1: 01 22              LDAW    VV:22
000012A3: 84                 CALT    ($0088)
000012A4: 70 3F 03 99        LHLD    $9903
000012A8: 74 C7              DADD    EA,HL
000012AA: B5                 DMOV    BC,EA
000012AB: 70 1E 0B 99        SBCD    $990B
000012AF: 34 41 99           LXI     HL,$9941
000012B2: 48 83              LDEAX   (HL)
000012B4: 55 12 08           OFFIW   VV:12,$08
000012B7: 48 A4              DSLL    EA
000012B9: B5                 DMOV    BC,EA
000012BA: 13                 DCX     BC
000012BB: 70 2F 13 99        LDED    $9913
000012BF: A6                 DMOV    EA,DE
000012C0: 74 C5              DADD    EA,BC
000012C2: B6                 DMOV    DE,EA
000012C3: 14 00 90           LXI     BC,$9000
000012C6: 74 B5              DSUBNB  EA,BC
000012C8: C6                 JR      $12CF
000012C9: 14 00 80           LXI     BC,$8000
000012CC: 74 C5              DADD    EA,BC
000012CE: B6                 DMOV    DE,EA
000012CF: 14 00 00           LXI     BC,$0000
000012D2: 5B 12              BIT     3,VV:12
000012D4: C7                 JR      $12DC
000012D5: 2E                 LDAX    (DE-)
000012D6: 40 FC 21           CALL    $21FC
000012D9: 57 80              OFFI    A,$80
000012DB: C9                 JR      $12E5
000012DC: 2E                 LDAX    (DE-)
000012DD: 40 FC 21           CALL    $21FC
000012E0: 77 00              EQI     A,$00
000012E2: C2                 JR      $12E5
000012E3: 12                 INX     BC
000012E4: ED                 JR      $12D2
000012E5: 34 41 99           LXI     HL,$9941
000012E8: 48 83              LDEAX   (HL)
000012EA: 74 E5              DSUB    EA,BC
000012EC: 48 93              STEAX   (HL)
000012EE: 34 3F 99           LXI     HL,$993F
000012F1: 48 83              LDEAX   (HL)
000012F3: 74 C5              DADD    EA,BC
000012F5: 48 93              STEAX   (HL)
000012F7: A5                 DMOV    EA,BC
000012F8: 01 22              LDAW    VV:22
000012FA: 84                 CALT    ($0088)
000012FB: B5                 DMOV    BC,EA
000012FC: 34 01 99           LXI     HL,$9901
000012FF: 48 83              LDEAX   (HL)
00001301: 74 E5              DSUB    EA,BC
00001303: 34 0D 99           LXI     HL,$990D
00001306: 48 93              STEAX   (HL)
00001308: B8                 RET     
00001309: 00                 NOP     
0000130A: 18                 MOV     EAH,A
0000130B: 60 05              illegal 
0000130D: 01 0C              LDAW    VV:0C
0000130F: 60 05              illegal 
00001311: 00                 NOP     
00001312: 0C                 MOV     A,D
00001313: B0                 PUSH    VA
00001314: 02                 INX     SP
00001315: 01 06              LDAW    VV:06
00001317: B0                 PUSH    VA
00001318: 02                 INX     SP
00001319: 01 12              LDAW    VV:12
0000131B: 10                 EXA     
0000131C: 08                 MOV     A,EAH
0000131D: 01 14              LDAW    VV:14
0000131F: F5                 JR      $1315
00001320: 08                 MOV     A,EAH
00001321: 01 10              LDAW    VV:10
00001323: 2A                 LDAX    (DE)
00001324: 07 B1              ANI     A,$B1
00001326: 9E                 CALT    ($00BC)
00001327: A1                 POP     BC
00001328: 77 00              EQI     A,$00
0000132A: 67 30              NEI     A,$30
0000132C: B8                 RET     
0000132D: 77 01              EQI     A,$01
0000132F: 67 31              NEI     A,$31
00001331: B9                 RETS    
00001332: A3                 POP     HL
00001333: B8                 RET     
00001334: 8E                 CALT    ($009C)
00001335: 07 7F              ANI     A,$7F
00001337: B8                 RET     
00001338: 55 02 08           OFFIW   VV:02,$08
0000133B: 55 02 04           OFFIW   VV:02,$04
0000133E: C9                 JR      $1348
0000133F: 40 77 13           CALL    $1377
00001342: 67 11              NEI     A,$11
00001344: 15 02 04           ORIW    VV:02,$04
00001347: B8                 RET     
00001348: 40 63 13           CALL    $1363
0000134B: C1                 JR      $134D
0000134C: B9                 RETS    
0000134D: 67 7F              NEI     A,$7F
0000134F: 54 7C 13           JMP     $137C
00001352: 36 07              SUINB   A,$07
00001354: B8                 RET     
00001355: 34 DA 13           LXI     HL,$13DA
00001358: 48 25              SLL     A
0000135A: 60 47              ADD     L,A
0000135C: 74 56 00           ACI     H,$00
0000135F: 48 83              LDEAX   (HL)
00001361: 48 28              JEA     
00001363: 40 77 13           CALL    $1377
00001366: 67 7F              NEI     A,$7F
00001368: B8                 RET     
00001369: 37 20              LTI     A,$20
0000136B: B9                 RETS    
0000136C: 5D 04              BIT     5,VV:04
0000136E: B8                 RET     
0000136F: 77 15              EQI     A,$15
00001371: B8                 RET     
00001372: 69 10              MVI     A,$10
00001374: 63 15              STAW    VV:15
00001376: B9                 RETS    
00001377: 5C 04              BIT     4,VV:04
00001379: 07 7F              ANI     A,$7F
0000137B: B8                 RET     
0000137C: 55 05 80           OFFIW   VV:05,$80
0000137F: B8                 RET     
00001380: 44 79 9A           LXI     EA,$9A79
00001383: 70 3F 39 99        LHLD    $9939
00001387: 74 EF              DNE     EA,HL
00001389: B8                 RET     
0000138A: 33                 DCX     HL
0000138B: 2B                 LDAX    (HL)
0000138C: 57 01              OFFI    A,$01
0000138E: B8                 RET     
0000138F: 33                 DCX     HL
00001390: 33                 DCX     HL
00001391: 70 3E 39 99        SHLD    $9939
00001395: 40 36 1D           CALL    $1D36
00001398: B6                 DMOV    DE,EA
00001399: 34 01 99           LXI     HL,$9901
0000139C: 48 83              LDEAX   (HL)
0000139E: 74 E6              DSUB    EA,DE
000013A0: 48 93              STEAX   (HL)
000013A2: B8                 RET     
000013A3: 9E                 CALT    ($00BC)
000013A4: 67 19              NEI     A,$19
000013A6: CC                 JR      $13B3
000013A7: 77 7F              EQI     A,$7F
000013A9: 27 1F              GTI     A,$1F
000013AB: 4E 25              JRE     $13D2
000013AD: 27 2F              GTI     A,$2F
000013AF: C3                 JR      $13B3
000013B0: 27 5A              GTI     A,$5A
000013B2: CF                 JR      $13C2
000013B3: 34 62 14           LXI     HL,$1462
000013B6: 1A                 MOV     B,A
000013B7: 2D                 LDAX    (HL+)
000013B8: 67 00              NEI     A,$00
000013BA: B8                 RET     
000013BB: 48 85              LDEAX   (HL++)
000013BD: 60 FA              EQA     A,B
000013BF: F7                 JR      $13B7
000013C0: 48 28              JEA     
000013C2: 66 30              SUI     A,$30
000013C4: 34 0C 14           LXI     HL,$140C
000013C7: 48 25              SLL     A
000013C9: 60 47              ADD     L,A
000013CB: 74 56 00           ACI     H,$00
000013CE: 48 83              LDEAX   (HL)
000013D0: 48 28              JEA     
000013D2: 01 15              LDAW    VV:15
000013D4: 40 63 13           CALL    $1363
000013D7: 4F 74              JRE     $134D
000013D9: B8                 RET     
000013DA: 57 10              OFFI    A,$10
000013DC: 54 16 8C           JMP     $8C16
000013DF: 18                 MOV     EAH,A
000013E0: F7                 JR      $13D8
000013E1: 16 2C              XRI     A,$2C
000013E3: 19                 MOV     EAL,A
000013E4: 02                 INX     SP
000013E5: 17 FD              ORI     A,$FD
000013E7: 16 B6              XRI     A,$B6
000013E9: 15 F8 14           ORIW    VV:F8,$14
000013EC: B6                 DMOV    DE,EA
000013ED: 14 B6 14           LXI     BC,$14B6
000013F0: FC                 JR      $13ED
000013F1: 14 29 17           LXI     BC,$1729
000013F4: EC                 JR      $13E1
000013F5: 14 B6 14           LXI     BC,$14B6
000013F8: B6                 DMOV    DE,EA
000013F9: 14 B6 14           LXI     BC,$14B6
000013FC: C5                 JR      $1402
000013FD: 16 B6              XRI     A,$B6
000013FF: 14 B6 14           LXI     BC,$14B6
00001402: A3                 POP     HL
00001403: 13                 DCX     BC
00001404: B6                 DMOV    DE,EA
00001405: 14 B6 14           LXI     BC,$14B6
00001408: B6                 DMOV    DE,EA
00001409: 14 B6 14           LXI     BC,$14B6
0000140C: 43                 INR     C
0000140D: 17 45              ORI     A,$45
0000140F: 17 47              ORI     A,$47
00001411: 17 4A              ORI     A,$4A
00001413: 17 BD              ORI     A,$BD
00001415: 15 C1 15           ORIW    VV:C1,$15
00001418: D1                 JR      $142A
00001419: 16 D5              XRI     A,$D5
0000141B: 16 4C              XRI     A,$4C
0000141D: 17 50              ORI     A,$50
0000141F: 17 B1              ORI     A,$B1
00001421: 19                 MOV     EAL,A
00001422: B6                 DMOV    DE,EA
00001423: 14 75 78           LXI     BC,$7875
00001426: B6                 DMOV    DE,EA
00001427: 14 B6 14           LXI     BC,$14B6
0000142A: B1                 PUSH    BC
0000142B: 10                 EXA     
0000142C: D9                 JR      $1446
0000142D: 16 37              XRI     A,$37
0000142F: 17 C9              ORI     A,$C9
00001431: 17 6C              ORI     A,$6C
00001433: 17 CC              ORI     A,$CC
00001435: 17 00              ORI     A,$00
00001437: 15 04 15           ORIW    VV:04,$15
0000143A: 08                 MOV     A,EAH
0000143B: 15 0C 15           ORIW    VV:0C,$15
0000143E: B5                 DMOV    BC,EA
0000143F: 14 54 17           LXI     BC,$1754
00001442: CE                 JR      $1451
00001443: 10                 EXA     
00001444: D1                 JR      $1456
00001445: 10                 EXA     
00001446: 10                 EXA     
00001447: 15 A1 17           ORIW    VV:A1,$17
0000144A: B6                 DMOV    DE,EA
0000144B: 17 14              ORI     A,$14
0000144D: 15 89 16           ORIW    VV:89,$16
00001450: 30 17              DCRW    VV:17
00001452: 18                 MOV     EAH,A
00001453: 15 25 15           ORIW    VV:25,$15
00001456: 18                 MOV     EAH,A
00001457: 17 B6              ORI     A,$B6
00001459: 14 A5 15           LXI     BC,$15A5
0000145C: B6                 DMOV    DE,EA
0000145D: 14 D4 10           LXI     BC,$10D4
00001460: D7                 JR      $1478
00001461: 10                 EXA     
00001462: 19                 MOV     EAL,A
00001463: 5D 17              BIT     5,VV:17
00001465: 20 B5              INRW    VV:B5
00001467: 14 21 B7           LXI     BC,$B721
0000146A: 14 24 B4           LXI     BC,$B424
0000146D: 14 25 E9           LXI     BC,$E925
00001470: 19                 MOV     EAL,A
00001471: 26 F3              ADINC   A,$F3
00001473: 19                 MOV     EAL,A
00001474: 2A                 LDAX    (DE)
00001475: DA                 JR      $1490
00001476: 10                 EXA     
00001477: 2D                 LDAX    (HL+)
00001478: D1                 JR      $148A
00001479: 15 2F BF           ORIW    VV:2F,$BF
0000147C: 17 5C              ORI     A,$5C
0000147E: B4                 PUSH    EA
0000147F: 14 5E E4           LXI     BC,$E45E
00001482: 10                 EXA     
00001483: 61                 DAA     
00001484: 0C                 MOV     A,D
00001485: 16 62              XRI     A,$62
00001487: DA                 JR      $14A2
00001488: 17 65              ORI     A,$65
0000148A: 19                 MOV     EAL,A
0000148B: 18                 MOV     EAH,A
0000148C: 66 4F              SUI     A,$4F
0000148E: 18                 MOV     EAH,A
0000148F: 69 B5              MVI     A,$B5
00001491: 14 6A B5           LXI     BC,$B56A
00001494: 14 6B C5           LXI     BC,$C56B
00001497: 15 6C AB           ORIW    VV:6C,$AB
0000149A: 16 6D              XRI     A,$6D
0000149C: B5                 DMOV    BC,EA
0000149D: 14 70 B5           LXI     BC,$B570
000014A0: 14 72 B5           LXI     BC,$B572
000014A3: 14 73 34           LXI     BC,$3473
000014A6: 16 74              XRI     A,$74
000014A8: 02                 INX     SP
000014A9: 16 77              XRI     A,$77
000014AB: B5                 DMOV    BC,EA
000014AC: 14 78 29           LXI     BC,$2978
000014AF: 15 7C DA           ORIW    VV:7C,$DA
000014B2: 7C 00              CALF    $0C00
000014B4: 8E                 CALT    ($009C)
000014B5: 8E                 CALT    ($009C)
000014B6: B8                 RET     
000014B7: 8E                 CALT    ($009C)
000014B8: 05 0A 43           ANIW    VV:0A,$43
000014BB: 05 0B 7B           ANIW    VV:0B,$7B
000014BE: 05 02 FD           ANIW    VV:02,$FD
000014C1: 05 02 FE           ANIW    VV:02,$FE
000014C4: 57 01              OFFI    A,$01
000014C6: 15 0A 80           ORIW    VV:0A,$80
000014C9: 57 04              OFFI    A,$04
000014CB: 15 0B 04           ORIW    VV:0B,$04
000014CE: 57 08              OFFI    A,$08
000014D0: 15 0A 04           ORIW    VV:0A,$04
000014D3: 57 10              OFFI    A,$10
000014D5: 15 0A 20           ORIW    VV:0A,$20
000014D8: 47 20              ONI     A,$20
000014DA: C6                 JR      $14E1
000014DB: 15 02 01           ORIW    VV:02,$01
000014DE: 15 0A 08           ORIW    VV:0A,$08
000014E1: 57 40              OFFI    A,$40
000014E3: 15 0B 80           ORIW    VV:0B,$80
000014E6: 57 80              OFFI    A,$80
000014E8: 15 0A 10           ORIW    VV:0A,$10
000014EB: DB                 JR      $1507
000014EC: 58 02              BIT     0,VV:02
000014EE: 59 02              BIT     1,VV:02
000014F0: D6                 JR      $1507
000014F1: 05 02 FD           ANIW    VV:02,$FD
000014F4: 05 0A F7           ANIW    VV:0A,$F7
000014F7: CF                 JR      $1507
000014F8: 15 0B 04           ORIW    VV:0B,$04
000014FB: CB                 JR      $1507
000014FC: 05 0B FB           ANIW    VV:0B,$FB
000014FF: C7                 JR      $1507
00001500: 15 0A 04           ORIW    VV:0A,$04
00001503: C3                 JR      $1507
00001504: 05 0A FB           ANIW    VV:0A,$FB
00001507: DC                 JR      $1524
00001508: 15 0A 20           ORIW    VV:0A,$20
0000150B: D8                 JR      $1524
0000150C: 05 0A DF           ANIW    VV:0A,$DF
0000150F: D4                 JR      $1524
00001510: 15 0A 80           ORIW    VV:0A,$80
00001513: D0                 JR      $1524
00001514: 05 0A 7F           ANIW    VV:0A,$7F
00001517: CC                 JR      $1524
00001518: 82                 CALT    ($0084)
00001519: C4                 JR      $151E
0000151A: 05 0B DF           ANIW    VV:0B,$DF
0000151D: C3                 JR      $1521
0000151E: 15 0B 20           ORIW    VV:0B,$20
00001521: 15 0B 40           ORIW    VV:0B,$40
00001524: D1                 JR      $1536
00001525: 05 0B BF           ANIW    VV:0B,$BF
00001528: CD                 JR      $1536
00001529: 82                 CALT    ($0084)
0000152A: C4                 JR      $152F
0000152B: 15 0B 02           ORIW    VV:0B,$02
0000152E: C7                 JR      $1536
0000152F: 05 0B FD           ANIW    VV:0B,$FD
00001532: C3                 JR      $1536
00001533: 15 07 80           ORIW    VV:07,$80
00001536: 01 07              LDAW    VV:07
00001538: 70 1F 0A 98        LBCD    $980A
0000153C: 07 BF              ANI     A,$BF
0000153E: 57 80              OFFI    A,$80
00001540: 17 40              ORI     A,$40
00001542: 74 4A 02           ONI     B,$02
00001545: 74 5B 04           OFFI    C,$04
00001548: 74 0A FB           ANI     B,$FB
0000154B: 74 4B A4           ONI     C,$A4
0000154E: 74 5A 46           OFFI    B,$46
00001551: C5                 JR      $1557
00001552: 47 20              ONI     A,$20
00001554: 55 05 80           OFFIW   VV:05,$80
00001557: 07 BF              ANI     A,$BF
00001559: 45 07 40           ONIW    VV:07,$40
0000155C: C5                 JR      $1562
0000155D: 47 40              ONI     A,$40
0000155F: 4E 38              JRE     $1599
00001561: C4                 JR      $1566
00001562: 57 40              OFFI    A,$40
00001564: 4E 33              JRE     $1599
00001566: 74 5A 06           OFFI    B,$06
00001569: C4                 JR      $156E
0000156A: 74 4B 04           ONI     C,$04
0000156D: C9                 JR      $1577
0000156E: 45 08 04           ONIW    VV:08,$04
00001571: 55 09 06           OFFIW   VV:09,$06
00001574: CA                 JR      $157F
00001575: 4E 22              JRE     $1599
00001577: 55 08 04           OFFIW   VV:08,$04
0000157A: DE                 JR      $1599
0000157B: 55 09 06           OFFIW   VV:09,$06
0000157E: DA                 JR      $1599
0000157F: 74 4A 02           ONI     B,$02
00001582: C4                 JR      $1587
00001583: 59 09              BIT     1,VV:09
00001585: D3                 JR      $1599
00001586: D7                 JR      $159E
00001587: 55 09 02           OFFIW   VV:09,$02
0000158A: CE                 JR      $1599
0000158B: 74 5B 04           OFFI    C,$04
0000158E: C7                 JR      $1596
0000158F: 74 5A 04           OFFI    B,$04
00001592: 5A 08              BIT     2,VV:08
00001594: C9                 JR      $159E
00001595: C3                 JR      $1599
00001596: 5A 09              BIT     2,VV:09
00001598: C5                 JR      $159E
00001599: B0                 PUSH    VA
0000159A: B1                 PUSH    BC
0000159B: 8B                 CALT    ($0096)
0000159C: A1                 POP     BC
0000159D: A0                 POP     VA
0000159E: 63 07              STAW    VV:07
000015A0: 70 1E 08 98        SBCD    $9808
000015A4: B8                 RET     
000015A5: 82                 CALT    ($0084)
000015A6: C7                 JR      $15AE
000015A7: 15 02 01           ORIW    VV:02,$01
000015AA: 15 0A 08           ORIW    VV:0A,$08
000015AD: C6                 JR      $15B4
000015AE: 05 02 FC           ANIW    VV:02,$FC
000015B1: 05 0A F7           ANIW    VV:0A,$F7
000015B4: 4F 80              JRE     $1536
000015B6: 15 02 02           ORIW    VV:02,$02
000015B9: 14 08 00           LXI     BC,$0008
000015BC: CF                 JR      $15CC
000015BD: 14 00 80           LXI     BC,$8000
000015C0: CB                 JR      $15CC
000015C1: 14 00 80           LXI     BC,$8000
000015C4: CB                 JR      $15D0
000015C5: 14 01 00           LXI     BC,$0001
000015C8: CB                 JR      $15D4
000015C9: 14 01 00           LXI     BC,$0001
000015CC: C9                 JR      $15D6
000015CD: 14 01 00           LXI     BC,$0001
000015D0: D8                 JR      $15E9
000015D1: 14 10 00           LXI     BC,$0010
000015D4: 82                 CALT    ($0084)
000015D5: D3                 JR      $15E9
000015D6: 34 0A 98           LXI     HL,$980A
000015D9: 48 83              LDEAX   (HL)
000015DB: 74 9D              DOR     EA,BC
000015DD: 48 93              STEAX   (HL)
000015DF: 34 08 98           LXI     HL,$9808
000015E2: 48 83              LDEAX   (HL)
000015E4: 74 9D              DOR     EA,BC
000015E6: 48 93              STEAX   (HL)
000015E8: B8                 RET     
000015E9: 44 FF FF           LXI     EA,$FFFF
000015EC: 74 95              DXR     EA,BC
000015EE: B5                 DMOV    BC,EA
000015EF: 34 0A 98           LXI     HL,$980A
000015F2: 48 83              LDEAX   (HL)
000015F4: 74 8D              DAN     EA,BC
000015F6: 48 93              STEAX   (HL)
000015F8: 34 08 98           LXI     HL,$9808
000015FB: 48 83              LDEAX   (HL)
000015FD: 74 8D              DAN     EA,BC
000015FF: 48 93              STEAX   (HL)
00001601: B8                 RET     
00001602: 82                 CALT    ($0084)
00001603: C4                 JR      $1608
00001604: 15 04 20           ORIW    VV:04,$20
00001607: B8                 RET     
00001608: 05 04 DF           ANIW    VV:04,$DF
0000160B: B8                 RET     
0000160C: 8E                 CALT    ($009C)
0000160D: 07 0F              ANI     A,$0F
0000160F: 37 04              LTI     A,$04
00001611: B8                 RET     
00001612: 6B 00              MVI     C,$00
00001614: 67 01              NEI     A,$01
00001616: 6B 10              MVI     C,$10
00001618: 67 02              NEI     A,$02
0000161A: 6B 20              MVI     C,$20
0000161C: 67 03              NEI     A,$03
0000161E: 6B 80              MVI     C,$80
00001620: 01 05              LDAW    VV:05
00001622: 07 B0              ANI     A,$B0
00001624: 60 EB              NEA     A,C
00001626: B8                 RET     
00001627: B1                 PUSH    BC
00001628: 86                 CALT    ($008C)
00001629: A1                 POP     BC
0000162A: 01 05              LDAW    VV:05
0000162C: 07 4F              ANI     A,$4F
0000162E: 60 9B              ORA     A,C
00001630: 63 05              STAW    VV:05
00001632: 4F 80              JRE     $15B4
00001634: 82                 CALT    ($0084)
00001635: CB                 JR      $1641
00001636: 55 07 20           OFFIW   VV:07,$20
00001639: B8                 RET     
0000163A: 40 4B 16           CALL    $164B
0000163D: 15 07 20           ORIW    VV:07,$20
00001640: F1                 JR      $1632
00001641: 5D 07              BIT     5,VV:07
00001643: B8                 RET     
00001644: 40 4B 16           CALL    $164B
00001647: 05 07 DF           ANIW    VV:07,$DF
0000164A: E7                 JR      $1632
0000164B: 55 08 04           OFFIW   VV:08,$04
0000164E: B8                 RET     
0000164F: 45 09 06           ONIW    VV:09,$06
00001652: 8B                 CALT    ($0096)
00001653: B8                 RET     
00001654: 55 05 B0           OFFIW   VV:05,$B0
00001657: B8                 RET     
00001658: 8B                 CALT    ($0096)
00001659: 5F 03              BIT     7,VV:03
0000165B: CF                 JR      $166B
0000165C: 05 03 7F           ANIW    VV:03,$7F
0000165F: 70 3F 55 99        LHLD    $9955
00001663: A7                 DMOV    EA,HL
00001664: 70 3F 01 99        LHLD    $9901
00001668: 74 AF              DGT     EA,HL
0000166A: CA                 JR      $1675
0000166B: 97                 CALT    ($00AE)
0000166C: B6                 DMOV    DE,EA
0000166D: 34 01 99           LXI     HL,$9901
00001670: 48 83              LDEAX   (HL)
00001672: 74 B6              DSUBNB  EA,DE
00001674: B8                 RET     
00001675: 70 1F 05 99        LBCD    $9905
00001679: 74 BD              DLT     EA,BC
0000167B: C1                 JR      $167D
0000167C: B8                 RET     
0000167D: B7                 DMOV    HL,EA
0000167E: 85                 CALT    ($008A)
0000167F: B8                 RET     
00001680: 70 1F 08 98        LBCD    $9808
00001684: 40 C9 22           CALL    $22C9
00001687: B7                 DMOV    HL,EA
00001688: B8                 RET     
00001689: 40 82 18           CALL    $1882
0000168C: B8                 RET     
0000168D: 70 2F 05 99        LDED    $9905
00001691: 74 B6              DSUBNB  EA,DE
00001693: B8                 RET     
00001694: 24 1F 01           LXI     DE,$011F
00001697: 74 AE              DGT     EA,DE
00001699: B8                 RET     
0000169A: A7                 DMOV    EA,HL
0000169B: 24 81 4C           LXI     DE,$4C81
0000169E: 5B 4F              BIT     3,VV:4F
000016A0: 24 01 2D           LXI     DE,$2D01
000016A3: 74 BE              DLT     EA,DE
000016A5: B8                 RET     
000016A6: 70 3E 3D 99        SHLD    $993D
000016AA: D9                 JR      $16C4
000016AB: 40 82 18           CALL    $1882
000016AE: B8                 RET     
000016AF: 70 2F 3D 99        LDED    $993D
000016B3: A6                 DMOV    EA,DE
000016B4: 74 B7              DSUBNB  EA,HL
000016B6: B8                 RET     
000016B7: 24 1F 01           LXI     DE,$011F
000016BA: 74 AE              DGT     EA,DE
000016BC: B8                 RET     
000016BD: 70 3E 05 99        SHLD    $9905
000016C1: 05 03 EF           ANIW    VV:03,$EF
000016C4: C4                 JR      $16C9
000016C5: 55 05 80           OFFIW   VV:05,$80
000016C8: B8                 RET     
000016C9: 40 0B 17           CALL    $170B
000016CC: 05 11 FE           ANIW    VV:11,$FE
000016CF: 9D                 CALT    ($00BA)
000016D0: B8                 RET     
000016D1: 15 04 10           ORIW    VV:04,$10
000016D4: B8                 RET     
000016D5: 05 04 EF           ANIW    VV:04,$EF
000016D8: B8                 RET     
000016D9: 40 75 78           CALL    $7875
000016DC: 40 68 2B           CALL    $2B68
000016DF: 40 B1 7B           CALL    $7BB1
000016E2: 44 00 98           LXI     EA,$9800
000016E5: 14 0D 00           LXI     BC,$000D
000016E8: 9C                 CALT    ($00B8)
000016E9: 44 57 98           LXI     EA,$9857
000016EC: 14 B2 00           LXI     BC,$00B2
000016EF: 9C                 CALT    ($00B8)
000016F0: 15 14 20           ORIW    VV:14,$20
000016F3: A4                 POP     EA
000016F4: 54 95 01           JMP     $0195
000016F7: 98                 CALT    ($00B0)
000016F8: 83                 CALT    ($0086)
000016F9: 40 82 2B           CALL    $2B82
000016FC: CA                 JR      $1707
000016FD: 98                 CALT    ($00B0)
000016FE: 5F 02              BIT     7,VV:02
00001700: C6                 JR      $1707
00001701: F6                 JR      $16F8
00001702: 98                 CALT    ($00B0)
00001703: 40 6F 2B           CALL    $2B6F
00001706: 83                 CALT    ($0086)
00001707: 55 11 01           OFFIW   VV:11,$01
0000170A: B8                 RET     
0000170B: 70 3F 05 99        LHLD    $9905
0000170F: 70 3E 01 99        SHLD    $9901
00001713: 70 3E 03 99        SHLD    $9903
00001717: B8                 RET     
00001718: 82                 CALT    ($0084)
00001719: C7                 JR      $1721
0000171A: 5B 00              BIT     3,VV:00
0000171C: 8B                 CALT    ($0096)
0000171D: 15 00 08           ORIW    VV:00,$08
00001720: B8                 RET     
00001721: 55 00 08           OFFIW   VV:00,$08
00001724: 8B                 CALT    ($0096)
00001725: 05 00 F7           ANIW    VV:00,$F7
00001728: B8                 RET     
00001729: 5B 02              BIT     3,VV:02
0000172B: B8                 RET     
0000172C: 05 02 FB           ANIW    VV:02,$FB
0000172F: B8                 RET     
00001730: 9E                 CALT    ($00BC)
00001731: 37 0D              LTI     A,$0D
00001733: B8                 RET     
00001734: 63 0C              STAW    VV:0C
00001736: B8                 RET     
00001737: 9E                 CALT    ($00BC)
00001738: 37 56              LTI     A,$56
0000173A: B8                 RET     
0000173B: 6A 03              MVI     B,$03
0000173D: 48 2E              MUL     B
0000173F: 09                 MOV     A,EAL
00001740: 63 2C              STAW    VV:2C
00001742: B8                 RET     
00001743: 69 1B              MVI     A,$1B
00001745: 69 15              MVI     A,$15
00001747: 69 24              MVI     A,$24
00001749: F6                 JR      $1740
0000174A: 8E                 CALT    ($009C)
0000174B: F4                 JR      $1740
0000174C: 15 01 04           ORIW    VV:01,$04
0000174F: B8                 RET     
00001750: 05 01 FB           ANIW    VV:01,$FB
00001753: B8                 RET     
00001754: 8B                 CALT    ($0096)
00001755: 8E                 CALT    ($009C)
00001756: 14 00 00           LXI     BC,$0000
00001759: 1B                 MOV     C,A
0000175A: 54 88 2B           JMP     $2B88
0000175D: 9E                 CALT    ($00BC)
0000175E: 67 30              NEI     A,$30
00001760: C7                 JR      $1768
00001761: 77 34              EQI     A,$34
00001763: B8                 RET     
00001764: 15 02 20           ORIW    VV:02,$20
00001767: B8                 RET     
00001768: 05 02 DF           ANIW    VV:02,$DF
0000176B: B8                 RET     
0000176C: 9E                 CALT    ($00BC)
0000176D: 70 6A 2C 98        MOV     B,($982C)
00001771: 75 15 00           EQIW    VV:15,$00
00001774: C6                 JR      $177B
00001775: 8E                 CALT    ($009C)
00001776: 37 17              LTI     A,$17
00001778: B8                 RET     
00001779: 6A D8              MVI     B,$D8
0000177B: 48 2E              MUL     B
0000177D: 34 00 00           LXI     HL,$0000
00001780: 74 EF              DNE     EA,HL
00001782: B8                 RET     
00001783: 40 F3 32           CALL    $32F3
00001786: 48 93              STEAX   (HL)
00001788: 34 31 99           LXI     HL,$9931
0000178B: 48 83              LDEAX   (HL)
0000178D: 34 2F 99           LXI     HL,$992F
00001790: 48 93              STEAX   (HL)
00001792: 34 00 00           LXI     HL,$0000
00001795: 70 3E 2B 99        SHLD    $992B
00001799: 70 3E 07 99        SHLD    $9907
0000179D: 71 0D 00           MVIW    VV:0D,$00
000017A0: B8                 RET     
000017A1: 9E                 CALT    ($00BC)
000017A2: 67 00              NEI     A,$00
000017A4: B8                 RET     
000017A5: 1A                 MOV     B,A
000017A6: 01 2C              LDAW    VV:2C
000017A8: 48 2E              MUL     B
000017AA: B5                 DMOV    BC,EA
000017AB: 34 31 99           LXI     HL,$9931
000017AE: 48 83              LDEAX   (HL)
000017B0: 74 FD              DEQ     EA,BC
000017B2: 74 B5              DSUBNB  EA,BC
000017B4: B8                 RET     
000017B5: C3                 JR      $17B9
000017B6: 44 FF FF           LXI     EA,$FFFF
000017B9: 34 2F 99           LXI     HL,$992F
000017BC: 48 93              STEAX   (HL)
000017BE: B8                 RET     
000017BF: 9E                 CALT    ($00BC)
000017C0: 37 08              LTI     A,$08
000017C2: B8                 RET     
000017C3: 15 03 20           ORIW    VV:03,$20
000017C6: 63 0E              STAW    VV:0E
000017C8: B8                 RET     
000017C9: 69 00              MVI     A,$00
000017CB: D2                 JR      $17DE
000017CC: 15 03 30           ORIW    VV:03,$30
000017CF: 97                 CALT    ($00AE)
000017D0: 34 57 98           LXI     HL,$9857
000017D3: 48 95              STEAX   (HL++)
000017D5: 14 20 00           LXI     BC,$0020
000017D8: 4E 20              JRE     $17FA
000017DA: 9E                 CALT    ($00BC)
000017DB: 37 08              LTI     A,$08
000017DD: B8                 RET     
000017DE: 6A 11              MVI     B,$11
000017E0: 48 2E              MUL     B
000017E2: 15 03 20           ORIW    VV:03,$20
000017E5: 40 C0 00           CALL    $00C0
000017E8: 74 98 0D           ORAW    VV:0D
000017EB: 63 0D              STAW    VV:0D
000017ED: 34 79 98           LXI     HL,$9879
000017F0: 74 C7              DADD    EA,HL
000017F2: B7                 DMOV    HL,EA
000017F3: 01 2C              LDAW    VV:2C
000017F5: 3D                 STAX    (HL+)
000017F6: 6B 10              MVI     C,$10
000017F8: 6A 00              MVI     B,$00
000017FA: B1                 PUSH    BC
000017FB: B3                 PUSH    HL
000017FC: 8E                 CALT    ($009C)
000017FD: A3                 POP     HL
000017FE: A1                 POP     BC
000017FF: 53                 DCR     C
00001800: C1                 JR      $1802
00001801: CF                 JR      $1811
00001802: 67 00              NEI     A,$00
00001804: C6                 JR      $180B
00001805: 60 AA              GTA     A,B
00001807: C3                 JR      $180B
00001808: 3D                 STAX    (HL+)
00001809: 1A                 MOV     B,A
0000180A: EF                 JR      $17FA
0000180B: 4B 00              MVIX    HL,$00
0000180D: B8                 RET     
0000180E: B1                 PUSH    BC
0000180F: 8E                 CALT    ($009C)
00001810: A1                 POP     BC
00001811: 67 00              NEI     A,$00
00001813: B8                 RET     
00001814: 60 AA              GTA     A,B
00001816: B8                 RET     
00001817: 1A                 MOV     B,A
00001818: F5                 JR      $180E
00001819: 82                 CALT    ($0084)
0000181A: D7                 JR      $1832
0000181B: 9E                 CALT    ($00BC)
0000181C: 1A                 MOV     B,A
0000181D: 01 2C              LDAW    VV:2C
0000181F: 48 2E              MUL     B
00001821: B5                 DMOV    BC,EA
00001822: 40 F3 32           CALL    $32F3
00001825: 48 83              LDEAX   (HL)
00001827: 74 AD              DGT     EA,BC
00001829: B8                 RET     
0000182A: 70 1E 07 99        SBCD    $9907
0000182E: 05 03 DF           ANIW    VV:03,$DF
00001831: B8                 RET     
00001832: 9E                 CALT    ($00BC)
00001833: B0                 PUSH    VA
00001834: 97                 CALT    ($00AE)
00001835: A0                 POP     VA
00001836: 84                 CALT    ($0088)
00001837: B5                 DMOV    BC,EA
00001838: 24 1F 01           LXI     DE,$011F
0000183B: 74 AE              DGT     EA,DE
0000183D: B8                 RET     
0000183E: 24 F5 0B           LXI     DE,$0BF5
00001841: 74 BE              DLT     EA,DE
00001843: B8                 RET     
00001844: 70 1E 09 99        SBCD    $9909
00001848: 05 03 DF           ANIW    VV:03,$DF
0000184B: 15 03 10           ORIW    VV:03,$10
0000184E: B8                 RET     
0000184F: 82                 CALT    ($0084)
00001850: D1                 JR      $1862
00001851: 8B                 CALT    ($0096)
00001852: 9E                 CALT    ($00BC)
00001853: 1A                 MOV     B,A
00001854: 01 2C              LDAW    VV:2C
00001856: 48 2E              MUL     B
00001858: 14 00 00           LXI     BC,$0000
0000185B: 74 ED              DNE     EA,BC
0000185D: B8                 RET     
0000185E: B5                 DMOV    BC,EA
0000185F: 54 88 2B           JMP     $2B88
00001862: 55 05 80           OFFIW   VV:05,$80
00001865: B8                 RET     
00001866: 9E                 CALT    ($00BC)
00001867: 67 00              NEI     A,$00
00001869: B8                 RET     
0000186A: B0                 PUSH    VA
0000186B: 8B                 CALT    ($0096)
0000186C: 97                 CALT    ($00AE)
0000186D: A0                 POP     VA
0000186E: 84                 CALT    ($0088)
0000186F: 70 2F 01 99        LDED    $9901
00001873: 74 C6              DADD    EA,DE
00001875: 70 2F 3D 99        LDED    $993D
00001879: 74 BE              DLT     EA,DE
0000187B: 54 F7 16           JMP     $16F7
0000187E: B7                 DMOV    HL,EA
0000187F: 54 0F 17           JMP     $170F
00001882: 97                 CALT    ($00AE)
00001883: B4                 PUSH    EA
00001884: 8E                 CALT    ($009C)
00001885: A4                 POP     EA
00001886: 84                 CALT    ($0088)
00001887: 48 1A              SKN     CY
00001889: B8                 RET     
0000188A: B7                 DMOV    HL,EA
0000188B: B9                 RETS    
0000188C: 55 05 80           OFFIW   VV:05,$80
0000188F: B8                 RET     
00001890: 5C 03              BIT     4,VV:03
00001892: 4E 54              JRE     $18E8
00001894: 5D 03              BIT     5,VV:03
00001896: 4E 2D              JRE     $18C5
00001898: 34 57 98           LXI     HL,$9857
0000189B: 6A 01              MVI     B,$01
0000189D: 42                 INR     B
0000189E: 74 3A 23           LTI     B,$23
000018A1: B8                 RET     
000018A2: AD                 LDAX    (HL+B)
000018A3: 67 00              NEI     A,$00
000018A5: B8                 RET     
000018A6: B1                 PUSH    BC
000018A7: 48 83              LDEAX   (HL)
000018A9: 84                 CALT    ($0088)
000018AA: A1                 POP     BC
000018AB: 48 1A              SKN     CY
000018AD: B8                 RET     
000018AE: 70 2F 05 99        LDED    $9905
000018B2: 74 C6              DADD    EA,DE
000018B4: 70 2F 3D 99        LDED    $993D
000018B8: 74 BE              DLT     EA,DE
000018BA: B8                 RET     
000018BB: 70 2F 01 99        LDED    $9901
000018BF: 74 AE              DGT     EA,DE
000018C1: 4F DA              JRE     $189D
000018C3: 4E 29              JRE     $18EE
000018C5: 70 1F 09 99        LBCD    $9909
000018C9: 44 00 00           LXI     EA,$0000
000018CC: 74 ED              DNE     EA,BC
000018CE: B8                 RET     
000018CF: 34 05 99           LXI     HL,$9905
000018D2: 48 83              LDEAX   (HL)
000018D4: 74 C5              DADD    EA,BC
000018D6: 70 2F 3D 99        LDED    $993D
000018DA: 22                 INX     DE
000018DB: 74 BE              DLT     EA,DE
000018DD: 54 F7 16           JMP     $16F7
000018E0: 70 2F 01 99        LDED    $9901
000018E4: 74 AE              DGT     EA,DE
000018E6: ED                 JR      $18D4
000018E7: C6                 JR      $18EE
000018E8: 97                 CALT    ($00AE)
000018E9: 69 08              MVI     A,$08
000018EB: 84                 CALT    ($0088)
000018EC: B5                 DMOV    BC,EA
000018ED: E1                 JR      $18CF
000018EE: 05 03 7F           ANIW    VV:03,$7F
000018F1: B7                 DMOV    HL,EA
000018F2: 70 1F 03 99        LBCD    $9903
000018F6: A5                 DMOV    EA,BC
000018F7: 74 EE              DNE     EA,DE
000018F9: CF                 JR      $1909
000018FA: A7                 DMOV    EA,HL
000018FB: 74 E6              DSUB    EA,DE
000018FD: B6                 DMOV    DE,EA
000018FE: 70 2E 3B 99        SDED    $993B
00001902: 40 0B 19           CALL    $190B
00001905: B8                 RET     
00001906: B3                 PUSH    HL
00001907: 8B                 CALT    ($0096)
00001908: A3                 POP     HL
00001909: 85                 CALT    ($008A)
0000190A: B8                 RET     
0000190B: 5E 07              BIT     6,VV:07
0000190D: CC                 JR      $191A
0000190E: A6                 DMOV    EA,DE
0000190F: 69 10              MVI     A,$10
00001911: 48 3D              DIV     A
00001913: 67 00              NEI     A,$00
00001915: D3                 JR      $1929
00001916: 55 11 20           OFFIW   VV:11,$20
00001919: B9                 RETS    
0000191A: A6                 DMOV    EA,DE
0000191B: 5A 09              BIT     2,VV:09
0000191D: 69 0C              MVI     A,$0C
0000191F: 69 06              MVI     A,$06
00001921: 48 3D              DIV     A
00001923: 77 00              EQI     A,$00
00001925: B9                 RETS    
00001926: 05 07 BF           ANIW    VV:07,$BF
00001929: 54 91 22           JMP     $2291
0000192C: 98                 CALT    ($00B0)
0000192D: 83                 CALT    ($0086)
0000192E: 40 0B 17           CALL    $170B
00001931: 5D 03              BIT     5,VV:03
00001933: 4E 44              JRE     $1979
00001935: 01 0E              LDAW    VV:0E
00001937: 40 C0 00           CALL    $00C0
0000193A: 74 C8 0D           ONAW    VV:0D
0000193D: 4E 44              JRE     $1983
0000193F: 01 0E              LDAW    VV:0E
00001941: 6A 11              MVI     B,$11
00001943: 48 2E              MUL     B
00001945: 34 79 98           LXI     HL,$9879
00001948: 74 C7              DADD    EA,HL
0000194A: B7                 DMOV    HL,EA
0000194B: 70 2F 2B 99        LDED    $992B
0000194F: 2D                 LDAX    (HL+)
00001950: 1A                 MOV     B,A
00001951: 6B 10              MVI     C,$10
00001953: 53                 DCR     C
00001954: C1                 JR      $1956
00001955: DA                 JR      $1970
00001956: 2D                 LDAX    (HL+)
00001957: 67 00              NEI     A,$00
00001959: D6                 JR      $1970
0000195A: 48 2E              MUL     B
0000195C: 74 AE              DGT     EA,DE
0000195E: F4                 JR      $1953
0000195F: 40 EC 32           CALL    $32EC
00001962: C7                 JR      $196A
00001963: 70 1F 2F 99        LBCD    $992F
00001967: 74 BD              DLT     EA,BC
00001969: CC                 JR      $1976
0000196A: 74 E6              DSUB    EA,DE
0000196C: B5                 DMOV    BC,EA
0000196D: 54 88 2B           JMP     $2B88
00001970: 74 6B 0F           NEI     C,$0F
00001973: 54 FD 16           JMP     $16FD
00001976: 54 6F 2B           JMP     $2B6F
00001979: 70 1F 07 99        LBCD    $9907
0000197D: A5                 DMOV    EA,BC
0000197E: 14 00 00           LXI     BC,$0000
00001981: 74 ED              DNE     EA,BC
00001983: 54 82 2B           JMP     $2B82
00001986: B5                 DMOV    BC,EA
00001987: B4                 PUSH    EA
00001988: 40 F3 32           CALL    $32F3
0000198B: 48 83              LDEAX   (HL)
0000198D: B6                 DMOV    DE,EA
0000198E: A4                 POP     EA
0000198F: 74 BE              DLT     EA,DE
00001991: E4                 JR      $1976
00001992: 70 2F 2B 99        LDED    $992B
00001996: 74 EE              DNE     EA,DE
00001998: C4                 JR      $199D
00001999: 74 BE              DLT     EA,DE
0000199B: 4F CD              JRE     $196A
0000199D: 74 C5              DADD    EA,BC
0000199F: E7                 JR      $1987
000019A0: 34 00 FF           LXI     HL,$FF00
000019A3: 6A 0C              MVI     B,$0C
000019A5: 40 DD 19           CALL    $19DD
000019A8: 34 48 FF           LXI     HL,$FF48
000019AB: 6A 1D              MVI     B,$1D
000019AD: 40 DD 19           CALL    $19DD
000019B0: B8                 RET     
000019B1: 8B                 CALT    ($0096)
000019B2: 9E                 CALT    ($00BC)
000019B3: B0                 PUSH    VA
000019B4: 9E                 CALT    ($00BC)
000019B5: B0                 PUSH    VA
000019B6: 9E                 CALT    ($00BC)
000019B7: 1B                 MOV     C,A
000019B8: A0                 POP     VA
000019B9: 1A                 MOV     B,A
000019BA: A0                 POP     VA
000019BB: 51                 DCR     A
000019BC: B8                 RET     
000019BD: 53                 DCR     C
000019BE: B8                 RET     
000019BF: 74 3A 02           LTI     B,$02
000019C2: B8                 RET     
000019C3: 05 04 F7           ANIW    VV:04,$F7
000019C6: 74 6A 01           NEI     B,$01
000019C9: 15 04 08           ORIW    VV:04,$08
000019CC: 59 09              BIT     1,VV:09
000019CE: 69 0C              MVI     A,$0C
000019D0: 69 1D              MVI     A,$1D
000019D2: 1A                 MOV     B,A
000019D3: 59 09              BIT     1,VV:09
000019D5: 34 00 FF           LXI     HL,$FF00
000019D8: 34 48 FF           LXI     HL,$FF48
000019DB: 69 FF              MVI     A,$FF
000019DD: 69 00              MVI     A,$00
000019DF: 6B 05              MVI     C,$05
000019E1: 3B                 STAX    (HL)
000019E2: A7                 DMOV    EA,HL
000019E3: 70 42              EADD    EA,B
000019E5: B7                 DMOV    HL,EA
000019E6: 53                 DCR     C
000019E7: F9                 JR      $19E1
000019E8: B8                 RET     
000019E9: 82                 CALT    ($0084)
000019EA: C4                 JR      $19EF
000019EB: 15 04 80           ORIW    VV:04,$80
000019EE: B8                 RET     
000019EF: 05 04 7F           ANIW    VV:04,$7F
000019F2: B8                 RET     
000019F3: 8B                 CALT    ($0096)
000019F4: 9E                 CALT    ($00BC)
000019F5: B0                 PUSH    VA
000019F6: 8E                 CALT    ($009C)
000019F7: B0                 PUSH    VA
000019F8: 8E                 CALT    ($009C)
000019F9: 1B                 MOV     C,A
000019FA: A0                 POP     VA
000019FB: 1A                 MOV     B,A
000019FC: A0                 POP     VA
000019FD: 77 00              EQI     A,$00
000019FF: B8                 RET     
00001A00: 0B                 MOV     A,C
00001A01: 74 32 3A           SUINB   B,$3A
00001A04: DA                 JR      $1A1F
00001A05: 37 40              LTI     A,$40
00001A07: D7                 JR      $1A1F
00001A08: 36 3A              SUINB   A,$3A
00001A0A: D2                 JR      $1A1D
00001A0B: 60 B2              SUBNB   A,B
00001A0D: B8                 RET     
00001A0E: 1B                 MOV     C,A
00001A0F: B1                 PUSH    BC
00001A10: 59 09              BIT     1,VV:09
00001A12: 40 42 1A           CALL    $1A42
00001A15: 40 58 1A           CALL    $1A58
00001A18: A1                 POP     BC
00001A19: 42                 INR     B
00001A1A: 53                 DCR     C
00001A1B: F3                 JR      $1A0F
00001A1C: B8                 RET     
00001A1D: 46 3A              ADI     A,$3A
00001A1F: 74 42 3A           ADI     B,$3A
00001A22: 60 B2              SUBNB   A,B
00001A24: B8                 RET     
00001A25: 59 09              BIT     1,VV:09
00001A27: D2                 JR      $1A3A
00001A28: 1B                 MOV     C,A
00001A29: B1                 PUSH    BC
00001A2A: 8E                 CALT    ($009C)
00001A2B: 8E                 CALT    ($009C)
00001A2C: B0                 PUSH    VA
00001A2D: 8E                 CALT    ($009C)
00001A2E: A0                 POP     VA
00001A2F: 6A 03              MVI     B,$03
00001A31: 48 2E              MUL     B
00001A33: 40 9B 11           CALL    $119B
00001A36: A1                 POP     BC
00001A37: 53                 DCR     C
00001A38: F0                 JR      $1A29
00001A39: B8                 RET     
00001A3A: 41                 INR     A
00001A3B: 6A 0C              MVI     B,$0C
00001A3D: 48 2E              MUL     B
00001A3F: 54 9B 11           JMP     $119B
00001A42: 40 C2 1A           CALL    $1AC2
00001A45: B3                 PUSH    HL
00001A46: 8E                 CALT    ($009C)
00001A47: 07 80              ANI     A,$80
00001A49: 17 0B              ORI     A,$0B
00001A4B: A3                 POP     HL
00001A4C: 3D                 STAX    (HL+)
00001A4D: 6B 0A              MVI     C,$0A
00001A4F: B3                 PUSH    HL
00001A50: B1                 PUSH    BC
00001A51: 8E                 CALT    ($009C)
00001A52: A1                 POP     BC
00001A53: A3                 POP     HL
00001A54: 3D                 STAX    (HL+)
00001A55: 53                 DCR     C
00001A56: F8                 JR      $1A4F
00001A57: B9                 RETS    
00001A58: 40 C2 1A           CALL    $1AC2
00001A5B: B3                 PUSH    HL
00001A5C: 8E                 CALT    ($009C)
00001A5D: 8E                 CALT    ($009C)
00001A5E: B0                 PUSH    VA
00001A5F: 8E                 CALT    ($009C)
00001A60: A0                 POP     VA
00001A61: A3                 POP     HL
00001A62: 67 00              NEI     A,$00
00001A64: B8                 RET     
00001A65: 37 0C              LTI     A,$0C
00001A67: 69 0C              MVI     A,$0C
00001A69: 3D                 STAX    (HL+)
00001A6A: B3                 PUSH    HL
00001A6B: 32                 INX     HL
00001A6C: 32                 INX     HL
00001A6D: 1B                 MOV     C,A
00001A6E: 6A 10              MVI     B,$10
00001A70: 60 62              SUB     B,A
00001A72: 4E 2C              JRE     $1AA0
00001A74: B1                 PUSH    BC
00001A75: B3                 PUSH    HL
00001A76: 8E                 CALT    ($009C)
00001A77: 18                 MOV     EAH,A
00001A78: B4                 PUSH    EA
00001A79: 8E                 CALT    ($009C)
00001A7A: A4                 POP     EA
00001A7B: 19                 MOV     EAL,A
00001A7C: 6B 07              MVI     C,$07
00001A7E: 48 A4              DSLL    EA
00001A80: 48 35              RLL     A
00001A82: 48 A4              DSLL    EA
00001A84: 48 36              RLL     B
00001A86: 53                 DCR     C
00001A87: F6                 JR      $1A7E
00001A88: A3                 POP     HL
00001A89: 3D                 STAX    (HL+)
00001A8A: 0A                 MOV     A,B
00001A8B: BF 0D              STAX    (HL+$0D)
00001A8D: B3                 PUSH    HL
00001A8E: 8E                 CALT    ($009C)
00001A8F: 34 4D 99           LXI     HL,$994D
00001A92: 6B 01              MVI     C,$01
00001A94: 48 83              LDEAX   (HL)
00001A96: 48 25              SLL     A
00001A98: 48 B4              DRLL    EA
00001A9A: 48 95              STEAX   (HL++)
00001A9C: 53                 DCR     C
00001A9D: F6                 JR      $1A94
00001A9E: A3                 POP     HL
00001A9F: A1                 POP     BC
00001AA0: 53                 DCR     C
00001AA1: 4F D1              JRE     $1A74
00001AA3: A2                 POP     DE
00001AA4: B1                 PUSH    BC
00001AA5: 34 4D 99           LXI     HL,$994D
00001AA8: 48 85              LDEAX   (HL++)
00001AAA: C2                 JR      $1AAD
00001AAB: 48 A4              DSLL    EA
00001AAD: 52                 DCR     B
00001AAE: FC                 JR      $1AAB
00001AAF: 08                 MOV     A,EAH
00001AB0: 3C                 STAX    (DE+)
00001AB1: 09                 MOV     A,EAL
00001AB2: 3C                 STAX    (DE+)
00001AB3: A1                 POP     BC
00001AB4: 48 83              LDEAX   (HL)
00001AB6: C2                 JR      $1AB9
00001AB7: 48 A4              DSLL    EA
00001AB9: 52                 DCR     B
00001ABA: FC                 JR      $1AB7
00001ABB: 08                 MOV     A,EAH
00001ABC: BB 0C              STAX    (DE+$0C)
00001ABE: 09                 MOV     A,EAL
00001ABF: BB 0D              STAX    (DE+$0D)
00001AC1: B8                 RET     
00001AC2: 59 09              BIT     1,VV:09
00001AC4: 69 0C              MVI     A,$0C
00001AC6: 69 1D              MVI     A,$1D
00001AC8: 59 09              BIT     1,VV:09
00001ACA: 34 00 FF           LXI     HL,$FF00
00001ACD: 34 48 FF           LXI     HL,$FF48
00001AD0: 48 2E              MUL     B
00001AD2: 74 C7              DADD    EA,HL
00001AD4: B7                 DMOV    HL,EA
00001AD5: B8                 RET     
00001AD6: 70 6A 15 98        MOV     B,($9815)
00001ADA: 5F 04              BIT     7,VV:04
00001ADC: B8                 RET     
00001ADD: 74 3A 3A           LTI     B,$3A
00001AE0: 74 3A 40           LTI     B,$40
00001AE3: B8                 RET     
00001AE4: 74 62 3A           SUI     B,$3A
00001AE7: 40 C2 1A           CALL    $1AC2
00001AEA: 2B                 LDAX    (HL)
00001AEB: 67 FF              NEI     A,$FF
00001AED: CA                 JR      $1AF8
00001AEE: 05 09 7F           ANIW    VV:09,$7F
00001AF1: 77 00              EQI     A,$00
00001AF3: B9                 RETS    
00001AF4: 71 15 20           MVIW    VV:15,$20
00001AF7: B8                 RET     
00001AF8: 05 08 FE           ANIW    VV:08,$FE
00001AFB: 55 04 08           OFFIW   VV:04,$08
00001AFE: 15 08 01           ORIW    VV:08,$01
00001B01: B8                 RET     
00001B02: 15 05 04           ORIW    VV:05,$04
00001B05: 70 3F 39 99        LHLD    $9939
00001B09: 44 79 9A           LXI     EA,$9A79
00001B0C: 74 BF              DLT     EA,HL
00001B0E: 4E A8              JRE     $1BB8
00001B10: 40 0C 1F           CALL    $1F0C
00001B13: 5F 06              BIT     7,VV:06
00001B15: C9                 JR      $1B1F
00001B16: 05 06 EF           ANIW    VV:06,$EF
00001B19: 5D 06              BIT     5,VV:06
00001B1B: C3                 JR      $1B1F
00001B1C: 15 06 10           ORIW    VV:06,$10
00001B1F: 40 4E 30           CALL    $304E
00001B22: 40 AE 1F           CALL    $1FAE
00001B25: 40 BC 1B           CALL    $1BBC
00001B28: 05 10 AF           ANIW    VV:10,$AF
00001B2B: 15 10 01           ORIW    VV:10,$01
00001B2E: 71 2A 10           MVIW    VV:2A,$10
00001B31: 71 2B 00           MVIW    VV:2B,$00
00001B34: 8C                 CALT    ($0098)
00001B35: 4E 62              JRE     $1B99
00001B37: 40 68 2B           CALL    $2B68
00001B3A: 40 13 2C           CALL    $2C13
00001B3D: 40 D5 7B           CALL    $7BD5
00001B40: 15 13 02           ORIW    VV:13,$02
00001B43: 40 D9 1E           CALL    $1ED9
00001B46: 05 10 FE           ANIW    VV:10,$FE
00001B49: 5B 11              BIT     3,VV:11
00001B4B: D4                 JR      $1B60
00001B4C: 15 10 40           ORIW    VV:10,$40
00001B4F: 71 2A 20           MVIW    VV:2A,$20
00001B52: 71 2B 00           MVIW    VV:2B,$00
00001B55: 8C                 CALT    ($0098)
00001B56: C9                 JR      $1B60
00001B57: 14 01 00           LXI     BC,$0001
00001B5A: 40 A6 2E           CALL    $2EA6
00001B5D: 40 D9 1E           CALL    $1ED9
00001B60: 5C 11              BIT     4,VV:11
00001B62: 4E 35              JRE     $1B99
00001B64: 15 10 10           ORIW    VV:10,$10
00001B67: 05 10 BF           ANIW    VV:10,$BF
00001B6A: 71 2A 00           MVIW    VV:2A,$00
00001B6D: 71 2B 10           MVIW    VV:2B,$10
00001B70: 8C                 CALT    ($0098)
00001B71: 4E 26              JRE     $1B99
00001B73: 14 0C 00           LXI     BC,$000C
00001B76: 75 26 00           EQIW    VV:26,$00
00001B79: 14 0B 00           LXI     BC,$000B
00001B7C: 40 A6 2E           CALL    $2EA6
00001B7F: 40 D9 1E           CALL    $1ED9
00001B82: 5B 11              BIT     3,VV:11
00001B84: D4                 JR      $1B99
00001B85: 15 10 40           ORIW    VV:10,$40
00001B88: 71 2A 20           MVIW    VV:2A,$20
00001B8B: 71 2B 10           MVIW    VV:2B,$10
00001B8E: 8C                 CALT    ($0098)
00001B8F: C9                 JR      $1B99
00001B90: 14 01 00           LXI     BC,$0001
00001B93: 40 A6 2E           CALL    $2EA6
00001B96: 40 D9 1E           CALL    $1ED9
00001B99: 55 05 08           OFFIW   VV:05,$08
00001B9C: D2                 JR      $1BAF
00001B9D: 55 05 30           OFFIW   VV:05,$30
00001BA0: 5A 05              BIT     2,VV:05
00001BA2: D1                 JR      $1BB4
00001BA3: 70 3F 01 99        LHLD    $9901
00001BA7: A7                 DMOV    EA,HL
00001BA8: 70 3F 03 99        LHLD    $9903
00001BAC: 74 EF              DNE     EA,HL
00001BAE: C5                 JR      $1BB4
00001BAF: 70 3F 3D 99        LHLD    $993D
00001BB3: 85                 CALT    ($008A)
00001BB4: 9D                 CALT    ($00BA)
00001BB5: 15 06 10           ORIW    VV:06,$10
00001BB8: 05 05 FB           ANIW    VV:05,$FB
00001BBB: B8                 RET     
00001BBC: 05 05 F7           ANIW    VV:05,$F7
00001BBF: 05 11 FE           ANIW    VV:11,$FE
00001BC2: 55 05 30           OFFIW   VV:05,$30
00001BC5: 4E AE              JRE     $1C75
00001BC7: 5F 05              BIT     7,VV:05
00001BC9: B8                 RET     
00001BCA: 55 05 02           OFFIW   VV:05,$02
00001BCD: B8                 RET     
00001BCE: 5B 03              BIT     3,VV:03
00001BD0: 65 33 00           NEIW    VV:33,$00
00001BD3: B8                 RET     
00001BD4: 05 05 BF           ANIW    VV:05,$BF
00001BD7: 55 11 04           OFFIW   VV:11,$04
00001BDA: DE                 JR      $1BF9
00001BDB: 40 79 1D           CALL    $1D79
00001BDE: 48 1A              SKN     CY
00001BE0: DF                 JR      $1C00
00001BE1: 48 A4              DSLL    EA
00001BE3: B5                 DMOV    BC,EA
00001BE4: 70 3F 3D 99        LHLD    $993D
00001BE8: A7                 DMOV    EA,HL
00001BE9: 70 3F 03 99        LHLD    $9903
00001BED: 74 E7              DSUB    EA,HL
00001BEF: 74 B5              DSUBNB  EA,BC
00001BF1: B8                 RET     
00001BF2: 12                 INX     BC
00001BF3: 74 B5              DSUBNB  EA,BC
00001BF5: B8                 RET     
00001BF6: 15 05 40           ORIW    VV:05,$40
00001BF9: 40 2A 1C           CALL    $1C2A
00001BFC: 65 33 00           NEIW    VV:33,$00
00001BFF: B8                 RET     
00001C00: 40 79 1D           CALL    $1D79
00001C03: 70 3F 47 99        LHLD    $9947
00001C07: 74 C7              DADD    EA,HL
00001C09: 01 25              LDAW    VV:25
00001C0B: 48 3D              DIV     A
00001C0D: B4                 PUSH    EA
00001C0E: 70 3F 3D 99        LHLD    $993D
00001C12: A7                 DMOV    EA,HL
00001C13: 70 61              ESUB    EA,A
00001C15: B7                 DMOV    HL,EA
00001C16: 70 3E 01 99        SHLD    $9901
00001C1A: A4                 POP     EA
00001C1B: 01 33              LDAW    VV:33
00001C1D: 48 3D              DIV     A
00001C1F: B6                 DMOV    DE,EA
00001C20: 70 2E 53 99        SDED    $9953
00001C24: 63 34              STAW    VV:34
00001C26: 15 05 08           ORIW    VV:05,$08
00001C29: B8                 RET     
00001C2A: 70 3F 39 99        LHLD    $9939
00001C2E: 70 3E 51 99        SHLD    $9951
00001C32: 33                 DCX     HL
00001C33: 33                 DCX     HL
00001C34: 33                 DCX     HL
00001C35: 2B                 LDAX    (HL)
00001C36: 48 8F 01           LDEAX   (HL+$01)
00001C39: B5                 DMOV    BC,EA
00001C3A: 40 C9 22           CALL    $22C9
00001C3D: B5                 DMOV    BC,EA
00001C3E: 24 01 99           LXI     DE,$9901
00001C41: 48 82              LDEAX   (DE)
00001C43: 74 E5              DSUB    EA,BC
00001C45: 48 92              STEAX   (DE)
00001C47: 2B                 LDAX    (HL)
00001C48: 67 20              NEI     A,$20
00001C4A: C9                 JR      $1C54
00001C4B: 55 05 40           OFFIW   VV:05,$40
00001C4E: D5                 JR      $1C64
00001C4F: 15 11 01           ORIW    VV:11,$01
00001C52: 4F DE              JRE     $1C32
00001C54: 15 05 40           ORIW    VV:05,$40
00001C57: 24 47 99           LXI     DE,$9947
00001C5A: 48 82              LDEAX   (DE)
00001C5C: 74 E5              DSUB    EA,BC
00001C5E: 48 92              STEAX   (DE)
00001C60: 30 33              DCRW    VV:33
00001C62: 4F CE              JRE     $1C32
00001C64: 32                 INX     HL
00001C65: 32                 INX     HL
00001C66: 32                 INX     HL
00001C67: 70 3E 39 99        SHLD    $9939
00001C6B: 24 01 99           LXI     DE,$9901
00001C6E: 48 82              LDEAX   (DE)
00001C70: 74 C5              DADD    EA,BC
00001C72: 48 92              STEAX   (DE)
00001C74: B8                 RET     
00001C75: 5A 05              BIT     2,VV:05
00001C77: B8                 RET     
00001C78: 40 79 1D           CALL    $1D79
00001C7B: 5D 05              BIT     5,VV:05
00001C7D: 48 A0              DSLR    EA
00001C7F: B6                 DMOV    DE,EA
00001C80: 34 03 99           LXI     HL,$9903
00001C83: 48 83              LDEAX   (HL)
00001C85: 74 C6              DADD    EA,DE
00001C87: 48 93              STEAX   (HL)
00001C89: 34 01 99           LXI     HL,$9901
00001C8C: 48 83              LDEAX   (HL)
00001C8E: 74 C6              DADD    EA,DE
00001C90: 48 93              STEAX   (HL)
00001C92: B8                 RET     
00001C93: 34 33 98           LXI     HL,$9833
00001C96: 48 85              LDEAX   (HL++)
00001C98: 48 93              STEAX   (HL)
00001C9A: 40 B1 1C           CALL    $1CB1
00001C9D: B8                 RET     
00001C9E: 40 DC 1C           CALL    $1CDC
00001CA1: 55 07 40           OFFIW   VV:07,$40
00001CA4: CB                 JR      $1CB0
00001CA5: 6A 48              MVI     B,$48
00001CA7: 34 0D 99           LXI     HL,$990D
00001CAA: 48 83              LDEAX   (HL)
00001CAC: 70 42              EADD    EA,B
00001CAE: 48 93              STEAX   (HL)
00001CB0: B9                 RETS    
00001CB1: 70 1F 03 99        LBCD    $9903
00001CB5: 34 79 9A           LXI     HL,$9A79
00001CB8: 70 2F 39 99        LDED    $9939
00001CBC: 70 1E 0B 99        SBCD    $990B
00001CC0: 70 3E 33 99        SHLD    $9933
00001CC4: A7                 DMOV    EA,HL
00001CC5: 74 BE              DLT     EA,DE
00001CC7: B8                 RET     
00001CC8: 40 00 1D           CALL    $1D00
00001CCB: B9                 RETS    
00001CCC: B2                 PUSH    DE
00001CCD: 40 3E 1D           CALL    $1D3E
00001CD0: A2                 POP     DE
00001CD1: 70 1F 0B 99        LBCD    $990B
00001CD5: 74 C5              DADD    EA,BC
00001CD7: B5                 DMOV    BC,EA
00001CD8: 32                 INX     HL
00001CD9: 32                 INX     HL
00001CDA: 32                 INX     HL
00001CDB: E0                 JR      $1CBC
00001CDC: 70 1F 01 99        LBCD    $9901
00001CE0: 70 3F 39 99        LHLD    $9939
00001CE4: 70 1E 0D 99        SBCD    $990D
00001CE8: 70 3E 35 99        SHLD    $9935
00001CEC: 33                 DCX     HL
00001CED: 33                 DCX     HL
00001CEE: 33                 DCX     HL
00001CEF: 40 00 1D           CALL    $1D00
00001CF2: B8                 RET     
00001CF3: 40 51 1D           CALL    $1D51
00001CF6: 70 1F 0D 99        LBCD    $990D
00001CFA: B6                 DMOV    DE,EA
00001CFB: A5                 DMOV    EA,BC
00001CFC: 74 E6              DSUB    EA,DE
00001CFE: B5                 DMOV    BC,EA
00001CFF: E4                 JR      $1CE4
00001D00: 70 1F 2A 98        LBCD    $982A
00001D04: 48 8F 01           LDEAX   (HL+$01)
00001D07: 58 10              BIT     0,VV:10
00001D09: C4                 JR      $1D0E
00001D0A: 74 DD              DOFF    EA,BC
00001D0C: B8                 RET     
00001D0D: C5                 JR      $1D13
00001D0E: 74 8D              DAN     EA,BC
00001D10: 74 FD              DEQ     EA,BC
00001D12: B9                 RETS    
00001D13: AF 02              LDAX    (HL+$02)
00001D15: 57 01              OFFI    A,$01
00001D17: B9                 RETS    
00001D18: 2B                 LDAX    (HL)
00001D19: 77 20              EQI     A,$20
00001D1B: B8                 RET     
00001D1C: 09                 MOV     A,EAL
00001D1D: 57 10              OFFI    A,$10
00001D1F: B8                 RET     
00001D20: B9                 RETS    
00001D21: 5B 05              BIT     3,VV:05
00001D23: B8                 RET     
00001D24: AF 02              LDAX    (HL+$02)
00001D26: 57 01              OFFI    A,$01
00001D28: B8                 RET     
00001D29: 2B                 LDAX    (HL)
00001D2A: 77 20              EQI     A,$20
00001D2C: B8                 RET     
00001D2D: 70 2F 45 99        LDED    $9945
00001D31: A6                 DMOV    EA,DE
00001D32: 74 BF              DLT     EA,HL
00001D34: B8                 RET     
00001D35: B9                 RETS    
00001D36: 2B                 LDAX    (HL)
00001D37: 48 8F 01           LDEAX   (HL+$01)
00001D3A: B5                 DMOV    BC,EA
00001D3B: 54 C9 22           JMP     $22C9
00001D3E: 40 21 1D           CALL    $1D21
00001D41: F4                 JR      $1D36
00001D42: 70 1F 53 99        LBCD    $9953
00001D46: 70 2F 36 98        LDED    $9836
00001D4A: 44 00 00           LXI     EA,$0000
00001D4D: 74 EE              DNE     EA,DE
00001D4F: DB                 JR      $1D6B
00001D50: D4                 JR      $1D65
00001D51: 40 21 1D           CALL    $1D21
00001D54: E1                 JR      $1D36
00001D55: 70 1F 53 99        LBCD    $9953
00001D59: 70 2F 35 98        LDED    $9835
00001D5D: A6                 DMOV    EA,DE
00001D5E: 70 2F 36 98        LDED    $9836
00001D62: 74 FE              DEQ     EA,DE
00001D64: C6                 JR      $1D6B
00001D65: 23                 DCX     DE
00001D66: 70 2E 36 98        SDED    $9836
00001D6A: 12                 INX     BC
00001D6B: 01 25              LDAW    VV:25
00001D6D: A5                 DMOV    EA,BC
00001D6E: 84                 CALT    ($0088)
00001D6F: 70 2F 35 98        LDED    $9835
00001D73: 23                 DCX     DE
00001D74: 70 2E 35 98        SDED    $9835
00001D78: B8                 RET     
00001D79: 70 3F 3D 99        LHLD    $993D
00001D7D: A7                 DMOV    EA,HL
00001D7E: 70 3F 01 99        LHLD    $9901
00001D82: 74 E7              DSUB    EA,HL
00001D84: B8                 RET     
00001D85: 70 3F 25 99        LHLD    $9925
00001D89: 70 3E 05 C0        SHLD    $C005
00001D8D: 64 83 07           MVI     EOM,$07
00001D90: 4C E1              MOV     A,CR1
00001D92: 44 00 00           LXI     EA,$0000
00001D95: 19                 MOV     EAL,A
00001D96: 48 A4              DSLL    EA
00001D98: 37 DB              LTI     A,$DB
00001D9A: C7                 JR      $1DA2
00001D9B: 70 41              EADD    EA,A
00001D9D: B5                 DMOV    BC,EA
00001D9E: 44 34 04           LXI     EA,$0434
00001DA1: C9                 JR      $1DAB
00001DA2: 37 FB              LTI     A,$FB
00001DA4: 54 67 78           JMP     $7867
00001DA7: B5                 DMOV    BC,EA
00001DA8: 44 5E 03           LXI     EA,$035E
00001DAB: 74 E5              DSUB    EA,BC
00001DAD: B5                 DMOV    BC,EA
00001DAE: 48 C0              DMOV    EA,ECNT
00001DB0: 74 C5              DADD    EA,BC
00001DB2: 70 1F 23 99        LBCD    $9923
00001DB6: 74 BD              DLT     EA,BC
00001DB8: 74 E5              DSUB    EA,BC
00001DBA: 48 D2              DMOV    ETM0,EA
00001DBC: 5D 10              BIT     5,VV:10
00001DBE: CD                 JR      $1DCC
00001DBF: 70 3F 23 99        LHLD    $9923
00001DC3: A7                 DMOV    EA,HL
00001DC4: 48 D3              DMOV    ETM1,EA
00001DC6: 48 46              SKIT    FE1
00001DC8: 00                 NOP     
00001DC9: 05 10 DF           ANIW    VV:10,$DF
00001DCC: 11                 EXX     
00001DCD: 10                 EXA     
00001DCE: AA                 EI      
00001DCF: B4                 PUSH    EA
00001DD0: B3                 PUSH    HL
00001DD1: B0                 PUSH    VA
00001DD2: B1                 PUSH    BC
00001DD3: B2                 PUSH    DE
00001DD4: 40 22 23           CALL    $2322
00001DD7: 40 46 1E           CALL    $1E46
00001DDA: 40 5E 1E           CALL    $1E5E
00001DDD: A2                 POP     DE
00001DDE: A1                 POP     BC
00001DDF: A0                 POP     VA
00001DE0: A3                 POP     HL
00001DE1: A4                 POP     EA
00001DE2: 62                 RETI    
00001DE3: 70 3F 25 99        LHLD    $9925
00001DE7: 70 3E 05 C0        SHLD    $C005
00001DEB: 64 83 07           MVI     EOM,$07
00001DEE: 4C E1              MOV     A,CR1
00001DF0: 44 00 00           LXI     EA,$0000
00001DF3: 19                 MOV     EAL,A
00001DF4: 48 A4              DSLL    EA
00001DF6: 37 DB              LTI     A,$DB
00001DF8: CC                 JR      $1E05
00001DF9: 27 D0              GTI     A,$D0
00001DFB: 44 A0 01           LXI     EA,$01A0
00001DFE: 70 41              EADD    EA,A
00001E00: B5                 DMOV    BC,EA
00001E01: 44 10 04           LXI     EA,$0410
00001E04: C9                 JR      $1E0E
00001E05: 37 FB              LTI     A,$FB
00001E07: 54 67 78           JMP     $7867
00001E0A: B5                 DMOV    BC,EA
00001E0B: 44 39 03           LXI     EA,$0339
00001E0E: 74 E5              DSUB    EA,BC
00001E10: B5                 DMOV    BC,EA
00001E11: 48 C0              DMOV    EA,ECNT
00001E13: 74 C5              DADD    EA,BC
00001E15: 70 1F 23 99        LBCD    $9923
00001E19: 74 BD              DLT     EA,BC
00001E1B: 74 E5              DSUB    EA,BC
00001E1D: 48 D2              DMOV    ETM0,EA
00001E1F: 5D 10              BIT     5,VV:10
00001E21: CD                 JR      $1E2F
00001E22: 70 3F 23 99        LHLD    $9923
00001E26: A7                 DMOV    EA,HL
00001E27: 48 D3              DMOV    ETM1,EA
00001E29: 48 46              SKIT    FE1
00001E2B: 00                 NOP     
00001E2C: 05 10 DF           ANIW    VV:10,$DF
00001E2F: 11                 EXX     
00001E30: 10                 EXA     
00001E31: AA                 EI      
00001E32: B4                 PUSH    EA
00001E33: B3                 PUSH    HL
00001E34: B0                 PUSH    VA
00001E35: B1                 PUSH    BC
00001E36: B2                 PUSH    DE
00001E37: 40 22 23           CALL    $2322
00001E3A: 40 46 1E           CALL    $1E46
00001E3D: 40 5E 1E           CALL    $1E5E
00001E40: A2                 POP     DE
00001E41: A1                 POP     BC
00001E42: A0                 POP     VA
00001E43: A3                 POP     HL
00001E44: A4                 POP     EA
00001E45: 62                 RETI    
00001E46: 64 1F 40           ORI     MKL,$40
00001E49: 48 45              SKIT    FE0
00001E4B: 00                 NOP     
00001E4C: 64 0F DF           ANI     MKL,$DF
00001E4F: 34 78 1E           LXI     HL,$1E78
00001E52: 70 3E 1B 98        SHLD    $981B
00001E56: 34 04 7A           LXI     HL,$7A04
00001E59: 70 3E 18 98        SHLD    $9818
00001E5D: B8                 RET     
00001E5E: 55 10 02           OFFIW   VV:10,$02
00001E61: 30 29              DCRW    VV:29
00001E63: B8                 RET     
00001E64: 71 29 02           MVIW    VV:29,$02
00001E67: 70 3F 23 99        LHLD    $9923
00001E6B: A7                 DMOV    EA,HL
00001E6C: 5F 12              BIT     7,VV:12
00001E6E: C5                 JR      $1E74
00001E6F: A8                 INX     EA
00001E70: 5E 12              BIT     6,VV:12
00001E72: A8                 INX     EA
00001E73: C1                 JR      $1E75
00001E74: A9                 DCX     EA
00001E75: 48 D3              DMOV    ETM1,EA
00001E77: B8                 RET     
00001E78: 64 1F 20           ORI     MKL,$20
00001E7B: 64 83 99           MVI     EOM,$99
00001E7E: 34 00 00           LXI     HL,$0000
00001E81: 70 3E 05 C0        SHLD    $C005
00001E85: 05 10 7D           ANIW    VV:10,$7D
00001E88: 05 0F FD           ANIW    VV:0F,$FD
00001E8B: 11                 EXX     
00001E8C: 10                 EXA     
00001E8D: AA                 EI      
00001E8E: 62                 RETI    
00001E8F: 70 1F 21 99        LBCD    $9921
00001E93: A5                 DMOV    EA,BC
00001E94: 70 1F 27 99        LBCD    $9927
00001E98: 74 C5              DADD    EA,BC
00001E9A: 48 D3              DMOV    ETM1,EA
00001E9C: A8                 INX     EA
00001E9D: A8                 INX     EA
00001E9E: 48 D2              DMOV    ETM0,EA
00001EA0: 55 06 10           OFFIW   VV:06,$10
00001EA3: CF                 JR      $1EB3
00001EA4: 34 85 1D           LXI     HL,$1D85
00001EA7: 70 3E 1B 98        SHLD    $981B
00001EAB: 34 5A 7A           LXI     HL,$7A5A
00001EAE: 70 3E 18 98        SHLD    $9818
00001EB2: CE                 JR      $1EC1
00001EB3: 34 E3 1D           LXI     HL,$1DE3
00001EB6: 70 3E 1B 98        SHLD    $981B
00001EBA: 34 5A 7A           LXI     HL,$7A5A
00001EBD: 70 3E 18 98        SHLD    $9818
00001EC1: 69 0C              MVI     A,$0C
00001EC3: 4D CC              MOV     ETMM,A
00001EC5: 15 10 20           ORIW    VV:10,$20
00001EC8: 48 46              SKIT    FE1
00001ECA: 00                 NOP     
00001ECB: 48 45              SKIT    FE0
00001ECD: 00                 NOP     
00001ECE: 40 22 23           CALL    $2322
00001ED1: 00                 NOP     
00001ED2: 64 0F BF           ANI     MKL,$BF
00001ED5: 15 10 80           ORIW    VV:10,$80
00001ED8: B8                 RET     
00001ED9: 40 11 1F           CALL    $1F11
00001EDC: 34 00 90           LXI     HL,$9000
00001EDF: 70 3E 5D 99        SHLD    $995D
00001EE3: 70 3E 5F 99        SHLD    $995F
00001EE7: 34 00 00           LXI     HL,$0000
00001EEA: 70 3E 25 99        SHLD    $9925
00001EEE: 55 00 04           OFFIW   VV:00,$04
00001EF1: 40 D2 2A           CALL    $2AD2
00001EF4: 59 09              BIT     1,VV:09
00001EF6: 69 00              MVI     A,$00
00001EF8: 69 1E              MVI     A,$1E
00001EFA: 63 3E              STAW    VV:3E
00001EFC: 92                 CALT    ($00A4)
00001EFD: 40 2D 1F           CALL    $1F2D
00001F00: 40 4C 23           CALL    $234C
00001F03: C1                 JR      $1F05
00001F04: FB                 JR      $1F00
00001F05: 5A 00              BIT     2,VV:00
00001F07: 40 D2 2A           CALL    $2AD2
00001F0A: B8                 RET     
00001F0B: 8D                 CALT    ($009A)
00001F0C: 55 0F 02           OFFIW   VV:0F,$02
00001F0F: FB                 JR      $1F0B
00001F10: B8                 RET     
00001F11: 70 3F 33 99        LHLD    $9933
00001F15: 5A 00              BIT     2,VV:00
00001F17: D0                 JR      $1F28
00001F18: 70 2F 35 99        LDED    $9935
00001F1C: A6                 DMOV    EA,DE
00001F1D: 33                 DCX     HL
00001F1E: 33                 DCX     HL
00001F1F: 33                 DCX     HL
00001F20: 70 3E 35 99        SHLD    $9935
00001F24: B7                 DMOV    HL,EA
00001F25: 33                 DCX     HL
00001F26: 33                 DCX     HL
00001F27: 33                 DCX     HL
00001F28: 70 3E 37 99        SHLD    $9937
00001F2C: B8                 RET     
00001F2D: 40 75 1F           CALL    $1F75
00001F30: 5A 00              BIT     2,VV:00
00001F32: D6                 JR      $1F49
00001F33: 70 3F 0D 99        LHLD    $990D
00001F37: A7                 DMOV    EA,HL
00001F38: 70 61              ESUB    EA,A
00001F3A: 69 18              MVI     A,$18
00001F3C: 48 3D              DIV     A
00001F3E: 44 18 00           LXI     EA,$0018
00001F41: 77 00              EQI     A,$00
00001F43: 48 A4              DSLL    EA
00001F45: 70 61              ESUB    EA,A
00001F47: B5                 DMOV    BC,EA
00001F48: CE                 JR      $1F57
00001F49: 70 3F 0B 99        LHLD    $990B
00001F4D: A7                 DMOV    EA,HL
00001F4E: 70 41              EADD    EA,A
00001F50: 6B 18              MVI     C,$18
00001F52: 48 3F              DIV     C
00001F54: 74 43 18           ADI     C,$18
00001F57: 40 93 1F           CALL    $1F93
00001F5A: 48 2F              MUL     C
00001F5C: 34 27 99           LXI     HL,$9927
00001F5F: 48 93              STEAX   (HL)
00001F61: 71 29 02           MVIW    VV:29,$02
00001F64: 5F 12              BIT     7,VV:12
00001F66: C7                 JR      $1F6E
00001F67: 55 12 20           OFFIW   VV:12,$20
00001F6A: 15 10 02           ORIW    VV:10,$02
00001F6D: C6                 JR      $1F74
00001F6E: 55 07 40           OFFIW   VV:07,$40
00001F71: 15 10 02           ORIW    VV:10,$02
00001F74: B8                 RET     
00001F75: 5A 00              BIT     2,VV:00
00001F77: 34 89 1F           LXI     HL,$1F89
00001F7A: 34 50 98           LXI     HL,$9850
00001F7D: 70 69 20 98        MOV     A,($9820)
00001F81: AC                 LDAX    (HL+A)
00001F82: 55 00 04           OFFIW   VV:00,$04
00001F85: 74 C0 25           ADDW    VV:25
00001F88: B8                 RET     
00001F89: 0A                 MOV     A,B
00001F8A: 01 10              LDAW    VV:10
00001F8C: 0A                 MOV     A,B
00001F8D: 01 2D              LDAW    VV:2D
00001F8F: 20 39              INRW    VV:39
00001F91: 2D                 LDAX    (HL+)
00001F92: 20 34              INRW    VV:34
00001F94: 9A                 CALT    ($00B4)
00001F95: 1F                 MOV     L,A
00001F96: 01 20              LDAW    VV:20
00001F98: AC                 LDAX    (HL+A)
00001F99: B8                 RET     
00001F9A: 39                 STAX    (BC)
00001F9B: 73                 illegal 
00001F9C: 24 2B 56           LXI     DE,$562B
00001F9F: 40 4C 23           CALL    $234C
00001FA2: B9                 RETS    
00001FA3: 55 40 40           OFFIW   VV:40,$40
00001FA6: B9                 RETS    
00001FA7: 30 3E              DCRW    VV:3E
00001FA9: B8                 RET     
00001FAA: 71 3E 00           MVIW    VV:3E,$00
00001FAD: B9                 RETS    
00001FAE: 55 06 10           OFFIW   VV:06,$10
00001FB1: 54 EA 1F           JMP     $1FEA
00001FB4: 59 09              BIT     1,VV:09
00001FB6: 55 09 04           OFFIW   VV:09,$04
00001FB9: CF                 JR      $1FC9
00001FBA: 55 07 40           OFFIW   VV:07,$40
00001FBD: CE                 JR      $1FCC
00001FBE: 5D 07              BIT     5,VV:07
00001FC0: 55 08 04           OFFIW   VV:08,$04
00001FC3: 34 0B 20           LXI     HL,$200B
00001FC6: 34 07 20           LXI     HL,$2007
00001FC9: 34 0F 20           LXI     HL,$200F
00001FCC: 34 13 20           LXI     HL,$2013
00001FCF: 2D                 LDAX    (HL+)
00001FD0: B0                 PUSH    VA
00001FD1: 07 7F              ANI     A,$7F
00001FD3: 63 20              STAW    VV:20
00001FD5: 2D                 LDAX    (HL+)
00001FD6: 63 25              STAW    VV:25
00001FD8: 48 83              LDEAX   (HL)
00001FDA: 34 23 99           LXI     HL,$9923
00001FDD: 48 93              STEAX   (HL)
00001FDF: A0                 POP     VA
00001FE0: 47 80              ONI     A,$80
00001FE2: 34 05 C0           LXI     HL,$C005
00001FE5: 34 06 C0           LXI     HL,$C006
00001FE8: 2B                 LDAX    (HL)
00001FE9: B8                 RET     
00001FEA: 59 09              BIT     1,VV:09
00001FEC: 55 09 04           OFFIW   VV:09,$04
00001FEF: D1                 JR      $2001
00001FF0: 55 07 40           OFFIW   VV:07,$40
00001FF3: 54 CC 1F           JMP     $1FCC
00001FF6: 5D 07              BIT     5,VV:07
00001FF8: 55 08 04           OFFIW   VV:08,$04
00001FFB: 34 17 20           LXI     HL,$2017
00001FFE: 34 1B 20           LXI     HL,$201B
00002001: 34 1F 20           LXI     HL,$201F
00002004: 54 CF 1F           JMP     $1FCF
00002007: 80                 CALT    ($0080)
00002008: 0C                 MOV     A,D
00002009: B0                 PUSH    VA
0000200A: 02                 INX     SP
0000200B: 01 0C              LDAW    VV:0C
0000200D: 60 05              illegal 
0000200F: 81                 CALT    ($0082)
00002010: 06                 illegal 
00002011: B0                 PUSH    VA
00002012: 02                 INX     SP
00002013: 82                 CALT    ($0084)
00002014: 10                 EXA     
00002015: 40 02 04           CALL    $0402
00002018: 0C                 MOV     A,D
00002019: 00                 NOP     
0000201A: 04 83 0C           LXI     SP,$0C83
0000201D: 00                 NOP     
0000201E: 02                 INX     SP
0000201F: 84                 CALT    ($0088)
00002020: 06                 illegal 
00002021: 00                 NOP     
00002022: 02                 INX     SP
00002023: 34 11 99           LXI     HL,$9911
00002026: 44 00 80           LXI     EA,$8000
00002029: 48 95              STEAX   (HL++)
0000202B: 48 95              STEAX   (HL++)
0000202D: 44 00 10           LXI     EA,$1000
00002030: 48 93              STEAX   (HL)
00002032: B8                 RET     
00002033: 45 11 80           ONIW    VV:11,$80
00002036: B8                 RET     
00002037: 34 01 C0           LXI     HL,$C001
0000203A: 2B                 LDAX    (HL)
0000203B: 70 FB              EQAX    (HL)
0000203D: FC                 JR      $203A
0000203E: 6B 4E              MVI     C,$4E
00002040: 47 01              ONI     A,$01
00002042: 74 0B FB           ANI     C,$FB
00002045: 47 10              ONI     A,$10
00002047: 74 1B 10           ORI     C,$10
0000204A: 47 08              ONI     A,$08
0000204C: 74 1B 20           ORI     C,$20
0000204F: 07 66              ANI     A,$66
00002051: 48 21              SLR     A
00002053: 1A                 MOV     B,A
00002054: 07 03              ANI     A,$03
00002056: 48 22              SLR     B
00002058: 48 22              SLR     B
0000205A: 60 9A              ORA     A,B
0000205C: 27 03              GTI     A,$03
0000205E: 74 1B 01           ORI     C,$01
00002061: 34 79 20           LXI     HL,$2079
00002064: AC                 LDAX    (HL+A)
00002065: 4D DA              MOV     TM0,A
00002067: 0B                 MOV     A,C
00002068: 4D CA              MOV     SML,A
0000206A: 69 0C              MVI     A,$0C
0000206C: 4D C9              MOV     SMH,A
0000206E: 69 93              MVI     A,$93
00002070: 4D CD              MOV     TMM,A
00002072: 64 8D EC           ANI     TMM,$EC
00002075: 48 4B              SKIT    ER
00002077: 00                 NOP     
00002078: B8                 RET     
00002079: 80                 CALT    ($0080)
0000207A: 57 47              OFFI    A,$47
0000207C: 40 C0 80           CALL    $80C0
0000207F: 40 20 15           CALL    $1520
00002082: 10                 EXA     
00002083: 08                 MOV     A,EAH
00002084: 04 80 20           LXI     SP,$2080
00002087: 10                 EXA     
00002088: 04 5F 11           LXI     SP,$115F
0000208B: 5E 14              BIT     6,VV:14
0000208D: B8                 RET     
0000208E: 55 11 02           OFFIW   VV:11,$02
00002091: B8                 RET     
00002092: 34 02 C0           LXI     HL,$C002
00002095: 2B                 LDAX    (HL)
00002096: 47 80              ONI     A,$80
00002098: B8                 RET     
00002099: BA                 DI      
0000209A: 48 85              LDEAX   (HL++)
0000209C: 2B                 LDAX    (HL)
0000209D: 17 20              ORI     A,$20
0000209F: 3B                 STAX    (HL)
000020A0: 00                 NOP     
000020A1: 00                 NOP     
000020A2: 00                 NOP     
000020A3: 07 FE              ANI     A,$FE
000020A5: 3B                 STAX    (HL)
000020A6: 00                 NOP     
000020A7: 00                 NOP     
000020A8: 07 DF              ANI     A,$DF
000020AA: AA                 EI      
000020AB: 3B                 STAX    (HL)
000020AC: 70 2F 11 99        LDED    $9911
000020B0: 08                 MOV     A,EAH
000020B1: 3C                 STAX    (DE+)
000020B2: 8F                 CALT    ($009E)
000020B3: 70 2E 11 99        SDED    $9911
000020B7: BA                 DI      
000020B8: 24 15 99           LXI     DE,$9915
000020BB: 48 82              LDEAX   (DE)
000020BD: A9                 DCX     EA
000020BE: 48 92              STEAX   (DE)
000020C0: 24 00 00           LXI     DE,$0000
000020C3: 74 FE              DEQ     EA,DE
000020C5: C6                 JR      $20CC
000020C6: 15 11 02           ORIW    VV:11,$02
000020C9: 40 0F 23           CALL    $230F
000020CC: AA                 EI      
000020CD: B8                 RET     
000020CE: B0                 PUSH    VA
000020CF: 4C D9              MOV     A,RXB
000020D1: 64 1E 02           ORI     MKH,$02
000020D4: AA                 EI      
000020D5: 59 11              BIT     1,VV:11
000020D7: 48 6B              SKNIT   ER
000020D9: 4E 32              JRE     $210D
000020DB: B4                 PUSH    EA
000020DC: B2                 PUSH    DE
000020DD: B3                 PUSH    HL
000020DE: 70 2F 11 99        LDED    $9911
000020E2: 3C                 STAX    (DE+)
000020E3: 8F                 CALT    ($009E)
000020E4: 70 2E 11 99        SDED    $9911
000020E8: BA                 DI      
000020E9: 24 15 99           LXI     DE,$9915
000020EC: 48 82              LDEAX   (DE)
000020EE: A9                 DCX     EA
000020EF: 48 92              STEAX   (DE)
000020F1: 34 00 00           LXI     HL,$0000
000020F4: 74 EF              DNE     EA,HL
000020F6: 15 11 02           ORIW    VV:11,$02
000020F9: AA                 EI      
000020FA: 34 00 01           LXI     HL,$0100
000020FD: 74 FF              DEQ     EA,HL
000020FF: CA                 JR      $210A
00002100: 15 11 40           ORIW    VV:11,$40
00002103: 40 0C 23           CALL    $230C
00002106: 69 13              MVI     A,$13
00002108: 4D D8              MOV     TXB,A
0000210A: A3                 POP     HL
0000210B: A2                 POP     DE
0000210C: A4                 POP     EA
0000210D: A0                 POP     VA
0000210E: 64 0E FD           ANI     MKH,$FD
00002111: 62                 RETI    
00002112: 40 A5 0E           CALL    $0EA5
00002115: 8D                 CALT    ($009A)
00002116: 40 27 21           CALL    $2127
00002119: F8                 JR      $2112
0000211A: B8                 RET     
0000211B: 24 15 99           LXI     DE,$9915
0000211E: 48 82              LDEAX   (DE)
00002120: 34 00 10           LXI     HL,$1000
00002123: 74 FF              DEQ     EA,HL
00002125: B8                 RET     
00002126: B9                 RETS    
00002127: 64 1E 02           ORI     MKH,$02
0000212A: 40 1B 21           CALL    $211B
0000212D: C4                 JR      $2132
0000212E: 64 0E FD           ANI     MKH,$FD
00002131: B8                 RET     
00002132: 24 15 99           LXI     DE,$9915
00002135: 48 82              LDEAX   (DE)
00002137: A8                 INX     EA
00002138: 48 92              STEAX   (DE)
0000213A: 05 11 FD           ANIW    VV:11,$FD
0000213D: 5F 11              BIT     7,VV:11
0000213F: 40 08 23           CALL    $2308
00002142: 70 2F 13 99        LDED    $9913
00002146: 2C                 LDAX    (DE+)
00002147: 63 15              STAW    VV:15
00002149: 8F                 CALT    ($009E)
0000214A: 70 2E 13 99        SDED    $9913
0000214E: 64 0E FD           ANI     MKH,$FD
00002151: 5E 11              BIT     6,VV:11
00002153: D5                 JR      $2169
00002154: 24 15 99           LXI     DE,$9915
00002157: 48 82              LDEAX   (DE)
00002159: 34 10 02           LXI     HL,$0210
0000215C: 74 FF              DEQ     EA,HL
0000215E: CA                 JR      $2169
0000215F: 05 11 BF           ANIW    VV:11,$BF
00002162: 69 11              MVI     A,$11
00002164: 4D D8              MOV     TXB,A
00002166: 40 05 23           CALL    $2305
00002169: 40 E9 2F           CALL    $2FE9
0000216C: 01 15              LDAW    VV:15
0000216E: B9                 RETS    
0000216F: 70 3F 01 99        LHLD    $9901
00002173: 70 3E 03 99        SHLD    $9903
00002177: 15 03 08           ORIW    VV:03,$08
0000217A: 05 11 C3           ANIW    VV:11,$C3
0000217D: 34 00 00           LXI     HL,$0000
00002180: 70 3E 47 99        SHLD    $9947
00002184: 71 33 00           MVIW    VV:33,$00
00002187: 34 79 9A           LXI     HL,$9A79
0000218A: 70 3E 45 99        SHLD    $9945
0000218E: 58 11              BIT     0,VV:11
00002190: 4E 5C              JRE     $21EE
00002192: 70 2F 51 99        LDED    $9951
00002196: A6                 DMOV    EA,DE
00002197: 70 2F 39 99        LDED    $9939
0000219B: 22                 INX     DE
0000219C: 22                 INX     DE
0000219D: 22                 INX     DE
0000219E: 74 E6              DSUB    EA,DE
000021A0: 69 03              MVI     A,$03
000021A2: 48 3D              DIV     A
000021A4: B5                 DMOV    BC,EA
000021A5: 34 79 9A           LXI     HL,$9A79
000021A8: 44 00 00           LXI     EA,$0000
000021AB: 4E 2F              JRE     $21DC
000021AD: B1                 PUSH    BC
000021AE: B4                 PUSH    EA
000021AF: 2C                 LDAX    (DE+)
000021B0: 48 84              LDEAX   (DE++)
000021B2: 77 20              EQI     A,$20
000021B4: C4                 JR      $21B9
000021B5: A4                 POP     EA
000021B6: A1                 POP     BC
000021B7: 4E 23              JRE     $21DC
000021B9: 3D                 STAX    (HL+)
000021BA: B0                 PUSH    VA
000021BB: 59 02              BIT     1,VV:02
000021BD: C4                 JR      $21C2
000021BE: 09                 MOV     A,EAL
000021BF: 07 F7              ANI     A,$F7
000021C1: 19                 MOV     EAL,A
000021C2: 48 95              STEAX   (HL++)
000021C4: 05 03 F7           ANIW    VV:03,$F7
000021C7: 08                 MOV     A,EAH
000021C8: 57 10              OFFI    A,$10
000021CA: 15 11 10           ORIW    VV:11,$10
000021CD: 09                 MOV     A,EAL
000021CE: 57 20              OFFI    A,$20
000021D0: 15 11 08           ORIW    VV:11,$08
000021D3: A0                 POP     VA
000021D4: B5                 DMOV    BC,EA
000021D5: 40 C9 22           CALL    $22C9
000021D8: A1                 POP     BC
000021D9: 74 C5              DADD    EA,BC
000021DB: A1                 POP     BC
000021DC: 53                 DCR     C
000021DD: 4F CE              JRE     $21AD
000021DF: 70 2F 05 99        LDED    $9905
000021E3: 70 2E 03 99        SDED    $9903
000021E7: 74 C6              DADD    EA,DE
000021E9: B6                 DMOV    DE,EA
000021EA: 70 2E 01 99        SDED    $9901
000021EE: 70 3E 39 99        SHLD    $9939
000021F2: B8                 RET     
000021F3: 44 00 90           LXI     EA,$9000
000021F6: 74 EE              DNE     EA,DE
000021F8: 24 00 80           LXI     DE,$8000
000021FB: B8                 RET     
000021FC: 44 FF 7F           LXI     EA,$7FFF
000021FF: 74 EE              DNE     EA,DE
00002201: 24 FF 8F           LXI     DE,$8FFF
00002204: B8                 RET     
00002205: 70 1F 39 99        LBCD    $9939
00002209: 44 A9 9D           LXI     EA,$9DA9
0000220C: 74 AD              DGT     EA,BC
0000220E: B8                 RET     
0000220F: B9                 RETS    
00002210: 70 3F 39 99        LHLD    $9939
00002214: 44 79 9A           LXI     EA,$9A79
00002217: 74 BF              DLT     EA,HL
00002219: B9                 RETS    
0000221A: B8                 RET     
0000221B: 40 05 22           CALL    $2205
0000221E: 8B                 CALT    ($0096)
0000221F: 05 03 7F           ANIW    VV:03,$7F
00002222: 34 01 99           LXI     HL,$9901
00002225: 48 83              LDEAX   (HL)
00002227: 70 2F 3B 99        LDED    $993B
0000222B: 74 C6              DADD    EA,DE
0000222D: 48 93              STEAX   (HL)
0000222F: 55 09 10           OFFIW   VV:09,$10
00002232: 15 11 10           ORIW    VV:11,$10
00002235: 55 08 20           OFFIW   VV:08,$20
00002238: 15 11 08           ORIW    VV:11,$08
0000223B: 34 08 98           LXI     HL,$9808
0000223E: 48 83              LDEAX   (HL)
00002240: 70 3F 39 99        LHLD    $9939
00002244: 01 15              LDAW    VV:15
00002246: 55 05 80           OFFIW   VV:05,$80
00002249: 40 54 22           CALL    $2254
0000224C: 3D                 STAX    (HL+)
0000224D: 48 95              STEAX   (HL++)
0000224F: 70 3E 39 99        SHLD    $9939
00002253: B8                 RET     
00002254: 77 20              EQI     A,$20
00002256: D7                 JR      $226E
00002257: 5B 03              BIT     3,VV:03
00002259: C5                 JR      $225F
0000225A: 70 3E 45 99        SHLD    $9945
0000225E: B8                 RET     
0000225F: B4                 PUSH    EA
00002260: B3                 PUSH    HL
00002261: 34 47 99           LXI     HL,$9947
00002264: 48 83              LDEAX   (HL)
00002266: 74 C6              DADD    EA,DE
00002268: 48 93              STEAX   (HL)
0000226A: 20 33              INRW    VV:33
0000226C: A3                 POP     HL
0000226D: A4                 POP     EA
0000226E: 05 03 F7           ANIW    VV:03,$F7
00002271: B8                 RET     
00002272: 70 3F 35 99        LHLD    $9935
00002276: A7                 DMOV    EA,HL
00002277: 70 3F 37 99        LHLD    $9937
0000227B: 74 EF              DNE     EA,HL
0000227D: B8                 RET     
0000227E: 5A 00              BIT     2,VV:00
00002280: C8                 JR      $2289
00002281: 2D                 LDAX    (HL+)
00002282: 48 83              LDEAX   (HL)
00002284: 33                 DCX     HL
00002285: 33                 DCX     HL
00002286: 33                 DCX     HL
00002287: 33                 DCX     HL
00002288: C3                 JR      $228C
00002289: 2D                 LDAX    (HL+)
0000228A: 48 85              LDEAX   (HL++)
0000228C: 70 3E 37 99        SHLD    $9937
00002290: B9                 RETS    
00002291: B4                 PUSH    EA
00002292: 40 05 22           CALL    $2205
00002295: 8B                 CALT    ($0096)
00002296: A4                 POP     EA
00002297: 55 07 40           OFFIW   VV:07,$40
0000229A: 15 11 20           ORIW    VV:11,$20
0000229D: 01 09              LDAW    VV:09
0000229F: 17 01              ORI     A,$01
000022A1: 70 3F 39 99        LHLD    $9939
000022A5: 48 95              STEAX   (HL++)
000022A7: 3D                 STAX    (HL+)
000022A8: 70 3E 39 99        SHLD    $9939
000022AC: 70 3E 45 99        SHLD    $9945
000022B0: 34 01 99           LXI     HL,$9901
000022B3: 48 83              LDEAX   (HL)
000022B5: 70 2F 3B 99        LDED    $993B
000022B9: 74 C6              DADD    EA,DE
000022BB: 48 93              STEAX   (HL)
000022BD: 34 00 00           LXI     HL,$0000
000022C0: 70 3E 33 98        SHLD    $9833
000022C4: 70 3E 47 99        SHLD    $9947
000022C8: B8                 RET     
000022C9: B1                 PUSH    BC
000022CA: 40 E6 22           CALL    $22E6
000022CD: 55 07 40           OFFIW   VV:07,$40
000022D0: C7                 JR      $22D8
000022D1: 74 5A 04           OFFI    B,$04
000022D4: 69 06              MVI     A,$06
000022D6: 69 0C              MVI     A,$0C
000022D8: 69 10              MVI     A,$10
000022DA: 84                 CALT    ($0088)
000022DB: A1                 POP     BC
000022DC: 74 5A 01           OFFI    B,$01
000022DF: B8                 RET     
000022E0: 74 5B 08           OFFI    C,$08
000022E3: 48 A4              DSLL    EA
000022E5: B8                 RET     
000022E6: 74 4A 01           ONI     B,$01
000022E9: C4                 JR      $22EE
000022EA: 19                 MOV     EAL,A
000022EB: 0B                 MOV     A,C
000022EC: 18                 MOV     EAH,A
000022ED: B8                 RET     
000022EE: 55 07 40           OFFIW   VV:07,$40
000022F1: C7                 JR      $22F9
000022F2: 74 5B 80           OFFI    C,$80
000022F5: 69 0A              MVI     A,$0A
000022F7: 69 0C              MVI     A,$0C
000022F9: 69 09              MVI     A,$09
000022FB: 74 5A 04           OFFI    B,$04
000022FE: 46 02              ADI     A,$02
00002300: 44 00 00           LXI     EA,$0000
00002303: 19                 MOV     EAL,A
00002304: B8                 RET     
00002305: 69 FE              MVI     A,$FE
00002307: 8A                 CALT    ($0094)
00002308: 69 02              MVI     A,$02
0000230A: 89                 CALT    ($0092)
0000230B: B8                 RET     
0000230C: 69 01              MVI     A,$01
0000230E: 89                 CALT    ($0092)
0000230F: 69 FD              MVI     A,$FD
00002311: 8A                 CALT    ($0094)
00002312: B8                 RET     
00002313: 34 00 04           LXI     HL,$0400
00002316: 70 3E 5B 99        SHLD    $995B
0000231A: 44 00 90           LXI     EA,$9000
0000231D: 14 FE 07           LXI     BC,$07FE
00002320: 9C                 CALT    ($00B8)
00002321: B8                 RET     
00002322: 55 12 80           OFFIW   VV:12,$80
00002325: 54 5C 12           JMP     $125C
00002328: 24 5B 99           LXI     DE,$995B
0000232B: 48 82              LDEAX   (DE)
0000232D: 34 00 04           LXI     HL,$0400
00002330: 74 EF              DNE     EA,HL
00002332: B8                 RET     
00002333: A8                 INX     EA
00002334: 48 92              STEAX   (DE)
00002336: 70 2F 5F 99        LDED    $995F
0000233A: 48 82              LDEAX   (DE)
0000233C: 34 25 99           LXI     HL,$9925
0000233F: 48 93              STEAX   (HL)
00002341: 44 00 00           LXI     EA,$0000
00002344: 48 94              STEAX   (DE++)
00002346: 9A                 CALT    ($00B4)
00002347: 70 2E 5F 99        SDED    $995F
0000234B: B9                 RETS    
0000234C: 05 40 BF           ANIW    VV:40,$BF
0000234F: 44 00 01           LXI     EA,$0100
00002352: 70 2F 5B 99        LDED    $995B
00002356: 74 AE              DGT     EA,DE
00002358: C4                 JR      $235D
00002359: 15 40 40           ORIW    VV:40,$40
0000235C: B9                 RETS    
0000235D: 55 40 10           OFFIW   VV:40,$10
00002360: 4E 18              JRE     $237A
00002362: 71 40 00           MVIW    VV:40,$00
00002365: 69 00              MVI     A,$00
00002367: 70 79 00 C0        MOV     ($C000),A
0000236B: 63 3C              STAW    VV:3C
0000236D: 63 3D              STAW    VV:3D
0000236F: 40 72 22           CALL    $2272
00002372: B8                 RET     
00002373: 34 37 98           LXI     HL,$9837
00002376: 3D                 STAX    (HL+)
00002377: 48 93              STEAX   (HL)
00002379: B5                 DMOV    BC,EA
0000237A: 40 36 24           CALL    $2436
0000237D: 4E 21              JRE     $23A0
0000237F: 37 B0              LTI     A,$B0
00002381: 37 B3              LTI     A,$B3
00002383: C3                 JR      $2387
00002384: 15 40 80           ORIW    VV:40,$80
00002387: 40 E6 22           CALL    $22E6
0000238A: 55 39 02           OFFIW   VV:39,$02
0000238D: 48 25              SLL     A
0000238F: 63 3A              STAW    VV:3A
00002391: 40 D0 24           CALL    $24D0
00002394: 34 65 99           LXI     HL,$9965
00002397: 40 86 26           CALL    $2686
0000239A: 40 EF 25           CALL    $25EF
0000239D: 40 2A 26           CALL    $262A
000023A0: 01 3A              LDAW    VV:3A
000023A2: 36 01              SUINB   A,$01
000023A4: B9                 RETS    
000023A5: 74 C0 3D           ADDW    VV:3D
000023A8: 63 3A              STAW    VV:3A
000023AA: 70 2F 5D 99        LDED    $995D
000023AE: 65 37 20           NEIW    VV:37,$20
000023B1: 4E 2B              JRE     $23DE
000023B3: 5A 00              BIT     2,VV:00
000023B5: D1                 JR      $23C7
000023B6: 40 18 24           CALL    $2418
000023B9: 70 3F 59 99        LHLD    $9959
000023BD: 33                 DCX     HL
000023BE: 33                 DCX     HL
000023BF: 48 83              LDEAX   (HL)
000023C1: B5                 DMOV    BC,EA
000023C2: 40 F1 23           CALL    $23F1
000023C5: F7                 JR      $23BD
000023C6: D2                 JR      $23D9
000023C7: 58 40              BIT     0,VV:40
000023C9: 34 65 99           LXI     HL,$9965
000023CC: 34 ED 99           LXI     HL,$99ED
000023CF: 48 85              LDEAX   (HL++)
000023D1: B5                 DMOV    BC,EA
000023D2: 40 F1 23           CALL    $23F1
000023D5: F9                 JR      $23CF
000023D6: 40 18 24           CALL    $2418
000023D9: 70 2E 5D 99        SDED    $995D
000023DD: B9                 RETS    
000023DE: 55 00 04           OFFIW   VV:00,$04
000023E1: 40 18 24           CALL    $2418
000023E4: 14 00 00           LXI     BC,$0000
000023E7: 40 F1 23           CALL    $23F1
000023EA: F9                 JR      $23E4
000023EB: 5A 00              BIT     2,VV:00
000023ED: 40 18 24           CALL    $2418
000023F0: E8                 JR      $23D9
000023F1: 5C 38              BIT     4,VV:38
000023F3: D1                 JR      $2405
000023F4: 55 38 04           OFFIW   VV:38,$04
000023F7: CB                 JR      $2403
000023F8: 5A 00              BIT     2,VV:00
000023FA: C5                 JR      $2400
000023FB: 74 5D 02           OFFI    E,$02
000023FE: C4                 JR      $2403
000023FF: C5                 JR      $2405
00002400: 74 4D 02           ONI     E,$02
00002403: 6B 80              MVI     C,$80
00002405: 48 82              LDEAX   (DE)
00002407: 74 9D              DOR     EA,BC
00002409: 48 94              STEAX   (DE++)
0000240B: 9A                 CALT    ($00B4)
0000240C: B3                 PUSH    HL
0000240D: 34 5B 99           LXI     HL,$995B
00002410: BA                 DI      
00002411: 9F                 CALT    ($00BE)
00002412: AA                 EI      
00002413: A3                 POP     HL
00002414: 30 3A              DCRW    VV:3A
00002416: B8                 RET     
00002417: B9                 RETS    
00002418: 01 3D              LDAW    VV:3D
0000241A: CD                 JR      $2428
0000241B: 23                 DCX     DE
0000241C: 23                 DCX     DE
0000241D: 9A                 CALT    ($00B4)
0000241E: 34 5B 99           LXI     HL,$995B
00002421: BA                 DI      
00002422: 48 83              LDEAX   (HL)
00002424: A8                 INX     EA
00002425: 48 93              STEAX   (HL)
00002427: AA                 EI      
00002428: 51                 DCR     A
00002429: F1                 JR      $241B
0000242A: B8                 RET     
0000242B: 74 6C 98           NEI     D,$98
0000242E: 6C 90              MVI     D,$90
00002430: 74 6C 8F           NEI     D,$8F
00002433: 6C 97              MVI     D,$97
00002435: B8                 RET     
00002436: 5C 40              BIT     4,VV:40
00002438: C6                 JR      $243F
00002439: 70 1F 61 99        LBCD    $9961
0000243D: 4E 43              JRE     $2482
0000243F: 58 39              BIT     0,VV:39
00002441: 55 10 50           OFFIW   VV:10,$50
00002444: 05 38 EF           ANIW    VV:38,$EF
00002447: 58 39              BIT     0,VV:39
00002449: CD                 JR      $2457
0000244A: 70 1F 37 98        LBCD    $9837
0000244E: A5                 DMOV    EA,BC
0000244F: 55 39 02           OFFIW   VV:39,$02
00002452: 48 A4              DSLL    EA
00002454: B5                 DMOV    BC,EA
00002455: 4E 2B              JRE     $2482
00002457: 55 05 08           OFFIW   VV:05,$08
0000245A: 77 20              EQI     A,$20
0000245C: C5                 JR      $2462
0000245D: 40 A0 24           CALL    $24A0
00002460: 4E 20              JRE     $2482
00002462: 67 20              NEI     A,$20
00002464: CD                 JR      $2472
00002465: 5C 10              BIT     4,VV:10
00002467: C3                 JR      $246B
00002468: 5C 39              BIT     4,VV:39
0000246A: C7                 JR      $2472
0000246B: 55 10 40           OFFIW   VV:10,$40
0000246E: 55 38 20           OFFIW   VV:38,$20
00002471: B9                 RETS    
00002472: 40 E6 22           CALL    $22E6
00002475: 55 39 02           OFFIW   VV:39,$02
00002478: 48 25              SLL     A
0000247A: 55 38 08           OFFIW   VV:38,$08
0000247D: 48 25              SLL     A
0000247F: 1B                 MOV     C,A
00002480: 6A 00              MVI     B,$00
00002482: 74 7A 00           EQI     B,$00
00002485: C5                 JR      $248B
00002486: 05 40 EF           ANIW    VV:40,$EF
00002489: 0B                 MOV     A,C
0000248A: C5                 JR      $2490
0000248B: 15 40 10           ORIW    VV:40,$10
0000248E: 69 FF              MVI     A,$FF
00002490: 60 33              SUBNB   C,A
00002492: 52                 DCR     B
00002493: 70 1E 61 99        SBCD    $9961
00002497: 63 3A              STAW    VV:3A
00002499: 71 3D 00           MVIW    VV:3D,$00
0000249C: 71 37 20           MVIW    VV:37,$20
0000249F: B8                 RET     
000024A0: 34 37 99           LXI     HL,$9937
000024A3: 48 83              LDEAX   (HL)
000024A5: 5A 00              BIT     2,VV:00
000024A7: C4                 JR      $24AC
000024A8: A8                 INX     EA
000024A9: A8                 INX     EA
000024AA: A8                 INX     EA
000024AB: C3                 JR      $24AF
000024AC: A9                 DCX     EA
000024AD: A9                 DCX     EA
000024AE: A9                 DCX     EA
000024AF: 70 3F 45 99        LHLD    $9945
000024B3: 74 AF              DGT     EA,HL
000024B5: B9                 RETS    
000024B6: 34 53 99           LXI     HL,$9953
000024B9: 48 83              LDEAX   (HL)
000024BB: 5A 00              BIT     2,VV:00
000024BD: C9                 JR      $24C7
000024BE: 01 35              LDAW    VV:35
000024C0: 74 A8 36           GTAW    VV:36
000024C3: A8                 INX     EA
000024C4: 30 35              DCRW    VV:35
000024C6: C7                 JR      $24CE
000024C7: 65 36 00           NEIW    VV:36,$00
000024CA: C3                 JR      $24CE
000024CB: A8                 INX     EA
000024CC: 30 36              DCRW    VV:36
000024CE: B5                 DMOV    BC,EA
000024CF: B8                 RET     
000024D0: 55 38 02           OFFIW   VV:38,$02
000024D3: 4E AE              JRE     $2583
000024D5: 01 37              LDAW    VV:37
000024D7: 44 01 34           LXI     EA,$3401
000024DA: 5E 38              BIT     6,VV:38
000024DC: 44 01 33           LXI     EA,$3301
000024DF: 70 41              EADD    EA,A
000024E1: 70 41              EADD    EA,A
000024E3: B7                 DMOV    HL,EA
000024E4: 48 83              LDEAX   (HL)
000024E6: B7                 DMOV    HL,EA
000024E7: 2D                 LDAX    (HL+)
000024E8: 63 3F              STAW    VV:3F
000024EA: 55 39 02           OFFIW   VV:39,$02
000024ED: 55 38 01           OFFIW   VV:38,$01
000024F0: D9                 JR      $250A
000024F1: 59 3F              BIT     1,VV:3F
000024F3: D6                 JR      $250A
000024F4: 40 BF 25           CALL    $25BF
000024F7: 40 A6 26           CALL    $26A6
000024FA: 40 B0 26           CALL    $26B0
000024FD: A7                 DMOV    EA,HL
000024FE: 01 3B              LDAW    VV:3B
00002500: 74 5A 80           OFFI    B,$80
00002503: 46 03              ADI     A,$03
00002505: 70 41              EADD    EA,A
00002507: 54 18 28           JMP     $2818
0000250A: 2B                 LDAX    (HL)
0000250B: 47 80              ONI     A,$80
0000250D: 15 40 02           ORIW    VV:40,$02
00002510: 55 39 02           OFFIW   VV:39,$02
00002513: D9                 JR      $252D
00002514: 55 39 80           OFFIW   VV:39,$80
00002517: 5B 3F              BIT     3,VV:3F
00002519: D3                 JR      $252D
0000251A: 5A 3F              BIT     2,VV:3F
0000251C: 4E 5B              JRE     $2579
0000251E: 5E 07              BIT     6,VV:07
00002520: 55 38 80           OFFIW   VV:38,$80
00002523: C2                 JR      $2526
00002524: 4E 53              JRE     $2579
00002526: 71 3B 08           MVIW    VV:3B,$08
00002529: 40 C1 25           CALL    $25C1
0000252C: DD                 JR      $254A
0000252D: 55 07 40           OFFIW   VV:07,$40
00002530: 5C 3F              BIT     4,VV:3F
00002532: C7                 JR      $253A
00002533: 71 3B 08           MVIW    VV:3B,$08
00002536: 40 C5 25           CALL    $25C5
00002539: D0                 JR      $254A
0000253A: 5D 3F              BIT     5,VV:3F
0000253C: D0                 JR      $254D
0000253D: 5E 07              BIT     6,VV:07
0000253F: 55 38 80           OFFIW   VV:38,$80
00002542: C1                 JR      $2544
00002543: C9                 JR      $254D
00002544: 71 3B 09           MVIW    VV:3B,$09
00002547: 40 C7 25           CALL    $25C7
0000254A: 54 C9 27           JMP     $27C9
0000254D: 32                 INX     HL
0000254E: 5E 3F              BIT     6,VV:3F
00002550: DE                 JR      $256F
00002551: 71 3B 0B           MVIW    VV:3B,$0B
00002554: 2D                 LDAX    (HL+)
00002555: 55 40 80           OFFIW   VV:40,$80
00002558: DB                 JR      $2574
00002559: 55 38 80           OFFIW   VV:38,$80
0000255C: CA                 JR      $2567
0000255D: 5B 38              BIT     3,VV:38
0000255F: 5E 07              BIT     6,VV:07
00002561: D2                 JR      $2574
00002562: 44 00 20           LXI     EA,$2000
00002565: 19                 MOV     EAL,A
00002566: C3                 JR      $256A
00002567: 44 00 60           LXI     EA,$6000
0000256A: 40 E2 25           CALL    $25E2
0000256D: 4F DB              JRE     $254A
0000256F: 71 3B 09           MVIW    VV:3B,$09
00002572: 32                 INX     HL
00002573: 2D                 LDAX    (HL+)
00002574: 40 DE 25           CALL    $25DE
00002577: 4F D1              JRE     $254A
00002579: 40 C3 25           CALL    $25C3
0000257C: 69 09              MVI     A,$09
0000257E: 63 3B              STAW    VV:3B
00002580: 32                 INX     HL
00002581: 2D                 LDAX    (HL+)
00002582: F1                 JR      $2574
00002583: 70 6A 37 98        MOV     B,($9837)
00002587: 74 62 3A           SUI     B,$3A
0000258A: 40 C2 1A           CALL    $1AC2
0000258D: 59 39              BIT     1,VV:39
0000258F: 4E 1C              JRE     $25AD
00002591: 2D                 LDAX    (HL+)
00002592: 63 3B              STAW    VV:3B
00002594: 71 3C 00           MVIW    VV:3C,$00
00002597: 44 0E 00           LXI     EA,$000E
0000259A: 74 C7              DADD    EA,HL
0000259C: 24 E9 26           LXI     DE,$26E9
0000259F: 5F 38              BIT     7,VV:38
000025A1: 24 E8 26           LXI     DE,$26E8
000025A4: 70 2E 63 99        SDED    $9963
000025A8: 6A 80              MVI     B,$80
000025AA: 54 18 28           JMP     $2818
000025AD: 71 3B 0B           MVIW    VV:3B,$0B
000025B0: 2D                 LDAX    (HL+)
000025B1: 47 80              ONI     A,$80
000025B3: 15 40 02           ORIW    VV:40,$02
000025B6: 44 00 20           LXI     EA,$2000
000025B9: 40 E2 25           CALL    $25E2
000025BC: 54 C9 27           JMP     $27C9
000025BF: 69 FC              MVI     A,$FC
000025C1: 69 F8              MVI     A,$F8
000025C3: 69 F0              MVI     A,$F0
000025C5: 69 E0              MVI     A,$E0
000025C7: 69 C0              MVI     A,$C0
000025C9: 74 88 3F           ANAW    VV:3F
000025CC: 16 FF              XRI     A,$FF
000025CE: 1A                 MOV     B,A
000025CF: A7                 DMOV    EA,HL
000025D0: 24 4F 35           LXI     DE,$354F
000025D3: 6B 05              MVI     C,$05
000025D5: 2C                 LDAX    (DE+)
000025D6: 48 06              SLLC    B
000025D8: 70 41              EADD    EA,A
000025DA: 53                 DCR     C
000025DB: F9                 JR      $25D5
000025DC: B7                 DMOV    HL,EA
000025DD: B8                 RET     
000025DE: 44 00 00           LXI     EA,$0000
000025E1: 19                 MOV     EAL,A
000025E2: 55 07 40           OFFIW   VV:07,$40
000025E5: C3                 JR      $25E9
000025E6: 5F 38              BIT     7,VV:38
000025E8: C5                 JR      $25EE
000025E9: 24 01 C0           LXI     DE,$C001
000025EC: 48 92              STEAX   (DE)
000025EE: B8                 RET     
000025EF: 45 38 0C           ONIW    VV:38,$0C
000025F2: B8                 RET     
000025F3: 44 00 00           LXI     EA,$0000
000025F6: 70 2F 59 99        LDED    $9959
000025FA: 48 94              STEAX   (DE++)
000025FC: 48 92              STEAX   (DE)
000025FE: 34 65 99           LXI     HL,$9965
00002601: 24 ED 99           LXI     DE,$99ED
00002604: B2                 PUSH    DE
00002605: 15 40 01           ORIW    VV:40,$01
00002608: 01 3A              LDAW    VV:3A
0000260A: 1A                 MOV     B,A
0000260B: 55 38 08           OFFIW   VV:38,$08
0000260E: 48 25              SLL     A
00002610: 63 3A              STAW    VV:3A
00002612: 0A                 MOV     A,B
00002613: 74 C0 3D           ADDW    VV:3D
00002616: 14 00 00           LXI     BC,$0000
00002619: 59 39              BIT     1,VV:39
0000261B: C6                 JR      $2622
0000261C: 5A 38              BIT     2,VV:38
0000261E: C3                 JR      $2622
0000261F: 40 BF 28           CALL    $28BF
00002622: 40 BC 28           CALL    $28BC
00002625: A3                 POP     HL
00002626: 40 86 26           CALL    $2686
00002629: B8                 RET     
0000262A: 55 39 02           OFFIW   VV:39,$02
0000262D: 5F 39              BIT     7,VV:39
0000262F: B8                 RET     
00002630: 58 40              BIT     0,VV:40
00002632: C7                 JR      $263A
00002633: 24 65 99           LXI     DE,$9965
00002636: 34 ED 99           LXI     HL,$99ED
00002639: C6                 JR      $2640
0000263A: 24 ED 99           LXI     DE,$99ED
0000263D: 34 65 99           LXI     HL,$9965
00002640: B3                 PUSH    HL
00002641: B3                 PUSH    HL
00002642: B2                 PUSH    DE
00002643: 01 3A              LDAW    VV:3A
00002645: 74 C0 3D           ADDW    VV:3D
00002648: 51                 DCR     A
00002649: 63 3B              STAW    VV:3B
0000264B: 1B                 MOV     C,A
0000264C: 32                 INX     HL
0000264D: 2D                 LDAX    (HL+)
0000264E: 3C                 STAX    (DE+)
0000264F: 53                 DCR     C
00002650: FB                 JR      $264C
00002651: A3                 POP     HL
00002652: 44 44 00           LXI     EA,$0044
00002655: 74 C7              DADD    EA,HL
00002657: 14 42 00           LXI     BC,$0042
0000265A: 9C                 CALT    ($00B8)
0000265B: B4                 PUSH    EA
0000265C: 6A 01              MVI     B,$01
0000265E: A8                 INX     EA
0000265F: B6                 DMOV    DE,EA
00002660: B3                 PUSH    HL
00002661: 01 3B              LDAW    VV:3B
00002663: 1B                 MOV     C,A
00002664: 2D                 LDAX    (HL+)
00002665: 60 8A              ANA     A,B
00002667: 70 9A              ORAX    (DE)
00002669: 3C                 STAX    (DE+)
0000266A: 53                 DCR     C
0000266B: F8                 JR      $2664
0000266C: A3                 POP     HL
0000266D: 48 26              SLL     B
0000266F: 48 0A              SK      CY
00002671: EC                 JR      $265E
00002672: A3                 POP     HL
00002673: A2                 POP     DE
00002674: 01 3B              LDAW    VV:3B
00002676: 1B                 MOV     C,A
00002677: 2D                 LDAX    (HL+)
00002678: 22                 INX     DE
00002679: 3C                 STAX    (DE+)
0000267A: 53                 DCR     C
0000267B: FB                 JR      $2677
0000267C: 6B 07              MVI     C,$07
0000267E: 69 00              MVI     A,$00
00002680: 3C                 STAX    (DE+)
00002681: 2D                 LDAX    (HL+)
00002682: 3C                 STAX    (DE+)
00002683: 53                 DCR     C
00002684: F9                 JR      $267E
00002685: A3                 POP     HL
00002686: 69 00              MVI     A,$00
00002688: 70 79 00 C0        MOV     ($C000),A
0000268C: A6                 DMOV    EA,DE
0000268D: 74 E7              DSUB    EA,HL
0000268F: 09                 MOV     A,EAL
00002690: 48 21              SLR     A
00002692: 1A                 MOV     B,A
00002693: 01 3A              LDAW    VV:3A
00002695: 60 B2              SUBNB   A,B
00002697: C5                 JR      $269D
00002698: 51                 DCR     A
00002699: 40 EA 2A           CALL    $2AEA
0000269C: C4                 JR      $26A1
0000269D: 48 3A              NEGA    
0000269F: 63 3D              STAW    VV:3D
000026A1: 70 2E 59 99        SDED    $9959
000026A5: B8                 RET     
000026A6: 2D                 LDAX    (HL+)
000026A7: 1A                 MOV     B,A
000026A8: 07 1F              ANI     A,$1F
000026AA: 63 3C              STAW    VV:3C
000026AC: 2D                 LDAX    (HL+)
000026AD: 63 3B              STAW    VV:3B
000026AF: B8                 RET     
000026B0: 5F 38              BIT     7,VV:38
000026B2: DD                 JR      $26D0
000026B3: 74 5A 40           OFFI    B,$40
000026B6: C8                 JR      $26BF
000026B7: 70 3E 63 99        SHLD    $9963
000026BB: 32                 INX     HL
000026BC: 32                 INX     HL
000026BD: 32                 INX     HL
000026BE: B8                 RET     
000026BF: 74 5A 80           OFFI    B,$80
000026C2: 46 03              ADI     A,$03
000026C4: 48 25              SLL     A
000026C6: 46 03              ADI     A,$03
000026C8: A7                 DMOV    EA,HL
000026C9: 70 41              EADD    EA,A
000026CB: B7                 DMOV    HL,EA
000026CC: 40 A6 26           CALL    $26A6
000026CF: C3                 JR      $26D3
000026D0: 32                 INX     HL
000026D1: 32                 INX     HL
000026D2: 32                 INX     HL
000026D3: 24 E8 26           LXI     DE,$26E8
000026D6: 70 2E 63 99        SDED    $9963
000026DA: B8                 RET     
000026DB: B3                 PUSH    HL
000026DC: 70 3F 63 99        LHLD    $9963
000026E0: 24 01 C0           LXI     DE,$C001
000026E3: 6B 02              MVI     C,$02
000026E5: 31                 BLOCK   
000026E6: A3                 POP     HL
000026E7: B8                 RET     
000026E8: 00                 NOP     
000026E9: 00                 NOP     
000026EA: 00                 NOP     
000026EB: 1F                 MOV     L,A
000026EC: 55 39 40           OFFIW   VV:39,$40
000026EF: 4E 32              JRE     $2723
000026F1: 55 10 40           OFFIW   VV:10,$40
000026F4: B7                 DMOV    HL,EA
000026F5: 44 ED 99           LXI     EA,$99ED
000026F8: 69 00              MVI     A,$00
000026FA: 70 79 00 C0        MOV     ($C000),A
000026FE: 74 4A 80           ONI     B,$80
00002701: CA                 JR      $270C
00002702: 6B 01              MVI     C,$01
00002704: 59 38              BIT     1,VV:38
00002706: 6B 02              MVI     C,$02
00002708: 24 01 C0           LXI     DE,$C001
0000270B: 31                 BLOCK   
0000270C: B6                 DMOV    DE,EA
0000270D: 01 3B              LDAW    VV:3B
0000270F: 1B                 MOV     C,A
00002710: 44 00 00           LXI     EA,$0000
00002713: CD                 JR      $2721
00002714: 70 69 00 C0        MOV     A,($C000)
00002718: 3C                 STAX    (DE+)
00002719: 2D                 LDAX    (HL+)
0000271A: 3C                 STAX    (DE+)
0000271B: 55 38 02           OFFIW   VV:38,$02
0000271E: 48 94              STEAX   (DE++)
00002720: 53                 DCR     C
00002721: F2                 JR      $2714
00002722: B8                 RET     
00002723: B1                 PUSH    BC
00002724: B4                 PUSH    EA
00002725: 44 65 99           LXI     EA,$9965
00002728: 40 F8 26           CALL    $26F8
0000272B: A3                 POP     HL
0000272C: A1                 POP     BC
0000272D: 44 ED 99           LXI     EA,$99ED
00002730: 40 F8 26           CALL    $26F8
00002733: 34 65 99           LXI     HL,$9965
00002736: 24 ED 99           LXI     DE,$99ED
00002739: 70 6B 3B 98        MOV     C,($983B)
0000273D: 55 38 02           OFFIW   VV:38,$02
00002740: 48 27              SLL     C
00002742: 5E 10              BIT     6,VV:10
00002744: 4E 72              JRE     $27B8
00002746: 4E 35              JRE     $277D
00002748: B1                 PUSH    BC
00002749: 6A 00              MVI     B,$00
0000274B: 32                 INX     HL
0000274C: AB 01              LDAX    (DE+$01)
0000274E: 1B                 MOV     C,A
0000274F: 2D                 LDAX    (HL+)
00002750: 47 40              ONI     A,$40
00002752: 74 5B 80           OFFI    C,$80
00002755: 74 1A 80           ORI     B,$80
00002758: 47 20              ONI     A,$20
0000275A: 74 5B 20           OFFI    C,$20
0000275D: 74 1A 40           ORI     B,$40
00002760: 47 08              ONI     A,$08
00002762: 74 5B 10           OFFI    C,$10
00002765: 74 1A 20           ORI     B,$20
00002768: 74 5B 04           OFFI    C,$04
0000276B: 74 1A 10           ORI     B,$10
0000276E: 57 01              OFFI    A,$01
00002770: 74 1A 08           ORI     B,$08
00002773: 2A                 LDAX    (DE)
00002774: 57 80              OFFI    A,$80
00002776: 74 1A 04           ORI     B,$04
00002779: 40 BC 27           CALL    $27BC
0000277C: A1                 POP     BC
0000277D: 53                 DCR     C
0000277E: 4F C8              JRE     $2748
00002780: B8                 RET     
00002781: B1                 PUSH    BC
00002782: 6A 00              MVI     B,$00
00002784: 2D                 LDAX    (HL+)
00002785: 57 80              OFFI    A,$80
00002787: 74 1A 04           ORI     B,$04
0000278A: AB 01              LDAX    (DE+$01)
0000278C: 1B                 MOV     C,A
0000278D: 2D                 LDAX    (HL+)
0000278E: 57 80              OFFI    A,$80
00002790: 74 1A 80           ORI     B,$80
00002793: 74 5B 40           OFFI    C,$40
00002796: 74 1A 40           ORI     B,$40
00002799: 57 10              OFFI    A,$10
0000279B: 74 1A 20           ORI     B,$20
0000279E: 47 04              ONI     A,$04
000027A0: 74 5B 08           OFFI    C,$08
000027A3: 74 1A 10           ORI     B,$10
000027A6: 47 02              ONI     A,$02
000027A8: 74 5B 02           OFFI    C,$02
000027AB: 74 1A 08           ORI     B,$08
000027AE: 74 5B 01           OFFI    C,$01
000027B1: 74 1A 04           ORI     B,$04
000027B4: 40 BC 27           CALL    $27BC
000027B7: A1                 POP     BC
000027B8: 53                 DCR     C
000027B9: 4F C6              JRE     $2781
000027BB: B8                 RET     
000027BC: 44 00 00           LXI     EA,$0000
000027BF: 0A                 MOV     A,B
000027C0: 18                 MOV     EAH,A
000027C1: 5D 39              BIT     5,VV:39
000027C3: 40 49 00           CALL    $0049
000027C6: 48 94              STEAX   (DE++)
000027C8: B8                 RET     
000027C9: 45 40 80           ONIW    VV:40,$80
000027CC: 55 39 40           OFFIW   VV:39,$40
000027CF: CA                 JR      $27DA
000027D0: 59 39              BIT     1,VV:39
000027D2: C7                 JR      $27DA
000027D3: 5C 10              BIT     4,VV:10
000027D5: 5E 10              BIT     6,VV:10
000027D7: C2                 JR      $27DA
000027D8: 4E 75              JRE     $284F
000027DA: 24 65 99           LXI     DE,$9965
000027DD: 6A 00              MVI     B,$00
000027DF: 40 E8 27           CALL    $27E8
000027E2: 40 03 28           CALL    $2803
000027E5: B8                 RET     
000027E6: 63 3B              STAW    VV:3B
000027E8: D6                 JR      $27FF
000027E9: 0A                 MOV     A,B
000027EA: 16 FF              XRI     A,$FF
000027EC: 70 8D              ANAX    (HL+)
000027EE: 70 6B 00 C0        MOV     C,($C000)
000027F2: 74 5B 80           OFFI    C,$80
000027F5: C9                 JR      $27FF
000027F6: 1A                 MOV     B,A
000027F7: 9B                 CALT    ($00B6)
000027F8: 59 39              BIT     1,VV:39
000027FA: C4                 JR      $27FF
000027FB: 69 00              MVI     A,$00
000027FD: 1A                 MOV     B,A
000027FE: 9B                 CALT    ($00B6)
000027FF: 30 3B              DCRW    VV:3B
00002801: E7                 JR      $27E9
00002802: B8                 RET     
00002803: 5E 07              BIT     6,VV:07
00002805: 5B 39              BIT     3,VV:39
00002807: B8                 RET     
00002808: 69 01              MVI     A,$01
0000280A: 55 39 04           OFFIW   VV:39,$04
0000280D: 46 02              ADI     A,$02
0000280F: 47 80              ONI     A,$80
00002811: 67 00              NEI     A,$00
00002813: B8                 RET     
00002814: 33                 DCX     HL
00002815: 33                 DCX     HL
00002816: 33                 DCX     HL
00002817: B9                 RETS    
00002818: 40 EC 26           CALL    $26EC
0000281B: 40 DB 26           CALL    $26DB
0000281E: 24 65 99           LXI     DE,$9965
00002821: 01 3C              LDAW    VV:3C
00002823: 51                 DCR     A
00002824: 40 EA 2A           CALL    $2AEA
00002827: 34 ED 99           LXI     HL,$99ED
0000282A: 01 3B              LDAW    VV:3B
0000282C: 48 25              SLL     A
0000282E: 55 38 02           OFFIW   VV:38,$02
00002831: 63 3B              STAW    VV:3B
00002833: 14 FF FF           LXI     BC,$FFFF
00002836: D3                 JR      $284A
00002837: 48 85              LDEAX   (HL++)
00002839: 70 69 00 C0        MOV     A,($C000)
0000283D: 57 80              OFFI    A,$80
0000283F: CA                 JR      $284A
00002840: 74 8D              DAN     EA,BC
00002842: 48 94              STEAX   (DE++)
00002844: 14 FF FF           LXI     BC,$FFFF
00002847: 74 95              DXR     EA,BC
00002849: B5                 DMOV    BC,EA
0000284A: 30 3B              DCRW    VV:3B
0000284C: 4F E9              JRE     $2837
0000284E: B8                 RET     
0000284F: 24 ED 99           LXI     DE,$99ED
00002852: 70 6B 3B 98        MOV     C,($983B)
00002856: 53                 DCR     C
00002857: 31                 BLOCK   
00002858: 40 03 28           CALL    $2803
0000285B: C8                 JR      $2864
0000285C: 1B                 MOV     C,A
0000285D: 74 C0 3B           ADDW    VV:3B
00002860: 63 3B              STAW    VV:3B
00002862: 53                 DCR     C
00002863: 31                 BLOCK   
00002864: 34 ED 99           LXI     HL,$99ED
00002867: 24 65 99           LXI     DE,$9965
0000286A: 44 00 00           LXI     EA,$0000
0000286D: 30 3B              DCRW    VV:3B
0000286F: 2D                 LDAX    (HL+)
00002870: 1A                 MOV     B,A
00002871: 70 6B 00 C0        MOV     C,($C000)
00002875: 74 4B 80           ONI     C,$80
00002878: D0                 JR      $2889
00002879: 30 3B              DCRW    VV:3B
0000287B: F3                 JR      $286F
0000287C: B8                 RET     
0000287D: 40 65 29           CALL    $2965
00002880: 40 09 29           CALL    $2909
00002883: 9B                 CALT    ($00B6)
00002884: 18                 MOV     EAH,A
00002885: 0A                 MOV     A,B
00002886: 19                 MOV     EAL,A
00002887: 0B                 MOV     A,C
00002888: 1A                 MOV     B,A
00002889: 75 3B 00           EQIW    VV:3B,$00
0000288C: C3                 JR      $2890
0000288D: 6B 00              MVI     C,$00
0000288F: CD                 JR      $289D
00002890: 2D                 LDAX    (HL+)
00002891: 70 6B 00 C0        MOV     C,($C000)
00002895: 74 4B 80           ONI     C,$80
00002898: C3                 JR      $289C
00002899: 30 3B              DCRW    VV:3B
0000289B: ED                 JR      $2889
0000289C: 1B                 MOV     C,A
0000289D: 40 58 29           CALL    $2958
000028A0: 40 09 29           CALL    $2909
000028A3: 9B                 CALT    ($00B6)
000028A4: 18                 MOV     EAH,A
000028A5: 30 3B              DCRW    VV:3B
000028A7: 4F D4              JRE     $287D
000028A9: B8                 RET     
000028AA: 48 85              LDEAX   (HL++)
000028AC: B4                 PUSH    EA
000028AD: 74 9D              DOR     EA,BC
000028AF: 48 94              STEAX   (DE++)
000028B1: 5B 38              BIT     3,VV:38
000028B3: C7                 JR      $28BB
000028B4: 5A 38              BIT     2,VV:38
000028B6: 44 00 00           LXI     EA,$0000
000028B9: 48 94              STEAX   (DE++)
000028BB: A1                 POP     BC
000028BC: 51                 DCR     A
000028BD: EC                 JR      $28AA
000028BE: B8                 RET     
000028BF: 41                 INR     A
000028C0: 70 1E 57 99        SBCD    $9957
000028C4: A5                 DMOV    EA,BC
000028C5: B4                 PUSH    EA
000028C6: 48 85              LDEAX   (HL++)
000028C8: B4                 PUSH    EA
000028C9: 74 9D              DOR     EA,BC
000028CB: 5B 38              BIT     3,VV:38
000028CD: D3                 JR      $28E1
000028CE: 70 1F 57 99        LBCD    $9957
000028D2: B1                 PUSH    BC
000028D3: B5                 DMOV    BC,EA
000028D4: 70 1E 57 99        SBCD    $9957
000028D8: A1                 POP     BC
000028D9: 74 9D              DOR     EA,BC
000028DB: 48 94              STEAX   (DE++)
000028DD: 44 00 00           LXI     EA,$0000
000028E0: CB                 JR      $28EC
000028E1: B4                 PUSH    EA
000028E2: 14 FF FF           LXI     BC,$FFFF
000028E5: 48 83              LDEAX   (HL)
000028E7: 74 95              DXR     EA,BC
000028E9: A1                 POP     BC
000028EA: 74 8D              DAN     EA,BC
000028EC: 48 94              STEAX   (DE++)
000028EE: A4                 POP     EA
000028EF: A1                 POP     BC
000028F0: 51                 DCR     A
000028F1: 4F D2              JRE     $28C5
000028F3: B9                 RETS    
000028F4: 40 11 29           CALL    $2911
000028F7: 44 00 00           LXI     EA,$0000
000028FA: 18                 MOV     EAH,A
000028FB: 55 40 02           OFFIW   VV:40,$02
000028FE: 48 A0              DSLR    EA
00002900: 55 39 40           OFFIW   VV:39,$40
00002903: 40 25 29           CALL    $2925
00002906: 48 94              STEAX   (DE++)
00002908: B8                 RET     
00002909: 5C 39              BIT     4,VV:39
0000290B: B8                 RET     
0000290C: 57 02              OFFI    A,$02
0000290E: 17 01              ORI     A,$01
00002910: B8                 RET     
00002911: 55 10 10           OFFIW   VV:10,$10
00002914: 5C 39              BIT     4,VV:39
00002916: B8                 RET     
00002917: 55 40 80           OFFIW   VV:40,$80
0000291A: C7                 JR      $2922
0000291B: 47 01              ONI     A,$01
0000291D: 69 00              MVI     A,$00
0000291F: 69 0F              MVI     A,$0F
00002921: B8                 RET     
00002922: 07 0F              ANI     A,$0F
00002924: B8                 RET     
00002925: B1                 PUSH    BC
00002926: 6B 00              MVI     C,$00
00002928: 55 10 40           OFFIW   VV:10,$40
0000292B: 48 A4              DSLL    EA
0000292D: 08                 MOV     A,EAH
0000292E: 57 80              OFFI    A,$80
00002930: 74 1B 80           ORI     C,$80
00002933: 57 20              OFFI    A,$20
00002935: 74 1B 40           ORI     C,$40
00002938: 57 08              OFFI    A,$08
0000293A: 74 1B 20           ORI     C,$20
0000293D: 57 02              OFFI    A,$02
0000293F: 74 1B 10           ORI     C,$10
00002942: 55 10 40           OFFIW   VV:10,$40
00002945: C6                 JR      $294C
00002946: 09                 MOV     A,EAL
00002947: 57 80              OFFI    A,$80
00002949: 74 1B 08           ORI     C,$08
0000294C: 44 00 00           LXI     EA,$0000
0000294F: 0B                 MOV     A,C
00002950: 18                 MOV     EAH,A
00002951: 5D 39              BIT     5,VV:39
00002953: 40 47 00           CALL    $0047
00002956: A1                 POP     BC
00002957: B8                 RET     
00002958: B2                 PUSH    DE
00002959: B3                 PUSH    HL
0000295A: 40 8C 29           CALL    $298C
0000295D: 40 B8 29           CALL    $29B8
00002960: 60 9C              ORA     A,D
00002962: A3                 POP     HL
00002963: A2                 POP     DE
00002964: B8                 RET     
00002965: B2                 PUSH    DE
00002966: B3                 PUSH    HL
00002967: 0A                 MOV     A,B
00002968: 40 B8 29           CALL    $29B8
0000296B: 1C                 MOV     D,A
0000296C: 0B                 MOV     A,C
0000296D: 07 7F              ANI     A,$7F
0000296F: AC                 LDAX    (HL+A)
00002970: 74 4B 80           ONI     C,$80
00002973: 07 7F              ANI     A,$7F
00002975: 60 1C              ORA     D,A
00002977: 74 14 FF           XRI     D,$FF
0000297A: 0A                 MOV     A,B
0000297B: 48 25              SLL     A
0000297D: 60 8B              ANA     A,C
0000297F: 1E                 MOV     H,A
00002980: 0B                 MOV     A,C
00002981: 48 25              SLL     A
00002983: 60 8A              ANA     A,B
00002985: 60 9E              ORA     A,H
00002987: 60 8C              ANA     A,D
00002989: A3                 POP     HL
0000298A: A2                 POP     DE
0000298B: B8                 RET     
0000298C: 09                 MOV     A,EAL
0000298D: 48 25              SLL     A
0000298F: 60 8B              ANA     A,C
00002991: 1C                 MOV     D,A
00002992: 09                 MOV     A,EAL
00002993: 1D                 MOV     E,A
00002994: 0B                 MOV     A,C
00002995: 48 25              SLL     A
00002997: 60 8D              ANA     A,E
00002999: 60 1C              ORA     D,A
0000299B: 0A                 MOV     A,B
0000299C: 48 25              SLL     A
0000299E: 60 9A              ORA     A,B
000029A0: 1D                 MOV     E,A
000029A1: B1                 PUSH    BC
000029A2: 34 52 2A           LXI     HL,$2A52
000029A5: 09                 MOV     A,EAL
000029A6: 40 C4 29           CALL    $29C4
000029A9: 60 1D              ORA     E,A
000029AB: 0B                 MOV     A,C
000029AC: 40 C4 29           CALL    $29C4
000029AF: 60 9D              ORA     A,E
000029B1: 16 FF              XRI     A,$FF
000029B3: 60 0C              ANA     D,A
000029B5: A1                 POP     BC
000029B6: 0A                 MOV     A,B
000029B7: B8                 RET     
000029B8: 34 D2 29           LXI     HL,$29D2
000029BB: 07 7F              ANI     A,$7F
000029BD: AC                 LDAX    (HL+A)
000029BE: 74 4A 80           ONI     B,$80
000029C1: 07 7F              ANI     A,$7F
000029C3: B8                 RET     
000029C4: 67 7C              NEI     A,$7C
000029C6: 69 FC              MVI     A,$FC
000029C8: 1A                 MOV     B,A
000029C9: 07 7F              ANI     A,$7F
000029CB: AC                 LDAX    (HL+A)
000029CC: 74 4A 80           ONI     B,$80
000029CF: 07 BF              ANI     A,$BF
000029D1: B8                 RET     
000029D2: 00                 NOP     
000029D3: 00                 NOP     
000029D4: 00                 NOP     
000029D5: 02                 INX     SP
000029D6: 00                 NOP     
000029D7: 00                 NOP     
000029D8: 04 06 00           LXI     SP,$0006
000029DB: 00                 NOP     
000029DC: 00                 NOP     
000029DD: 02                 INX     SP
000029DE: 08                 MOV     A,EAH
000029DF: 08                 MOV     A,EAH
000029E0: 0C                 MOV     A,D
000029E1: 0E                 MOV     A,H
000029E2: 00                 NOP     
000029E3: 00                 NOP     
000029E4: 00                 NOP     
000029E5: 02                 INX     SP
000029E6: 00                 NOP     
000029E7: 00                 NOP     
000029E8: 04 06 10           LXI     SP,$1006
000029EB: 10                 EXA     
000029EC: 10                 EXA     
000029ED: 12                 INX     BC
000029EE: 18                 MOV     EAH,A
000029EF: 18                 MOV     EAH,A
000029F0: 1C                 MOV     D,A
000029F1: 1E                 MOV     H,A
000029F2: 00                 NOP     
000029F3: 00                 NOP     
000029F4: 00                 NOP     
000029F5: 02                 INX     SP
000029F6: 00                 NOP     
000029F7: 00                 NOP     
000029F8: 04 06 00           LXI     SP,$0006
000029FB: 00                 NOP     
000029FC: 00                 NOP     
000029FD: 02                 INX     SP
000029FE: 08                 MOV     A,EAH
000029FF: 08                 MOV     A,EAH
00002A00: 0C                 MOV     A,D
00002A01: 0E                 MOV     A,H
00002A02: 20 20              INRW    VV:20
00002A04: 20 22              INRW    VV:22
00002A06: 20 20              INRW    VV:20
00002A08: 24 26 30           LXI     DE,$3026
00002A0B: 30 30              DCRW    VV:30
00002A0D: 32                 INX     HL
00002A0E: 38                 illegal 
00002A0F: 38                 illegal 
00002A10: 3C                 STAX    (DE+)
00002A11: 3E                 STAX    (DE-)
00002A12: 80                 CALT    ($0080)
00002A13: 80                 CALT    ($0080)
00002A14: 80                 CALT    ($0080)
00002A15: 82                 CALT    ($0084)
00002A16: 80                 CALT    ($0080)
00002A17: 80                 CALT    ($0080)
00002A18: 84                 CALT    ($0088)
00002A19: 86                 CALT    ($008C)
00002A1A: 80                 CALT    ($0080)
00002A1B: 80                 CALT    ($0080)
00002A1C: 80                 CALT    ($0080)
00002A1D: 82                 CALT    ($0084)
00002A1E: 88                 CALT    ($0090)
00002A1F: 88                 CALT    ($0090)
00002A20: 8C                 CALT    ($0098)
00002A21: 8E                 CALT    ($009C)
00002A22: 80                 CALT    ($0080)
00002A23: 80                 CALT    ($0080)
00002A24: 80                 CALT    ($0080)
00002A25: 82                 CALT    ($0084)
00002A26: 80                 CALT    ($0080)
00002A27: 80                 CALT    ($0080)
00002A28: 84                 CALT    ($0088)
00002A29: 86                 CALT    ($008C)
00002A2A: 90                 CALT    ($00A0)
00002A2B: 90                 CALT    ($00A0)
00002A2C: 90                 CALT    ($00A0)
00002A2D: 92                 CALT    ($00A4)
00002A2E: 98                 CALT    ($00B0)
00002A2F: 98                 CALT    ($00B0)
00002A30: 9C                 CALT    ($00B8)
00002A31: 9E                 CALT    ($00BC)
00002A32: C0                 JR      $2A33
00002A33: C0                 JR      $2A34
00002A34: C0                 JR      $2A35
00002A35: C2                 JR      $2A38
00002A36: C0                 JR      $2A37
00002A37: C0                 JR      $2A38
00002A38: C4                 JR      $2A3D
00002A39: C6                 JR      $2A40
00002A3A: C0                 JR      $2A3B
00002A3B: C0                 JR      $2A3C
00002A3C: C0                 JR      $2A3D
00002A3D: C2                 JR      $2A40
00002A3E: C8                 JR      $2A47
00002A3F: C8                 JR      $2A48
00002A40: CC                 JR      $2A4D
00002A41: CE                 JR      $2A50
00002A42: E0                 JR      $2A23
00002A43: E0                 JR      $2A24
00002A44: E0                 JR      $2A25
00002A45: E2                 JR      $2A28
00002A46: E0                 JR      $2A27
00002A47: E0                 JR      $2A28
00002A48: E4                 JR      $2A2D
00002A49: E6                 JR      $2A30
00002A4A: F0                 JR      $2A3B
00002A4B: F0                 JR      $2A3C
00002A4C: F0                 JR      $2A3D
00002A4D: F2                 JR      $2A40
00002A4E: F8                 JR      $2A47
00002A4F: F8                 JR      $2A48
00002A50: FC                 JR      $2A4D
00002A51: FE                 JR      $2A50
00002A52: 00                 NOP     
00002A53: 00                 NOP     
00002A54: 00                 NOP     
00002A55: 00                 NOP     
00002A56: 00                 NOP     
00002A57: 00                 NOP     
00002A58: 00                 NOP     
00002A59: 00                 NOP     
00002A5A: 00                 NOP     
00002A5B: 00                 NOP     
00002A5C: 00                 NOP     
00002A5D: 00                 NOP     
00002A5E: 00                 NOP     
00002A5F: 00                 NOP     
00002A60: 00                 NOP     
00002A61: 04 00 00           LXI     SP,$0000
00002A64: 00                 NOP     
00002A65: 00                 NOP     
00002A66: 00                 NOP     
00002A67: 00                 NOP     
00002A68: 00                 NOP     
00002A69: 00                 NOP     
00002A6A: 00                 NOP     
00002A6B: 00                 NOP     
00002A6C: 00                 NOP     
00002A6D: 00                 NOP     
00002A6E: 00                 NOP     
00002A6F: 00                 NOP     
00002A70: 08                 MOV     A,EAH
00002A71: 0C                 MOV     A,D
00002A72: 00                 NOP     
00002A73: 00                 NOP     
00002A74: 00                 NOP     
00002A75: 00                 NOP     
00002A76: 00                 NOP     
00002A77: 00                 NOP     
00002A78: 00                 NOP     
00002A79: 00                 NOP     
00002A7A: 00                 NOP     
00002A7B: 00                 NOP     
00002A7C: 00                 NOP     
00002A7D: 00                 NOP     
00002A7E: 00                 NOP     
00002A7F: 00                 NOP     
00002A80: 00                 NOP     
00002A81: 04 00 00           LXI     SP,$0000
00002A84: 00                 NOP     
00002A85: 00                 NOP     
00002A86: 00                 NOP     
00002A87: 00                 NOP     
00002A88: 00                 NOP     
00002A89: 00                 NOP     
00002A8A: 00                 NOP     
00002A8B: 00                 NOP     
00002A8C: 00                 NOP     
00002A8D: 00                 NOP     
00002A8E: 18                 MOV     EAH,A
00002A8F: 10                 EXA     
00002A90: 18                 MOV     EAH,A
00002A91: 1C                 MOV     D,A
00002A92: 00                 NOP     
00002A93: 00                 NOP     
00002A94: 00                 NOP     
00002A95: 00                 NOP     
00002A96: 00                 NOP     
00002A97: 00                 NOP     
00002A98: 00                 NOP     
00002A99: 00                 NOP     
00002A9A: 00                 NOP     
00002A9B: 00                 NOP     
00002A9C: 00                 NOP     
00002A9D: 00                 NOP     
00002A9E: 00                 NOP     
00002A9F: 00                 NOP     
00002AA0: 00                 NOP     
00002AA1: 04 00 00           LXI     SP,$0000
00002AA4: 00                 NOP     
00002AA5: 00                 NOP     
00002AA6: 00                 NOP     
00002AA7: 00                 NOP     
00002AA8: 00                 NOP     
00002AA9: 00                 NOP     
00002AAA: 00                 NOP     
00002AAB: 00                 NOP     
00002AAC: 00                 NOP     
00002AAD: 00                 NOP     
00002AAE: 00                 NOP     
00002AAF: 00                 NOP     
00002AB0: 08                 MOV     A,EAH
00002AB1: 0C                 MOV     A,D
00002AB2: 00                 NOP     
00002AB3: 00                 NOP     
00002AB4: 00                 NOP     
00002AB5: 00                 NOP     
00002AB6: 00                 NOP     
00002AB7: 00                 NOP     
00002AB8: 00                 NOP     
00002AB9: 00                 NOP     
00002ABA: 00                 NOP     
00002ABB: 00                 NOP     
00002ABC: 00                 NOP     
00002ABD: 00                 NOP     
00002ABE: 00                 NOP     
00002ABF: 00                 NOP     
00002AC0: 00                 NOP     
00002AC1: 04 40 40           LXI     SP,$4040
00002AC4: 40 40 40           CALL    $4040
00002AC7: 40 40 40           CALL    $4040
00002ACA: 60 60              SUB     V,A
00002ACC: 60 60              SUB     V,A
00002ACE: 78 70              CALF    $0870
00002AD0: 78 7C              CALF    $087C
00002AD2: 55 07 40           OFFIW   VV:07,$40
00002AD5: C7                 JR      $2ADD
00002AD6: 45 09 06           ONIW    VV:09,$06
00002AD9: 69 06              MVI     A,$06
00002ADB: 69 0C              MVI     A,$0C
00002ADD: 69 00              MVI     A,$00
00002ADF: 40 97 24           CALL    $2497
00002AE2: 05 38 EF           ANIW    VV:38,$EF
00002AE5: 40 A0 23           CALL    $23A0
00002AE8: 00                 NOP     
00002AE9: B8                 RET     
00002AEA: 44 00 00           LXI     EA,$0000
00002AED: 70 6A 00 C0        MOV     B,($C000)
00002AF1: 74 5A 80           OFFI    B,$80
00002AF4: C2                 JR      $2AF7
00002AF5: 48 94              STEAX   (DE++)
00002AF7: 51                 DCR     A
00002AF8: F4                 JR      $2AED
00002AF9: B8                 RET     
00002AFA: 40 8F 2E           CALL    $2E8F
00002AFD: 69 20              MVI     A,$20
00002AFF: 69 00              MVI     A,$00
00002B01: 1A                 MOV     B,A
00002B02: 70 6B 4F 98        MOV     C,($984F)
00002B06: B1                 PUSH    BC
00002B07: 90                 CALT    ($00A0)
00002B08: 69 00              MVI     A,$00
00002B0A: 69 10              MVI     A,$10
00002B0C: A1                 POP     BC
00002B0D: 60 9A              ORA     A,B
00002B0F: 1A                 MOV     B,A
00002B10: 60 93              XRA     A,C
00002B12: 47 30              ONI     A,$30
00002B14: D8                 JR      $2B2D
00002B15: 74 0B 4F           ANI     C,$4F
00002B18: 0A                 MOV     A,B
00002B19: 60 9B              ORA     A,C
00002B1B: 63 4F              STAW    VV:4F
00002B1D: 14 00 00           LXI     BC,$0000
00002B20: 70 1E 4B 98        SBCD    $984B
00002B24: 5D 4F              BIT     5,VV:4F
00002B26: C6                 JR      $2B2D
00002B27: 5C 4F              BIT     4,VV:4F
00002B29: 15 14 02           ORIW    VV:14,$02
00002B2C: C6                 JR      $2B33
00002B2D: 55 4F 10           OFFIW   VV:4F,$10
00002B30: 15 14 02           ORIW    VV:14,$02
00002B33: 40 BF 32           CALL    $32BF
00002B36: 69 05              MVI     A,$05
00002B38: 70 79 07 C0        MOV     ($C007),A
00002B3C: 64 1A 04           ORI     PC,$04
00002B3F: 6B 1E              MVI     C,$1E
00002B41: 80                 CALT    ($0080)
00002B42: 64 0A FB           ANI     PC,$FB
00002B45: 6B 19              MVI     C,$19
00002B47: 80                 CALT    ($0080)
00002B48: 5C 4F              BIT     4,VV:4F
00002B4A: 55 4F 20           OFFIW   VV:4F,$20
00002B4D: 69 0C              MVI     A,$0C
00002B4F: 69 24              MVI     A,$24
00002B51: 40 12 30           CALL    $3012
00002B54: 40 1C 30           CALL    $301C
00002B57: 15 13 02           ORIW    VV:13,$02
00002B5A: 71 2C 24           MVIW    VV:2C,$24
00002B5D: 14 00 00           LXI     BC,$0000
00002B60: 70 1E 2B 99        SBCD    $992B
00002B64: 71 26 00           MVIW    VV:26,$00
00002B67: B8                 RET     
00002B68: 01 26              LDAW    VV:26
00002B6A: 67 00              NEI     A,$00
00002B6C: B8                 RET     
00002B6D: 4E 31              JRE     $2BA0
00002B6F: 40 EC 32           CALL    $32EC
00002B72: 54 79 2D           JMP     $2D79
00002B75: 40 F3 32           CALL    $32F3
00002B78: 48 83              LDEAX   (HL)
00002B7A: 70 3F 2B 99        LHLD    $992B
00002B7E: 74 E7              DSUB    EA,HL
00002B80: B5                 DMOV    BC,EA
00002B81: C6                 JR      $2B88
00002B82: 70 6B 2C 98        MOV     C,($982C)
00002B86: 6A 00              MVI     B,$00
00002B88: B1                 PUSH    BC
00002B89: 55 14 40           OFFIW   VV:14,$40
00002B8C: 40 13 2C           CALL    $2C13
00002B8F: 40 B0 31           CALL    $31B0
00002B92: A1                 POP     BC
00002B93: 40 B8 2B           CALL    $2BB8
00002B96: 01 26              LDAW    VV:26
00002B98: A5                 DMOV    EA,BC
00002B99: 70 61              ESUB    EA,A
00002B9B: 48 0A              SK      CY
00002B9D: D4                 JR      $2BB2
00002B9E: 60 E3              SUB     A,C
00002BA0: 46 0C              ADI     A,$0C
00002BA2: 5D 4F              BIT     5,VV:4F
00002BA4: 46 18              ADI     A,$18
00002BA6: 1B                 MOV     C,A
00002BA7: 6A 80              MVI     B,$80
00002BA9: 91                 CALT    ($00A2)
00002BAA: 44 0C 00           LXI     EA,$000C
00002BAD: 5D 4F              BIT     5,VV:4F
00002BAF: 44 24 00           LXI     EA,$0024
00002BB2: B5                 DMOV    BC,EA
00002BB3: 91                 CALT    ($00A2)
00002BB4: 71 26 00           MVIW    VV:26,$00
00002BB7: B8                 RET     
00002BB8: 05 03 FE           ANIW    VV:03,$FE
00002BBB: 40 F3 32           CALL    $32F3
00002BBE: 48 83              LDEAX   (HL)
00002BC0: B6                 DMOV    DE,EA
00002BC1: 34 2B 99           LXI     HL,$992B
00002BC4: 48 83              LDEAX   (HL)
00002BC6: 74 C5              DADD    EA,BC
00002BC8: 74 BE              DLT     EA,DE
00002BCA: CE                 JR      $2BD9
00002BCB: 55 4F 20           OFFIW   VV:4F,$20
00002BCE: 4E 2E              JRE     $2BFE
00002BD0: 70 3F 2F 99        LHLD    $992F
00002BD4: 74 BF              DLT     EA,HL
00002BD6: DD                 JR      $2BF4
00002BD7: 4E 25              JRE     $2BFE
00002BD9: 05 13 FD           ANIW    VV:13,$FD
00002BDC: B3                 PUSH    HL
00002BDD: 34 00 00           LXI     HL,$0000
00002BE0: 70 3E 75 9A        SHLD    $9A75
00002BE4: A3                 POP     HL
00002BE5: 40 E5 32           CALL    $32E5
00002BE8: C7                 JR      $2BF0
00002BE9: A3                 POP     HL
00002BEA: 71 26 00           MVIW    VV:26,$00
00002BED: 54 7D 2D           JMP     $2D7D
00002BF0: 74 E6              DSUB    EA,DE
00002BF2: 4F D4              JRE     $2BC8
00002BF4: B7                 DMOV    HL,EA
00002BF5: A6                 DMOV    EA,DE
00002BF6: 74 E7              DSUB    EA,HL
00002BF8: 74 C5              DADD    EA,BC
00002BFA: B5                 DMOV    BC,EA
00002BFB: 44 00 00           LXI     EA,$0000
00002BFE: 34 2B 99           LXI     HL,$992B
00002C01: 48 93              STEAX   (HL)
00002C03: 34 4B 98           LXI     HL,$984B
00002C06: 48 83              LDEAX   (HL)
00002C08: 74 C5              DADD    EA,BC
00002C0A: 08                 MOV     A,EAH
00002C0B: 57 C0              OFFI    A,$C0
00002C0D: 44 FF 3F           LXI     EA,$3FFF
00002C10: 48 93              STEAX   (HL)
00002C12: B8                 RET     
00002C13: 40 08 2E           CALL    $2E08
00002C16: D0                 JR      $2C27
00002C17: 40 EC 32           CALL    $32EC
00002C1A: 54 47 2D           JMP     $2D47
00002C1D: 55 01 04           OFFIW   VV:01,$04
00002C20: C6                 JR      $2C27
00002C21: 40 7D 2D           CALL    $2D7D
00002C24: 54 07 2D           JMP     $2D07
00002C27: 05 14 FD           ANIW    VV:14,$FD
00002C2A: B8                 RET     
00002C2B: 40 CF 32           CALL    $32CF
00002C2E: 5E 14              BIT     6,VV:14
00002C30: B8                 RET     
00002C31: 40 4E 10           CALL    $104E
00002C34: 54 C2 0E           JMP     $0EC2
00002C37: 40 CF 32           CALL    $32CF
00002C3A: 40 4B 2E           CALL    $2E4B
00002C3D: 00                 NOP     
00002C3E: 90                 CALT    ($00A0)
00002C3F: CC                 JR      $2C4C
00002C40: 15 13 04           ORIW    VV:13,$04
00002C43: 55 13 20           OFFIW   VV:13,$20
00002C46: 40 C4 32           CALL    $32C4
00002C49: 05 13 DF           ANIW    VV:13,$DF
00002C4C: 14 E4 0F           LXI     BC,$0FE4
00002C4F: 99                 CALT    ($00B2)
00002C50: 40 79 2C           CALL    $2C79
00002C53: 14 EB 0F           LXI     BC,$0FEB
00002C56: 99                 CALT    ($00B2)
00002C57: 40 A4 2C           CALL    $2CA4
00002C5A: 14 F2 0F           LXI     BC,$0FF2
00002C5D: 99                 CALT    ($00B2)
00002C5E: 40 B2 2C           CALL    $2CB2
00002C61: 54 B9 32           JMP     $32B9
00002C64: 59 14              BIT     1,VV:14
00002C66: C6                 JR      $2C6D
00002C67: 5D 4F              BIT     5,VV:4F
00002C69: B8                 RET     
00002C6A: 90                 CALT    ($00A0)
00002C6B: B8                 RET     
00002C6C: B9                 RETS    
00002C6D: 5A 13              BIT     2,VV:13
00002C6F: B9                 RETS    
00002C70: 90                 CALT    ($00A0)
00002C71: B8                 RET     
00002C72: 5D 4F              BIT     5,VV:4F
00002C74: 40 08 2E           CALL    $2E08
00002C77: B9                 RETS    
00002C78: B8                 RET     
00002C79: 40 64 2C           CALL    $2C64
00002C7C: 4E 52              JRE     $2CD0
00002C7E: 05 13 FB           ANIW    VV:13,$FB
00002C81: 15 13 01           ORIW    VV:13,$01
00002C84: 40 82 2B           CALL    $2B82
00002C87: 40 7E 30           CALL    $307E
00002C8A: 40 E4 0F           CALL    $0FE4
00002C8D: B8                 RET     
00002C8E: 70 1F 0F 99        LBCD    $990F
00002C92: 44 06 00           LXI     EA,$0006
00002C95: 74 AD              DGT     EA,BC
00002C97: F2                 JR      $2C8A
00002C98: 40 E5 32           CALL    $32E5
00002C9B: E8                 JR      $2C84
00002C9C: 59 14              BIT     1,VV:14
00002C9E: 40 08 2E           CALL    $2E08
00002CA1: E2                 JR      $2C84
00002CA2: 4E D9              JRE     $2D7D
00002CA4: 40 EC 32           CALL    $32EC
00002CA7: CA                 JR      $2CB2
00002CA8: 40 64 2C           CALL    $2C64
00002CAB: C9                 JR      $2CB5
00002CAC: 05 13 FB           ANIW    VV:13,$FB
00002CAF: 54 6F 2B           JMP     $2B6F
00002CB2: 55 14 02           OFFIW   VV:14,$02
00002CB5: DA                 JR      $2CD0
00002CB6: 5A 13              BIT     2,VV:13
00002CB8: C5                 JR      $2CBE
00002CB9: 90                 CALT    ($00A0)
00002CBA: D5                 JR      $2CD0
00002CBB: 5D 4F              BIT     5,VV:4F
00002CBD: DC                 JR      $2CDA
00002CBE: 4E B9              JRE     $2D79
00002CC0: 5D 13              BIT     5,VV:13
00002CC2: C9                 JR      $2CCC
00002CC3: 40 EC 32           CALL    $32EC
00002CC6: 4E B1              JRE     $2D79
00002CC8: 05 13 DF           ANIW    VV:13,$DF
00002CCB: B8                 RET     
00002CCC: 40 08 2E           CALL    $2E08
00002CCF: B8                 RET     
00002CD0: 40 EC 32           CALL    $32EC
00002CD3: 4E 72              JRE     $2D47
00002CD5: 55 4F 20           OFFIW   VV:4F,$20
00002CD8: 4E 81              JRE     $2D5B
00002CDA: 90                 CALT    ($00A0)
00002CDB: 40 91 2D           CALL    $2D91
00002CDE: 90                 CALT    ($00A0)
00002CDF: 4E 22              JRE     $2D03
00002CE1: 14 D0 02           LXI     BC,$02D0
00002CE4: 59 14              BIT     1,VV:14
00002CE6: 40 6F 2D           CALL    $2D6F
00002CE9: 91                 CALT    ($00A2)
00002CEA: 14 AC 02           LXI     BC,$02AC
00002CED: 40 D2 2E           CALL    $2ED2
00002CF0: D6                 JR      $2D07
00002CF1: 40 D0 31           CALL    $31D0
00002CF4: 14 B2 80           LXI     BC,$80B2
00002CF7: 91                 CALT    ($00A2)
00002CF8: 70 1F 47 98        LBCD    $9847
00002CFC: 44 42 00           LXI     EA,$0042
00002CFF: 74 C5              DADD    EA,BC
00002D01: B5                 DMOV    BC,EA
00002D02: 91                 CALT    ($00A2)
00002D03: 40 25 2D           CALL    $2D25
00002D06: D5                 JR      $2D1C
00002D07: 40 C4 32           CALL    $32C4
00002D0A: 59 14              BIT     1,VV:14
00002D0C: 4E 97              JRE     $2DA5
00002D0E: 55 14 40           OFFIW   VV:14,$40
00002D11: 15 13 40           ORIW    VV:13,$40
00002D14: 5E 14              BIT     6,VV:14
00002D16: 15 13 80           ORIW    VV:13,$80
00002D19: 54 2B 2C           JMP     $2C2B
00002D1C: 05 13 3B           ANIW    VV:13,$3B
00002D1F: 5D 4F              BIT     5,VV:4F
00002D21: 15 14 10           ORIW    VV:14,$10
00002D24: B8                 RET     
00002D25: 40 B9 32           CALL    $32B9
00002D28: 05 14 FD           ANIW    VV:14,$FD
00002D2B: 90                 CALT    ($00A0)
00002D2C: C1                 JR      $2D2E
00002D2D: B9                 RETS    
00002D2E: 14 00 00           LXI     BC,$0000
00002D31: 70 1E 2B 99        SBCD    $992B
00002D35: 70 1E 29 99        SBCD    $9929
00002D39: 70 1E 4B 98        SBCD    $984B
00002D3D: 71 26 00           MVIW    VV:26,$00
00002D40: 05 13 FD           ANIW    VV:13,$FD
00002D43: 05 14 FD           ANIW    VV:14,$FD
00002D46: B8                 RET     
00002D47: 59 14              BIT     1,VV:14
00002D49: 40 79 2D           CALL    $2D79
00002D4C: 90                 CALT    ($00A0)
00002D4D: CD                 JR      $2D5B
00002D4E: 14 B6 8A           LXI     BC,$8AB6
00002D51: 91                 CALT    ($00A2)
00002D52: 14 DE 01           LXI     BC,$01DE
00002D55: 40 D2 2E           CALL    $2ED2
00002D58: 4F AD              JRE     $2D07
00002D5A: C4                 JR      $2D5F
00002D5B: 90                 CALT    ($00A0)
00002D5C: C2                 JR      $2D5F
00002D5D: 4F A8              JRE     $2D07
00002D5F: 40 D0 31           CALL    $31D0
00002D62: 70 1F 43 98        LBCD    $9843
00002D66: 44 81 01           LXI     EA,$0181
00002D69: 74 C5              DADD    EA,BC
00002D6B: B5                 DMOV    BC,EA
00002D6C: 91                 CALT    ($00A2)
00002D6D: 4F 94              JRE     $2D03
00002D6F: 14 AE 04           LXI     BC,$04AE
00002D72: 40 E5 32           CALL    $32E5
00002D75: 14 93 03           LXI     BC,$0393
00002D78: B8                 RET     
00002D79: 5D 4F              BIT     5,VV:4F
00002D7B: 4E 14              JRE     $2D91
00002D7D: 40 08 2E           CALL    $2E08
00002D80: 40 D0 31           CALL    $31D0
00002D83: 14 20 25           LXI     BC,$2520
00002D86: 40 E5 32           CALL    $32E5
00002D89: 14 D0 0B           LXI     BC,$0BD0
00002D8C: 91                 CALT    ($00A2)
00002D8D: 40 6F 2D           CALL    $2D6F
00002D90: CD                 JR      $2D9E
00002D91: 90                 CALT    ($00A0)
00002D92: C1                 JR      $2D94
00002D93: E9                 JR      $2D7D
00002D94: 40 D0 31           CALL    $31D0
00002D97: 14 80 8D           LXI     BC,$8D80
00002D9A: 91                 CALT    ($00A2)
00002D9B: 14 70 00           LXI     BC,$0070
00002D9E: 40 AE 2E           CALL    $2EAE
00002DA1: CC                 JR      $2DAE
00002DA2: 05 14 EF           ANIW    VV:14,$EF
00002DA5: 05 13 DF           ANIW    VV:13,$DF
00002DA8: 15 14 02           ORIW    VV:14,$02
00002DAB: 54 BF 32           JMP     $32BF
00002DAE: 15 13 20           ORIW    VV:13,$20
00002DB1: 40 E5 32           CALL    $32E5
00002DB4: C7                 JR      $2DBC
00002DB5: 40 25 2D           CALL    $2D25
00002DB8: 15 13 02           ORIW    VV:13,$02
00002DBB: C6                 JR      $2DC2
00002DBC: 40 B9 32           CALL    $32B9
00002DBF: 40 C5 2D           CALL    $2DC5
00002DC2: 54 2B 2C           JMP     $2C2B
00002DC5: 5D 4F              BIT     5,VV:4F
00002DC7: DC                 JR      $2DE4
00002DC8: 44 D0 0B           LXI     EA,$0BD0
00002DCB: 70 3F 2B 99        LHLD    $992B
00002DCF: 74 C7              DADD    EA,HL
00002DD1: 01 26              LDAW    VV:26
00002DD3: 70 41              EADD    EA,A
00002DD5: 70 3F 2D 99        LHLD    $992D
00002DD9: 74 BF              DLT     EA,HL
00002DDB: C2                 JR      $2DDE
00002DDC: 4E 21              JRE     $2DFF
00002DDE: 74 E7              DSUB    EA,HL
00002DE0: 74 BF              DLT     EA,HL
00002DE2: FB                 JR      $2DDE
00002DE3: DB                 JR      $2DFF
00002DE4: 70 3F 2B 99        LHLD    $992B
00002DE8: A7                 DMOV    EA,HL
00002DE9: 01 26              LDAW    VV:26
00002DEB: 70 41              EADD    EA,A
00002DED: 34 80 0D           LXI     HL,$0D80
00002DF0: 74 B7              DSUBNB  EA,HL
00002DF2: C1                 JR      $2DF4
00002DF3: CB                 JR      $2DFF
00002DF4: 70 3F 31 99        LHLD    $9931
00002DF8: 24 00 00           LXI     DE,$0000
00002DFB: 74 A7              DADDNC  EA,HL
00002DFD: C1                 JR      $2DFF
00002DFE: FC                 JR      $2DFB
00002DFF: B7                 DMOV    HL,EA
00002E00: 70 3E 2B 99        SHLD    $992B
00002E04: 71 26 00           MVIW    VV:26,$00
00002E07: B8                 RET     
00002E08: BA                 DI      
00002E09: 70 2F 29 99        LDED    $9929
00002E0D: 70 3F 0F 99        LHLD    $990F
00002E11: AA                 EI      
00002E12: 44 00 00           LXI     EA,$0000
00002E15: 74 FF              DEQ     EA,HL
00002E17: C9                 JR      $2E21
00002E18: A6                 DMOV    EA,DE
00002E19: 01 26              LDAW    VV:26
00002E1B: 70 61              ESUB    EA,A
00002E1D: 48 1A              SKN     CY
00002E1F: B8                 RET     
00002E20: C7                 JR      $2E28
00002E21: A6                 DMOV    EA,DE
00002E22: 5F 01              BIT     7,VV:01
00002E24: CA                 JR      $2E2F
00002E25: 74 B7              DSUBNB  EA,HL
00002E27: B8                 RET     
00002E28: 24 42 01           LXI     DE,$0142
00002E2B: 74 AE              DGT     EA,DE
00002E2D: B8                 RET     
00002E2E: B9                 RETS    
00002E2F: 74 C7              DADD    EA,HL
00002E31: 24 42 01           LXI     DE,$0142
00002E34: 74 AE              DGT     EA,DE
00002E36: B8                 RET     
00002E37: 8D                 CALT    ($009A)
00002E38: 4F CE              JRE     $2E08
00002E3A: 40 C8 0F           CALL    $0FC8
00002E3D: C3                 JR      $2E41
00002E3E: 40 BF 0F           CALL    $0FBF
00002E41: 15 4F 10           ORIW    VV:4F,$10
00002E44: 47 02              ONI     A,$02
00002E46: B9                 RETS    
00002E47: 05 4F EF           ANIW    VV:4F,$EF
00002E4A: B8                 RET     
00002E4B: 40 8F 2E           CALL    $2E8F
00002E4E: D9                 JR      $2E68
00002E4F: 55 4F 20           OFFIW   VV:4F,$20
00002E52: CD                 JR      $2E60
00002E53: 5A 13              BIT     2,VV:13
00002E55: B9                 RETS    
00002E56: 90                 CALT    ($00A0)
00002E57: C1                 JR      $2E59
00002E58: B9                 RETS    
00002E59: 81                 CALT    ($0082)
00002E5A: F0                 JR      $2E4B
00002E5B: 81                 CALT    ($0082)
00002E5C: 40 8F 2E           CALL    $2E8F
00002E5F: B9                 RETS    
00002E60: 40 7D 2E           CALL    $2E7D
00002E63: F7                 JR      $2E5B
00002E64: 05 4F DF           ANIW    VV:4F,$DF
00002E67: D2                 JR      $2E7A
00002E68: 55 4F 20           OFFIW   VV:4F,$20
00002E6B: B9                 RETS    
00002E6C: C6                 JR      $2E73
00002E6D: 81                 CALT    ($0082)
00002E6E: 40 8F 2E           CALL    $2E8F
00002E71: C1                 JR      $2E73
00002E72: B9                 RETS    
00002E73: 40 7D 2E           CALL    $2E7D
00002E76: F6                 JR      $2E6D
00002E77: 15 4F 20           ORIW    VV:4F,$20
00002E7A: 54 BF 32           JMP     $32BF
00002E7D: 40 08 2E           CALL    $2E08
00002E80: C1                 JR      $2E82
00002E81: B9                 RETS    
00002E82: 70 1F 29 99        LBCD    $9929
00002E86: 44 00 00           LXI     EA,$0000
00002E89: 74 FD              DEQ     EA,BC
00002E8B: B8                 RET     
00002E8C: 90                 CALT    ($00A0)
00002E8D: B8                 RET     
00002E8E: B9                 RETS    
00002E8F: 40 9F 2E           CALL    $2E9F
00002E92: C4                 JR      $2E97
00002E93: 5D 4F              BIT     5,VV:4F
00002E95: B9                 RETS    
00002E96: C4                 JR      $2E9B
00002E97: 55 4F 20           OFFIW   VV:4F,$20
00002E9A: B8                 RET     
00002E9B: 40 C8 0F           CALL    $0FC8
00002E9E: C3                 JR      $2EA2
00002E9F: 40 BF 0F           CALL    $0FBF
00002EA2: 57 04              OFFI    A,$04
00002EA4: B8                 RET     
00002EA5: B9                 RETS    
00002EA6: 0B                 MOV     A,C
00002EA7: 74 C0 26           ADDW    VV:26
00002EAA: 63 26              STAW    VV:26
00002EAC: 91                 CALT    ($00A2)
00002EAD: B8                 RET     
00002EAE: 8D                 CALT    ($009A)
00002EAF: 34 0F 99           LXI     HL,$990F
00002EB2: 48 83              LDEAX   (HL)
00002EB4: 24 00 00           LXI     DE,$0000
00002EB7: 74 AE              DGT     EA,DE
00002EB9: B8                 RET     
00002EBA: 5C 4F              BIT     4,VV:4F
00002EBC: F1                 JR      $2EAE
00002EBD: B6                 DMOV    DE,EA
00002EBE: 48 83              LDEAX   (HL)
00002EC0: 74 EE              DNE     EA,DE
00002EC2: FB                 JR      $2EBE
00002EC3: 5C 4F              BIT     4,VV:4F
00002EC5: E8                 JR      $2EAE
00002EC6: 70 3F 0F 99        LHLD    $990F
00002ECA: 70 3E 77 9A        SHLD    $9A77
00002ECE: 40 F0 2E           CALL    $2EF0
00002ED1: B9                 RETS    
00002ED2: 8D                 CALT    ($009A)
00002ED3: 34 0F 99           LXI     HL,$990F
00002ED6: 48 83              LDEAX   (HL)
00002ED8: 24 00 00           LXI     DE,$0000
00002EDB: 74 AE              DGT     EA,DE
00002EDD: B8                 RET     
00002EDE: 55 4F 10           OFFIW   VV:4F,$10
00002EE1: F0                 JR      $2ED2
00002EE2: B6                 DMOV    DE,EA
00002EE3: 48 83              LDEAX   (HL)
00002EE5: 74 EE              DNE     EA,DE
00002EE7: FB                 JR      $2EE3
00002EE8: 55 4F 10           OFFIW   VV:4F,$10
00002EEB: E6                 JR      $2ED2
00002EEC: 40 F0 2E           CALL    $2EF0
00002EEF: B9                 RETS    
00002EF0: BA                 DI      
00002EF1: 55 01 10           OFFIW   VV:01,$10
00002EF4: 55 01 22           OFFIW   VV:01,$22
00002EF7: C6                 JR      $2EFE
00002EF8: 70 1E 0F 99        SBCD    $990F
00002EFC: AA                 EI      
00002EFD: B8                 RET     
00002EFE: AA                 EI      
00002EFF: 40 B9 32           CALL    $32B9
00002F02: 55 01 80           OFFIW   VV:01,$80
00002F05: 74 1A 80           ORI     B,$80
00002F08: 91                 CALT    ($00A2)
00002F09: B8                 RET     
00002F0A: 59 13              BIT     1,VV:13
00002F0C: 55 03 02           OFFIW   VV:03,$02
00002F0F: B9                 RETS    
00002F10: 5C 13              BIT     4,VV:13
00002F12: C7                 JR      $2F1A
00002F13: 40 67 30           CALL    $3067
00002F16: 40 B3 2F           CALL    $2FB3
00002F19: DA                 JR      $2F34
00002F1A: 45 0F C0           ONIW    VV:0F,$C0
00002F1D: 55 01 30           OFFIW   VV:01,$30
00002F20: B9                 RETS    
00002F21: 40 EC 32           CALL    $32EC
00002F24: 59 14              BIT     1,VV:14
00002F26: 55 13 02           OFFIW   VV:13,$02
00002F29: B9                 RETS    
00002F2A: 44 00 00           LXI     EA,$0000
00002F2D: 70 1F 2B 99        LBCD    $992B
00002F31: 74 FD              DEQ     EA,BC
00002F33: B9                 RETS    
00002F34: 5C 13              BIT     4,VV:13
00002F36: 55 4F 80           OFFIW   VV:4F,$80
00002F39: C9                 JR      $2F43
00002F3A: 40 EC 32           CALL    $32EC
00002F3D: D4                 JR      $2F52
00002F3E: 55 01 04           OFFIW   VV:01,$04
00002F41: D0                 JR      $2F52
00002F42: C9                 JR      $2F4C
00002F43: 70 1F 75 9A        LBCD    $9A75
00002F47: 44 FF 03           LXI     EA,$03FF
00002F4A: 74 ED              DNE     EA,BC
00002F4C: 40 3E 2E           CALL    $2E3E
00002F4F: C2                 JR      $2F52
00002F50: 4E 58              JRE     $2FAA
00002F52: 70 1F 75 9A        LBCD    $9A75
00002F56: 12                 INX     BC
00002F57: 44 FF 03           LXI     EA,$03FF
00002F5A: 74 BD              DLT     EA,BC
00002F5C: 40 1B 21           CALL    $211B
00002F5F: 14 00 00           LXI     BC,$0000
00002F62: 40 10 22           CALL    $2210
00002F65: 14 00 00           LXI     BC,$0000
00002F68: 70 1E 75 9A        SBCD    $9A75
00002F6C: 44 00 00           LXI     EA,$0000
00002F6F: 74 ED              DNE     EA,BC
00002F71: B9                 RETS    
00002F72: 55 13 10           OFFIW   VV:13,$10
00002F75: B9                 RETS    
00002F76: 44 00 00           LXI     EA,$0000
00002F79: 70 1F 4B 98        LBCD    $984B
00002F7D: 5F 4F              BIT     7,VV:4F
00002F7F: 74 ED              DNE     EA,BC
00002F81: D4                 JR      $2F96
00002F82: 5D 4F              BIT     5,VV:4F
00002F84: 55 14 01           OFFIW   VV:14,$01
00002F87: B9                 RETS    
00002F88: 70 1F 75 9A        LBCD    $9A75
00002F8C: 44 FF 03           LXI     EA,$03FF
00002F8F: 74 FD              DEQ     EA,BC
00002F91: B9                 RETS    
00002F92: 40 C8 2F           CALL    $2FC8
00002F95: D4                 JR      $2FAA
00002F96: 14 05 C8           LXI     BC,$C805
00002F99: B1                 PUSH    BC
00002F9A: 80                 CALT    ($0080)
00002F9B: 40 03 10           CALL    $1003
00002F9E: C9                 JR      $2FA8
00002F9F: A1                 POP     BC
00002FA0: 52                 DCR     B
00002FA1: F7                 JR      $2F99
00002FA2: 15 13 10           ORIW    VV:13,$10
00002FA5: 81                 CALT    ($0082)
00002FA6: 88                 CALT    ($0090)
00002FA7: B9                 RETS    
00002FA8: A1                 POP     BC
00002FA9: B9                 RETS    
00002FAA: 05 4F 7F           ANIW    VV:4F,$7F
00002FAD: 05 13 EF           ANIW    VV:13,$EF
00002FB0: 54 BF 32           JMP     $32BF
00002FB3: 70 1F 75 9A        LBCD    $9A75
00002FB7: 44 FF 03           LXI     EA,$03FF
00002FBA: 74 FD              DEQ     EA,BC
00002FBC: B8                 RET     
00002FBD: 70 69 04 C0        MOV     A,($C004)
00002FC1: 16 10              XRI     A,$10
00002FC3: 70 79 04 C0        MOV     ($C004),A
00002FC7: B8                 RET     
00002FC8: 40 B9 32           CALL    $32B9
00002FCB: 90                 CALT    ($00A0)
00002FCC: C1                 JR      $2FCE
00002FCD: B8                 RET     
00002FCE: 44 68 02           LXI     EA,$0268
00002FD1: 70 1F 49 98        LBCD    $9849
00002FD5: 74 C5              DADD    EA,BC
00002FD7: 70 1F 47 98        LBCD    $9847
00002FDB: 74 E5              DSUB    EA,BC
00002FDD: B5                 DMOV    BC,EA
00002FDE: 91                 CALT    ($00A2)
00002FDF: 40 B9 32           CALL    $32B9
00002FE2: 90                 CALT    ($00A0)
00002FE3: C1                 JR      $2FE5
00002FE4: B8                 RET     
00002FE5: 15 4F 80           ORIW    VV:4F,$80
00002FE8: B9                 RETS    
00002FE9: 55 4F 80           OFFIW   VV:4F,$80
00002FEC: 40 1C 30           CALL    $301C
00002FEF: 5C 13              BIT     4,VV:13
00002FF1: B8                 RET     
00002FF2: 05 13 EF           ANIW    VV:13,$EF
00002FF5: 14 00 00           LXI     BC,$0000
00002FF8: 70 1E 75 9A        SBCD    $9A75
00002FFC: 70 69 04 C0        MOV     A,($C004)
00003000: 17 10              ORI     A,$10
00003002: 70 79 04 C0        MOV     ($C004),A
00003006: 5B 13              BIT     3,VV:13
00003008: B8                 RET     
00003009: 05 13 F7           ANIW    VV:13,$F7
0000300C: 5D 4F              BIT     5,VV:4F
0000300E: 69 24              MVI     A,$24
00003010: 69 0C              MVI     A,$0C
00003012: 1B                 MOV     C,A
00003013: B1                 PUSH    BC
00003014: 6A 80              MVI     B,$80
00003016: 91                 CALT    ($00A2)
00003017: A1                 POP     BC
00003018: 6A 00              MVI     B,$00
0000301A: 91                 CALT    ($00A2)
0000301B: B8                 RET     
0000301C: 5F 4F              BIT     7,VV:4F
0000301E: B8                 RET     
0000301F: 40 D0 31           CALL    $31D0
00003022: 44 8C 02           LXI     EA,$028C
00003025: 70 1F 49 98        LBCD    $9849
00003029: 74 C5              DADD    EA,BC
0000302B: 70 1F 47 98        LBCD    $9847
0000302F: 74 E5              DSUB    EA,BC
00003031: B5                 DMOV    BC,EA
00003032: 74 1A 80           ORI     B,$80
00003035: 91                 CALT    ($00A2)
00003036: 05 4F 7F           ANIW    VV:4F,$7F
00003039: 14 24 00           LXI     BC,$0024
0000303C: 91                 CALT    ($00A2)
0000303D: 40 B9 32           CALL    $32B9
00003040: 14 00 00           LXI     BC,$0000
00003043: 70 1E 4B 98        SBCD    $984B
00003047: 05 14 EF           ANIW    VV:14,$EF
0000304A: 15 13 02           ORIW    VV:13,$02
0000304D: B8                 RET     
0000304E: 5C 14              BIT     4,VV:14
00003050: B8                 RET     
00003051: 05 14 EF           ANIW    VV:14,$EF
00003054: 40 F3 32           CALL    $32F3
00003057: 48 83              LDEAX   (HL)
00003059: 70 3F 4B 98        LHLD    $984B
0000305D: 32                 INX     HL
0000305E: 5D 4F              BIT     5,VV:4F
00003060: 74 BF              DLT     EA,HL
00003062: B8                 RET     
00003063: 69 24              MVI     A,$24
00003065: 4F AB              JRE     $3012
00003067: 15 13 01           ORIW    VV:13,$01
0000306A: 40 E4 0F           CALL    $0FE4
0000306D: C4                 JR      $3072
0000306E: 40 D1 30           CALL    $30D1
00003071: C5                 JR      $3077
00003072: 87                 CALT    ($008E)
00003073: B8                 RET     
00003074: 40 9C 30           CALL    $309C
00003077: 40 B9 32           CALL    $32B9
0000307A: 40 7E 30           CALL    $307E
0000307D: EC                 JR      $306A
0000307E: 58 13              BIT     0,VV:13
00003080: B8                 RET     
00003081: 40 B9 32           CALL    $32B9
00003084: 14 02 87           LXI     BC,$8702
00003087: B1                 PUSH    BC
00003088: 80                 CALT    ($0080)
00003089: 40 BF 0F           CALL    $0FBF
0000308C: A1                 POP     BC
0000308D: 07 C0              ANI     A,$C0
0000308F: 67 C0              NEI     A,$C0
00003091: C6                 JR      $3098
00003092: 52                 DCR     B
00003093: F3                 JR      $3087
00003094: 05 13 FE           ANIW    VV:13,$FE
00003097: B8                 RET     
00003098: 15 13 01           ORIW    VV:13,$01
0000309B: B8                 RET     
0000309C: 44 00 00           LXI     EA,$0000
0000309F: 70 3F 4B 98        LHLD    $984B
000030A3: 74 FF              DEQ     EA,HL
000030A5: 4E 1B              JRE     $30C2
000030A7: 70 3F 47 98        LHLD    $9847
000030AB: 55 4F 20           OFFIW   VV:4F,$20
000030AE: 70 3F 43 98        LHLD    $9843
000030B2: 44 B0 01           LXI     EA,$01B0
000030B5: 74 FF              DEQ     EA,HL
000030B7: C4                 JR      $30BC
000030B8: 81                 CALT    ($0082)
000030B9: 87                 CALT    ($008E)
000030BA: B8                 RET     
000030BB: FC                 JR      $30B8
000030BC: 5D 4F              BIT     5,VV:4F
000030BE: 4E 60              JRE     $3120
000030C0: 4E 61              JRE     $3123
000030C2: 70 3F 49 98        LHLD    $9849
000030C6: 44 6C 00           LXI     EA,$006C
000030C9: 74 FF              DEQ     EA,HL
000030CB: 4E 59              JRE     $3126
000030CD: 81                 CALT    ($0082)
000030CE: 87                 CALT    ($008E)
000030CF: B8                 RET     
000030D0: FC                 JR      $30CD
000030D1: 44 00 00           LXI     EA,$0000
000030D4: 70 3F 4B 98        LHLD    $984B
000030D8: 74 FF              DEQ     EA,HL
000030DA: 4E 1D              JRE     $30F9
000030DC: 70 3F 47 98        LHLD    $9847
000030E0: 55 4F 20           OFFIW   VV:4F,$20
000030E3: 70 3F 43 98        LHLD    $9843
000030E7: 44 FC FF           LXI     EA,$FFFC
000030EA: 74 FF              DEQ     EA,HL
000030EC: C6                 JR      $30F3
000030ED: 81                 CALT    ($0082)
000030EE: 40 E4 0F           CALL    $0FE4
000030F1: B8                 RET     
000030F2: FA                 JR      $30ED
000030F3: 5D 4F              BIT     5,VV:4F
000030F5: 4E 13              JRE     $310A
000030F7: 4E 14              JRE     $310D
000030F9: 70 3F 49 98        LHLD    $9849
000030FD: 44 94 FF           LXI     EA,$FF94
00003100: 74 FF              DEQ     EA,HL
00003102: 4E 0C              JRE     $3110
00003104: 81                 CALT    ($0082)
00003105: 40 E4 0F           CALL    $0FE4
00003108: B8                 RET     
00003109: FA                 JR      $3104
0000310A: 34 47 98           LXI     HL,$9847
0000310D: 34 43 98           LXI     HL,$9843
00003110: 34 49 98           LXI     HL,$9849
00003113: 5F 4F              BIT     7,VV:4F
00003115: 15 13 08           ORIW    VV:13,$08
00003118: 48 83              LDEAX   (HL)
0000311A: A9                 DCX     EA
0000311B: A9                 DCX     EA
0000311C: 14 02 80           LXI     BC,$8002
0000311F: D0                 JR      $3130
00003120: 34 47 98           LXI     HL,$9847
00003123: 34 43 98           LXI     HL,$9843
00003126: 34 49 98           LXI     HL,$9849
00003129: 48 83              LDEAX   (HL)
0000312B: A8                 INX     EA
0000312C: A8                 INX     EA
0000312D: 14 02 00           LXI     BC,$0002
00003130: 48 93              STEAX   (HL)
00003132: B4                 PUSH    EA
00003133: 91                 CALT    ($00A2)
00003134: A4                 POP     EA
00003135: 34 00 00           LXI     HL,$0000
00003138: 74 FF              DEQ     EA,HL
0000313A: B8                 RET     
0000313B: 81                 CALT    ($0082)
0000313C: 54 26 10           JMP     $1026
0000313F: 44 FF 7F           LXI     EA,$7FFF
00003142: 74 CD              DON     EA,BC
00003144: B8                 RET     
00003145: BA                 DI      
00003146: 5F 01              BIT     7,VV:01
00003148: 74 5A 80           OFFI    B,$80
0000314B: D4                 JR      $3160
0000314C: 45 01 22           ONIW    VV:01,$22
0000314F: 5C 01              BIT     4,VV:01
00003151: CE                 JR      $3160
00003152: 5B 01              BIT     3,VV:01
00003154: CB                 JR      $3160
00003155: 34 0F 99           LXI     HL,$990F
00003158: 48 83              LDEAX   (HL)
0000315A: 74 C5              DADD    EA,BC
0000315C: 48 93              STEAX   (HL)
0000315E: AA                 EI      
0000315F: B8                 RET     
00003160: AA                 EI      
00003161: B1                 PUSH    BC
00003162: 8D                 CALT    ($009A)
00003163: 59 0F              BIT     1,VV:0F
00003165: 55 01 30           OFFIW   VV:01,$30
00003168: F9                 JR      $3162
00003169: 40 B0 31           CALL    $31B0
0000316C: A1                 POP     BC
0000316D: 15 01 90           ORIW    VV:01,$90
00003170: 74 4A 80           ONI     B,$80
00003173: 05 01 7F           ANIW    VV:01,$7F
00003176: 74 0A 7F           ANI     B,$7F
00003179: 70 1E 0F 99        SBCD    $990F
0000317D: 44 0A 00           LXI     EA,$000A
00003180: 74 BD              DLT     EA,BC
00003182: C6                 JR      $3189
00003183: 15 01 48           ORIW    VV:01,$48
00003186: 69 0B              MVI     A,$0B
00003188: C5                 JR      $318E
00003189: 05 01 B5           ANIW    VV:01,$B5
0000318C: 69 02              MVI     A,$02
0000318E: 63 27              STAW    VV:27
00003190: 64 1A 04           ORI     PC,$04
00003193: 69 04              MVI     A,$04
00003195: 4D CC              MOV     ETMM,A
00003197: BA                 DI      
00003198: 48 C0              DMOV    EA,ECNT
0000319A: 34 64 00           LXI     HL,$0064
0000319D: 74 C7              DADD    EA,HL
0000319F: 48 D2              DMOV    ETM0,EA
000031A1: 34 F5 31           LXI     HL,$31F5
000031A4: 70 3E 1B 98        SHLD    $981B
000031A8: 48 45              SKIT    FE0
000031AA: 00                 NOP     
000031AB: 64 0F DF           ANI     MKL,$DF
000031AE: AA                 EI      
000031AF: B8                 RET     
000031B0: 70 1F 4B 98        LBCD    $984B
000031B4: 34 43 98           LXI     HL,$9843
000031B7: 5D 4F              BIT     5,VV:4F
000031B9: 34 47 98           LXI     HL,$9847
000031BC: 48 83              LDEAX   (HL)
000031BE: 74 C5              DADD    EA,BC
000031C0: B5                 DMOV    BC,EA
000031C1: 74 5A 80           OFFI    B,$80
000031C4: CB                 JR      $31D0
000031C5: 44 68 01           LXI     EA,$0168
000031C8: 5D 4F              BIT     5,VV:4F
000031CA: 44 D4 01           LXI     EA,$01D4
000031CD: 74 AD              DGT     EA,BC
000031CF: B8                 RET     
000031D0: 5D 4F              BIT     5,VV:4F
000031D2: 54 85 78           JMP     $7885
000031D5: 54 82 78           JMP     $7882
000031D8: 70 1F 4B 98        LBCD    $984B
000031DC: 34 43 98           LXI     HL,$9843
000031DF: 5D 4F              BIT     5,VV:4F
000031E1: 34 47 98           LXI     HL,$9847
000031E4: 48 83              LDEAX   (HL)
000031E6: 74 C5              DADD    EA,BC
000031E8: B5                 DMOV    BC,EA
000031E9: 44 68 01           LXI     EA,$0168
000031EC: 5D 4F              BIT     5,VV:4F
000031EE: 44 D4 01           LXI     EA,$01D4
000031F1: 74 AD              DGT     EA,BC
000031F3: B9                 RETS    
000031F4: B8                 RET     
000031F5: 11                 EXX     
000031F6: 10                 EXA     
000031F7: B4                 PUSH    EA
000031F8: B0                 PUSH    VA
000031F9: B1                 PUSH    BC
000031FA: B3                 PUSH    HL
000031FB: 48 C0              DMOV    EA,ECNT
000031FD: B4                 PUSH    EA
000031FE: 5D 01              BIT     5,VV:01
00003200: D3                 JR      $3214
00003201: AA                 EI      
00003202: 64 4A 04           ONI     PC,$04
00003205: C5                 JR      $320B
00003206: 64 0A FB           ANI     PC,$FB
00003209: 4E 4F              JRE     $325A
0000320B: 64 1F 20           ORI     MKL,$20
0000320E: 05 01 DF           ANIW    VV:01,$DF
00003211: A4                 POP     EA
00003212: 4E 56              JRE     $326A
00003214: 40 6F 32           CALL    $326F
00003217: AA                 EI      
00003218: 40 3E 2E           CALL    $2E3E
0000321B: D3                 JR      $322F
0000321C: 70 3F 29 99        LHLD    $9929
00003220: 74 5E 80           OFFI    H,$80
00003223: 34 FF 7F           LXI     HL,$7FFF
00003226: 32                 INX     HL
00003227: 5F 01              BIT     7,VV:01
00003229: C8                 JR      $3232
0000322A: 33                 DCX     HL
0000322B: 33                 DCX     HL
0000322C: 74 5E 80           OFFI    H,$80
0000322F: 34 00 00           LXI     HL,$0000
00003232: 70 3E 29 99        SHLD    $9929
00003236: 34 0F 99           LXI     HL,$990F
00003239: 9F                 CALT    ($00BE)
0000323A: 14 00 00           LXI     BC,$0000
0000323D: 74 FD              DEQ     EA,BC
0000323F: C6                 JR      $3246
00003240: 15 01 20           ORIW    VV:01,$20
00003243: 05 01 ED           ANIW    VV:01,$ED
00003246: 5B 01              BIT     3,VV:01
00003248: CE                 JR      $3257
00003249: 14 04 00           LXI     BC,$0004
0000324C: 74 ED              DNE     EA,BC
0000324E: 15 01 02           ORIW    VV:01,$02
00003251: 65 27 06           NEIW    VV:27,$06
00003254: 05 01 BF           ANIW    VV:01,$BF
00003257: 55 01 62           OFFIW   VV:01,$62
0000325A: 30 27              DCRW    VV:27
0000325C: 01 27              LDAW    VV:27
0000325E: 48 25              SLL     A
00003260: 34 A3 32           LXI     HL,$32A3
00003263: 48 8C              LDEAX   (HL+A)
00003265: A3                 POP     HL
00003266: 74 C7              DADD    EA,HL
00003268: 48 D2              DMOV    ETM0,EA
0000326A: A3                 POP     HL
0000326B: A1                 POP     BC
0000326C: A0                 POP     VA
0000326D: A4                 POP     EA
0000326E: 62                 RETI    
0000326F: 5F 01              BIT     7,VV:01
00003271: 34 93 32           LXI     HL,$3293
00003274: 34 89 32           LXI     HL,$3289
00003277: 70 69 07 C0        MOV     A,($C007)
0000327B: AC                 LDAX    (HL+A)
0000327C: 1A                 MOV     B,A
0000327D: 70 79 07 C0        MOV     ($C007),A
00003281: AD                 LDAX    (HL+B)
00003282: 00                 NOP     
00003283: 00                 NOP     
00003284: 70 79 07 C0        MOV     ($C007),A
00003288: B8                 RET     
00003289: 09                 MOV     A,EAL
0000328A: 05 0A 09           ANIW    VV:0A,$09
0000328D: 06                 illegal 
0000328E: 04 02 09           LXI     SP,$0902
00003291: 09                 MOV     A,EAL
00003292: 01 08              LDAW    VV:08
00003294: 09                 MOV     A,EAL
00003295: 06                 illegal 
00003296: 09                 MOV     A,EAL
00003297: 05 01 04           ANIW    VV:01,$04
0000329A: 09                 MOV     A,EAL
0000329B: 0A                 MOV     A,B
0000329C: 08                 MOV     A,EAH
0000329D: 02                 INX     SP
0000329E: 09                 MOV     A,EAL
0000329F: 09                 MOV     A,EAL
000032A0: 09                 MOV     A,EAL
000032A1: 09                 MOV     A,EAL
000032A2: 09                 MOV     A,EAL
000032A3: F4                 JR      $3298
000032A4: 77 F9              EQI     A,$F9
000032A6: 47 A7              ONI     A,$A7
000032A8: 0F                 MOV     A,L
000032A9: 95                 CALT    ($00AA)
000032AA: 0C                 MOV     A,D
000032AB: 0C                 MOV     A,D
000032AC: 0B                 MOV     A,C
000032AD: 47 0A              ONI     A,$0A
000032AF: E5                 JR      $3295
000032B0: 09                 MOV     A,EAL
000032B1: 47 0A              ONI     A,$0A
000032B3: 0C                 MOV     A,D
000032B4: 0B                 MOV     A,C
000032B5: 95                 CALT    ($00AA)
000032B6: 0C                 MOV     A,D
000032B7: A7                 DMOV    EA,HL
000032B8: 0F                 MOV     A,L
000032B9: 45 01 30           ONIW    VV:01,$30
000032BC: B8                 RET     
000032BD: 8D                 CALT    ($009A)
000032BE: FA                 JR      $32B9
000032BF: 40 B9 32           CALL    $32B9
000032C2: 90                 CALT    ($00A0)
000032C3: C3                 JR      $32C7
000032C4: 34 66 01           LXI     HL,$0166
000032C7: 34 00 00           LXI     HL,$0000
000032CA: 70 3E 29 99        SHLD    $9929
000032CE: B8                 RET     
000032CF: 40 08 2E           CALL    $2E08
000032D2: CE                 JR      $32E1
000032D3: 90                 CALT    ($00A0)
000032D4: CC                 JR      $32E1
000032D5: 40 EC 32           CALL    $32EC
000032D8: 55 13 C0           OFFIW   VV:13,$C0
000032DB: C1                 JR      $32DD
000032DC: C4                 JR      $32E1
000032DD: 69 40              MVI     A,$40
000032DF: 89                 CALT    ($0092)
000032E0: B8                 RET     
000032E1: 69 BF              MVI     A,$BF
000032E3: 8A                 CALT    ($0094)
000032E4: B8                 RET     
000032E5: 55 4F 20           OFFIW   VV:4F,$20
000032E8: 5D 02              BIT     5,VV:02
000032EA: B8                 RET     
000032EB: B9                 RETS    
000032EC: 55 4F 20           OFFIW   VV:4F,$20
000032EF: 5D 02              BIT     5,VV:02
000032F1: B9                 RETS    
000032F2: B8                 RET     
000032F3: 5D 02              BIT     5,VV:02
000032F5: 34 2D 99           LXI     HL,$992D
000032F8: 34 4D 98           LXI     HL,$984D
000032FB: 5D 4F              BIT     5,VV:4F
000032FD: 34 31 99           LXI     HL,$9931
00003300: B8                 RET     
00003301: 55 35 9A           OFFIW   VV:35,$9A
00003304: 35 D9 35           LTIW    VV:D9,$35
00003307: 20 36              INRW    VV:36
00003309: 67 36              NEI     A,$36
0000330B: A2                 POP     DE
0000330C: 36 D1              SUINB   A,$D1
0000330E: 36 22              SUINB   A,$22
00003310: 37 4B              LTI     A,$4B
00003312: 37 8E              LTI     A,$8E
00003314: 37 06              LTI     A,$06
00003316: 38                 illegal 
00003317: 82                 CALT    ($0084)
00003318: 38                 illegal 
00003319: D1                 JR      $332B
0000331A: 38                 illegal 
0000331B: 2A                 LDAX    (DE)
0000331C: 39                 STAX    (BC)
0000331D: 82                 CALT    ($0084)
0000331E: 39                 STAX    (BC)
0000331F: C7                 JR      $3327
00003320: 39                 STAX    (BC)
00003321: 0C                 MOV     A,D
00003322: 3A                 STAX    (DE)
00003323: 4F 3A              JRE     $325F
00003325: CA                 JR      $3330
00003326: 3A                 STAX    (DE)
00003327: 1D                 MOV     E,A
00003328: 3B                 STAX    (HL)
00003329: 6C 3B              MVI     D,$3B
0000332B: B7                 DMOV    HL,EA
0000332C: 3B                 STAX    (HL)
0000332D: F6                 JR      $3324
0000332E: 3B                 STAX    (HL)
0000332F: 2D                 LDAX    (HL+)
00003330: 3C                 STAX    (DE+)
00003331: 85                 CALT    ($008A)
00003332: 3C                 STAX    (DE+)
00003333: 05 3D 70           ANIW    VV:3D,$70
00003336: 3D                 STAX    (HL+)
00003337: B5                 DMOV    BC,EA
00003338: 3D                 STAX    (HL+)
00003339: FC                 JR      $3336
0000333A: 3D                 STAX    (HL+)
0000333B: 43                 INR     C
0000333C: 3E                 STAX    (DE-)
0000333D: 8E                 CALT    ($009C)
0000333E: 3E                 STAX    (DE-)
0000333F: CD                 JR      $334D
00003340: 3E                 STAX    (DE-)
00003341: 38                 illegal 
00003342: 3F                 STAX    (HL-)
00003343: 45 3F 68           ONIW    VV:3F,$68
00003346: 3F                 STAX    (HL-)
00003347: 99                 CALT    ($00B2)
00003348: 3F                 STAX    (HL-)
00003349: E0                 JR      $332A
0000334A: 3F                 STAX    (HL-)
0000334B: 29                 LDAX    (BC)
0000334C: 40 A3 40           CALL    $40A3
0000334F: 23                 DCX     DE
00003350: 41                 INR     A
00003351: 50                 EXH     
00003352: 41                 INR     A
00003353: 81                 CALT    ($0082)
00003354: 41                 INR     A
00003355: B2                 PUSH    DE
00003356: 41                 INR     A
00003357: F9                 JR      $3351
00003358: 41                 INR     A
00003359: 3C                 STAX    (DE+)
0000335A: 42                 INR     B
0000335B: 69 42              MVI     A,$42
0000335D: A8                 INX     EA
0000335E: 42                 INR     B
0000335F: CF                 JR      $336F
00003360: 42                 INR     B
00003361: 1A                 MOV     B,A
00003362: 43                 INR     C
00003363: 61                 DAA     
00003364: 43                 INR     C
00003365: 9C                 CALT    ($00B8)
00003366: 43                 INR     C
00003367: E3                 JR      $334B
00003368: 43                 INR     C
00003369: 2C                 LDAX    (DE+)
0000336A: 44 6D 44           LXI     EA,$446D
0000336D: B4                 PUSH    EA
0000336E: 44 FD 44           LXI     EA,$44FD
00003371: 64 45 AB           ADI     PF,$AB
00003374: 45 F2 45           ONIW    VV:F2,$45
00003377: 19                 MOV     EAL,A
00003378: 46 46              ADI     A,$46
0000337A: 46 85              ADI     A,$85
0000337C: 46 C4              ADI     A,$C4
0000337E: 46 03              ADI     A,$03
00003380: 47 48              ONI     A,$48
00003382: 47 97              ONI     A,$97
00003384: 47 06              ONI     A,$06
00003386: 48 4B              SKIT    ER
00003388: 48 98              illegal 
0000338A: 48 DD              illegal 
0000338C: 48 20              illegal 
0000338E: 49 65              MVIX    BC,$65
00003390: 49 B2              MVIX    BC,$B2
00003392: 49 F9              MVIX    BC,$F9
00003394: 49 30              MVIX    BC,$30
00003396: 4A 7B              MVIX    DE,$7B
00003398: 4A EC              MVIX    DE,$EC
0000339A: 4A 37              MVIX    DE,$37
0000339C: 4B 86              MVIX    HL,$86
0000339E: 4B F5              MVIX    HL,$F5
000033A0: 4B 40              MVIX    HL,$40
000033A2: 4C 8D              illegal 
000033A4: 4C E0              MOV     A,CR0
000033A6: 4C 2F              illegal 
000033A8: 4D 70              illegal 
000033AA: 4D B3              illegal 
000033AC: 4D 1E              illegal 
000033AE: 4E 6E              JRE     $341E
000033B0: 4E E9              JRE     $349B
000033B2: 4E 60              JRE     $3414
000033B4: 4F D7              JRE     $338D
000033B6: 4F 16              JRE     $32CE
000033B8: 50                 EXH     
000033B9: 4B 50              MVIX    HL,$50
000033BB: 96                 CALT    ($00AC)
000033BC: 50                 EXH     
000033BD: CB                 JR      $33C9
000033BE: 50                 EXH     
000033BF: FE                 JR      $33BE
000033C0: 50                 EXH     
000033C1: 0C                 MOV     A,D
000033C2: 51                 DCR     A
000033C3: 37 51              LTI     A,$51
000033C5: 7C 51              CALF    $0C51
000033C7: C5                 JR      $33CD
000033C8: 51                 DCR     A
000033C9: 04 52 51           LXI     SP,$5152
000033CC: 52                 DCR     B
000033CD: 90                 CALT    ($00A0)
000033CE: 52                 DCR     B
000033CF: D1                 JR      $33E1
000033D0: 52                 DCR     B
000033D1: 1A                 MOV     B,A
000033D2: 53                 DCR     C
000033D3: 61                 DAA     
000033D4: 53                 DCR     C
000033D5: 9C                 CALT    ($00B8)
000033D6: 53                 DCR     C
000033D7: D9                 JR      $33F1
000033D8: 53                 DCR     C
000033D9: 44 54 7F           LXI     EA,$7F54
000033DC: 54 C8 54           JMP     $54C8
000033DF: 0D                 MOV     A,E
000033E0: 55 54 55           OFFIW   VV:54,$55
000033E3: 9F                 CALT    ($00BE)
000033E4: 55 EA 55           OFFIW   VV:EA,$55
000033E7: 2B                 LDAX    (HL)
000033E8: 56 6A              ACI     A,$6A
000033EA: 56 A9              ACI     A,$A9
000033EC: 56 F0              ACI     A,$F0
000033EE: 56 68              ACI     A,$68
000033F0: 57 E3              OFFI    A,$E3
000033F2: 57 5A              OFFI    A,$5A
000033F4: 58 DC              BIT     0,VV:DC
000033F6: 58 23              BIT     0,VV:23
000033F8: 59 60              BIT     1,VV:60
000033FA: 59 85              BIT     1,VV:85
000033FC: 59 C0              BIT     1,VV:C0
000033FE: 59 0B              BIT     1,VV:0B
00003400: 5A 52              BIT     2,VV:52
00003402: 5A FC              BIT     2,VV:FC
00003404: 3D                 STAX    (HL+)
00003405: 8E                 CALT    ($009C)
00003406: 3E                 STAX    (DE-)
00003407: A3                 POP     HL
00003408: 5A 70              BIT     2,VV:70
0000340A: 3D                 STAX    (HL+)
0000340B: 55 35 82           OFFIW   VV:35,$82
0000340E: 39                 STAX    (BC)
0000340F: C7                 JR      $3417
00003410: 39                 STAX    (BC)
00003411: 01 5B              LDAW    VV:5B
00003413: 50                 EXH     
00003414: 5B 9A              BIT     3,VV:9A
00003416: 35 8F 5B           LTIW    VV:8F,$5B
00003419: CA                 JR      $3424
0000341A: 5B 67              BIT     3,VV:67
0000341C: 36 2D              SUINB   A,$2D
0000341E: 3C                 STAX    (DE+)
0000341F: 2A                 LDAX    (DE)
00003420: 39                 STAX    (BC)
00003421: 43                 INR     C
00003422: 3E                 STAX    (DE-)
00003423: 1D                 MOV     E,A
00003424: 3B                 STAX    (HL)
00003425: CA                 JR      $3430
00003426: 3A                 STAX    (DE)
00003427: 0D                 MOV     A,E
00003428: 5C B5              BIT     4,VV:B5
0000342A: 3D                 STAX    (HL+)
0000342B: 20 36              INRW    VV:36
0000342D: 54 5C D9           JMP     $D95C
00003430: 35 9B 5C           LTIW    VV:9B,$5C
00003433: 85                 CALT    ($008A)
00003434: 3C                 STAX    (DE+)
00003435: 05 3D 1D           ANIW    VV:3D,$1D
00003438: 5D D1              BIT     5,VV:D1
0000343A: 36 CD              SUINB   A,$CD
0000343C: 3E                 STAX    (DE-)
0000343D: D1                 JR      $344F
0000343E: 38                 illegal 
0000343F: 62                 RETI    
00003440: 5D AB              BIT     5,VV:AB
00003442: 5D F0              BIT     5,VV:F0
00003444: 5D 2B              BIT     5,VV:2B
00003446: 5E 72              BIT     6,VV:72
00003448: 5E 06              BIT     6,VV:06
0000344A: 38                 illegal 
0000344B: 8E                 CALT    ($009C)
0000344C: 37 B9              LTI     A,$B9
0000344E: 5E FE              BIT     6,VV:FE
00003450: 5E 4B              BIT     6,VV:4B
00003452: 37 45              LTI     A,$45
00003454: 5F 86              BIT     7,VV:86
00003456: 5F C5              BIT     7,VV:C5
00003458: 5F 50              BIT     7,VV:50
0000345A: 60 22              ADDNC   B,A
0000345C: 37 DB              LTI     A,$DB
0000345E: 60 26              ADDNC   H,A
00003460: 61                 DAA     
00003461: 71 61 7F           MVIW    VV:61,$7F
00003464: 61                 DAA     
00003465: 8D                 CALT    ($009A)
00003466: 61                 DAA     
00003467: 9B                 CALT    ($00B6)
00003468: 61                 DAA     
00003469: A9                 DCX     EA
0000346A: 61                 DAA     
0000346B: B7                 DMOV    HL,EA
0000346C: 61                 DAA     
0000346D: C5                 JR      $3473
0000346E: 61                 DAA     
0000346F: D3                 JR      $3483
00003470: 61                 DAA     
00003471: E1                 JR      $3453
00003472: 61                 DAA     
00003473: EF                 JR      $3463
00003474: 61                 DAA     
00003475: FD                 JR      $3473
00003476: 61                 DAA     
00003477: 0B                 MOV     A,C
00003478: 62                 RETI    
00003479: 19                 MOV     EAL,A
0000347A: 62                 RETI    
0000347B: 27 62              GTI     A,$62
0000347D: 35 62 43           LTIW    VV:62,$43
00003480: 62                 RETI    
00003481: 51                 DCR     A
00003482: 62                 RETI    
00003483: 5F 62              BIT     7,VV:62
00003485: 6D 62              MVI     E,$62
00003487: 7B 62              CALF    $0B62
00003489: 89                 CALT    ($0092)
0000348A: 62                 RETI    
0000348B: 97                 CALT    ($00AE)
0000348C: 62                 RETI    
0000348D: A5                 DMOV    EA,BC
0000348E: 62                 RETI    
0000348F: B3                 PUSH    HL
00003490: 62                 RETI    
00003491: C1                 JR      $3493
00003492: 62                 RETI    
00003493: CF                 JR      $34A3
00003494: 62                 RETI    
00003495: DD                 JR      $34B3
00003496: 62                 RETI    
00003497: EB                 JR      $3483
00003498: 62                 RETI    
00003499: F9                 JR      $3493
0000349A: 62                 RETI    
0000349B: 07 63              ANI     A,$63
0000349D: 15 63 23           ORIW    VV:63,$23
000034A0: 63 31              STAW    VV:31
000034A2: 63 3F              STAW    VV:3F
000034A4: 63 4D              STAW    VV:4D
000034A6: 63 5B              STAW    VV:5B
000034A8: 63 69              STAW    VV:69
000034AA: 63 77              STAW    VV:77
000034AC: 63 85              STAW    VV:85
000034AE: 63 93              STAW    VV:93
000034B0: 63 A1              STAW    VV:A1
000034B2: 63 AF              STAW    VV:AF
000034B4: 63 BD              STAW    VV:BD
000034B6: 63 CB              STAW    VV:CB
000034B8: 63 D9              STAW    VV:D9
000034BA: 63 E7              STAW    VV:E7
000034BC: 63 F5              STAW    VV:F5
000034BE: 63 03              STAW    VV:03
000034C0: 64 11 64           XRI     PB,$64
000034C3: 4F 3A              JRE     $33FF
000034C5: 56 64              ACI     A,$64
000034C7: 9B                 CALT    ($00B6)
000034C8: 64 DE              illegal 
000034CA: 64 25 65           ADINC   PF,$65
000034CD: 76 65              SBI     A,$65
000034CF: C1                 JR      $34D1
000034D0: 65 04 66           NEIW    VV:04,$66
000034D3: 4F 66              JRE     $343B
000034D5: 96                 CALT    ($00AC)
000034D6: 66 E9              SUI     A,$E9
000034D8: 66 28              SUI     A,$28
000034DA: 67 7F              NEI     A,$7F
000034DC: 67 CD              NEI     A,$CD
000034DE: 67 0A              NEI     A,$0A
000034E0: 68 51              MVI     V,$51
000034E2: 68 90              MVI     V,$90
000034E4: 68 DB              MVI     V,$DB
000034E6: 68 1E              MVI     V,$1E
000034E8: 69 61              MVI     A,$61
000034EA: 69 77              MVI     A,$77
000034EC: 69 8D              MVI     A,$8D
000034EE: 69 D0              MVI     A,$D0
000034F0: 69 A2              MVI     A,$A2
000034F2: 36 17              SUINB   A,$17
000034F4: 6A 46              MVI     B,$46
000034F6: 6A 71              MVI     B,$71
000034F8: 6A B4              MVI     B,$B4
000034FA: 6A F3              MVI     B,$F3
000034FC: 6A 32              MVI     B,$32
000034FE: 6B 38              MVI     C,$38
00003500: 3F                 STAX    (HL-)
00003501: 65 6B A0           NEIW    VV:6B,$A0
00003504: 6B DF              MVI     C,$DF
00003506: 6B 56              MVI     C,$56
00003508: 6C AE              MVI     D,$AE
0000350A: 6C 25              MVI     D,$25
0000350C: 6D 64              MVI     E,$64
0000350E: 6D B8              MVI     E,$B8
00003510: 6D 38              MVI     E,$38
00003512: 6E 75              MVI     H,$75
00003514: 6E BA              MVI     H,$BA
00003516: 6E 06              MVI     H,$06
00003518: 6F 51              MVI     L,$51
0000351A: 6F 9C              MVI     L,$9C
0000351C: 6F D7              MVI     L,$D7
0000351E: 6F 0E              MVI     L,$0E
00003520: 70 45              illegal 
00003522: 70 7C 70 B3        MOV     ($B370),D
00003526: 70 07              illegal 
00003528: 71 5A 71           MVIW    VV:5A,$71
0000352B: AE                 LDAX    (HL+EA)
0000352C: 71 F5 71           MVIW    VV:F5,$71
0000352F: 49 72              MVIX    BC,$72
00003531: 94                 CALT    ($00A8)
00003532: 72                 SOFTI   
00003533: D9                 JR      $354D
00003534: 72                 SOFTI   
00003535: 4C 73              illegal 
00003537: BF 73              STAX    (HL+$73)
00003539: 32                 INX     HL
0000353A: 74 B4              illegal 
0000353C: 74 33 75           SUINB   C,$75
0000353F: 7A 75              CALF    $0A75
00003541: A5                 DMOV    EA,BC
00003542: 75 EC 75           EQIW    VV:EC,$75
00003545: 39                 STAX    (BC)
00003546: 76 C8              SBI     A,$C8
00003548: 76 1B              SBI     A,$1B
0000354A: 77 4A              EQI     A,$4A
0000354C: 77 7D              EQI     A,$7D
0000354E: 77 0C              EQI     A,$0C
00003550: 0D                 MOV     A,E
00003551: 09                 MOV     A,EAL
00003552: 08                 MOV     A,EAH
00003553: 0B                 MOV     A,C
00003554: 08                 MOV     A,EAH
00003555: 8A                 CALT    ($0094)
00003556: 8B                 CALT    ($0096)
00003557: 8B                 CALT    ($0096)
00003558: 24 04 0A           LXI     DE,$0A04
0000355B: 2A                 LDAX    (DE)
0000355C: AA                 EI      
0000355D: 6A 2A              MVI     B,$2A
0000355F: 28                 illegal 
00003560: 1C                 MOV     D,A
00003561: 02                 INX     SP
00003562: 8A                 CALT    ($0094)
00003563: 00                 NOP     
00003564: 04 0A 2A           LXI     SP,$2A0A
00003567: AA                 EI      
00003568: 6A 2A              MVI     B,$2A
0000356A: 2C                 LDAX    (DE+)
0000356B: 1A                 MOV     B,A
0000356C: 00                 NOP     
0000356D: 02                 INX     SP
0000356E: 14 80 05           LXI     BC,$0580
00003571: 01 00              LDAW    VV:00
00003573: 02                 INX     SP
00003574: 04 10 11           LXI     SP,$1110
00003577: 11                 EXX     
00003578: 81                 CALT    ($0082)
00003579: 81                 CALT    ($0082)
0000357A: 81                 CALT    ($0082)
0000357B: 01 01              LDAW    VV:01
0000357D: 01 41              LDAW    VV:41
0000357F: 00                 NOP     
00003580: 10                 EXA     
00003581: 0E                 MOV     A,H
00003582: 00                 NOP     
00003583: 01 01              LDAW    VV:01
00003585: 01 00              LDAW    VV:00
00003587: 04 02 08           LXI     SP,$0802
0000358A: 28                 illegal 
0000358B: 28                 illegal 
0000358C: 28                 illegal 
0000358D: 28                 illegal 
0000358E: A8                 INX     EA
0000358F: A8                 INX     EA
00003590: A8                 INX     EA
00003591: 28                 illegal 
00003592: 28                 illegal 
00003593: 08                 MOV     A,EAH
00003594: 02                 INX     SP
00003595: 1C                 MOV     D,A
00003596: 02                 INX     SP
00003597: 00                 NOP     
00003598: 00                 NOP     
00003599: 00                 NOP     
0000359A: 8A                 CALT    ($0094)
0000359B: 8B                 CALT    ($0096)
0000359C: 8B                 CALT    ($0096)
0000359D: 24 1C 2A           LXI     DE,$2A1C
000035A0: 2A                 LDAX    (DE)
000035A1: AA                 EI      
000035A2: 6A 2A              MVI     B,$2A
000035A4: 2A                 LDAX    (DE)
000035A5: 2A                 LDAX    (DE)
000035A6: 18                 MOV     EAH,A
000035A7: 8A                 CALT    ($0094)
000035A8: 00                 NOP     
000035A9: 0C                 MOV     A,D
000035AA: 1A                 MOV     B,A
000035AB: 2A                 LDAX    (DE)
000035AC: AA                 EI      
000035AD: 6A 2A              MVI     B,$2A
000035AF: 28                 illegal 
000035B0: 10                 EXA     
000035B1: 00                 NOP     
000035B2: 03                 DCX     SP
000035B3: 11                 EXX     
000035B4: 80                 CALT    ($0080)
000035B5: 0A                 MOV     A,B
000035B6: 01 0C              LDAW    VV:0C
000035B8: 02                 INX     SP
000035B9: 10                 EXA     
000035BA: 00                 NOP     
000035BB: 81                 CALT    ($0082)
000035BC: 81                 CALT    ($0082)
000035BD: 81                 CALT    ($0082)
000035BE: 01 01              LDAW    VV:01
000035C0: 01 41              LDAW    VV:41
000035C2: 01 01              LDAW    VV:01
000035C4: 00                 NOP     
000035C5: 10                 EXA     
000035C6: 00                 NOP     
000035C7: 0A                 MOV     A,B
000035C8: 0C                 MOV     A,D
000035C9: 18                 MOV     EAH,A
000035CA: 0A                 MOV     A,B
000035CB: 08                 MOV     A,EAH
000035CC: 28                 illegal 
000035CD: 28                 illegal 
000035CE: A8                 INX     EA
000035CF: A8                 INX     EA
000035D0: A8                 INX     EA
000035D1: 28                 illegal 
000035D2: 28                 illegal 
000035D3: 28                 illegal 
000035D4: 28                 illegal 
000035D5: 08                 MOV     A,EAH
000035D6: 0A                 MOV     A,B
000035D7: 18                 MOV     EAH,A
000035D8: 08                 MOV     A,EAH
000035D9: 8A                 CALT    ($0094)
000035DA: 8A                 CALT    ($0094)
000035DB: 8B                 CALT    ($0096)
000035DC: 24 3C 02           LXI     DE,$023C
000035DF: 02                 INX     SP
000035E0: 82                 CALT    ($0084)
000035E1: 42                 INR     B
000035E2: 02                 INX     SP
000035E3: 00                 NOP     
000035E4: 3C                 STAX    (DE+)
000035E5: 02                 INX     SP
000035E6: 8A                 CALT    ($0094)
000035E7: 00                 NOP     
000035E8: 0C                 MOV     A,D
000035E9: 32                 INX     HL
000035EA: 02                 INX     SP
000035EB: 82                 CALT    ($0084)
000035EC: 42                 INR     B
000035ED: 02                 INX     SP
000035EE: 0C                 MOV     A,D
000035EF: 32                 INX     HL
000035F0: 00                 NOP     
000035F1: 01 15              LDAW    VV:15
000035F3: C0                 JR      $35F4
000035F4: 04 01 00           LXI     SP,$0001
000035F7: 00                 NOP     
000035F8: 00                 NOP     
000035F9: 00                 NOP     
000035FA: 1E                 MOV     H,A
000035FB: 80                 CALT    ($0080)
000035FC: 81                 CALT    ($0082)
000035FD: 81                 CALT    ($0082)
000035FE: 01 01              LDAW    VV:01
00003600: 01 41              LDAW    VV:41
00003602: 01 01              LDAW    VV:01
00003604: 00                 NOP     
00003605: 02                 INX     SP
00003606: 00                 NOP     
00003607: 1E                 MOV     H,A
00003608: 01 01              LDAW    VV:01
0000360A: 01 20              LDAW    VV:20
0000360C: 20 20              INRW    VV:20
0000360E: 20 3C              INRW    VV:3C
00003610: 02                 INX     SP
00003611: 00                 NOP     
00003612: 80                 CALT    ($0080)
00003613: 80                 CALT    ($0080)
00003614: 80                 CALT    ($0080)
00003615: 00                 NOP     
00003616: 00                 NOP     
00003617: 00                 NOP     
00003618: 20 22              INRW    VV:22
0000361A: 20 20              INRW    VV:20
0000361C: 3E                 STAX    (DE-)
0000361D: 00                 NOP     
0000361E: 00                 NOP     
0000361F: 00                 NOP     
00003620: 8E                 CALT    ($009C)
00003621: 89                 CALT    ($0092)
00003622: 8A                 CALT    ($0094)
00003623: 24 1C 22           LXI     DE,$221C
00003626: 22                 INX     DE
00003627: A2                 POP     DE
00003628: 62                 RETI    
00003629: 22                 INX     DE
0000362A: 22                 INX     DE
0000362B: 22                 INX     DE
0000362C: 1C                 MOV     D,A
0000362D: 8A                 CALT    ($0094)
0000362E: 00                 NOP     
0000362F: 0C                 MOV     A,D
00003630: 12                 INX     BC
00003631: 02                 INX     SP
00003632: A0                 POP     VA
00003633: 62                 RETI    
00003634: 00                 NOP     
00003635: 24 18 00           LXI     DE,$0018
00003638: 0C                 MOV     A,D
00003639: 12                 INX     BC
0000363A: 02                 INX     SP
0000363B: A2                 POP     DE
0000363C: 60 24              ADDNC   D,A
0000363E: 18                 MOV     EAH,A
0000363F: 00                 NOP     
00003640: 03                 DCX     SP
00003641: 11                 EXX     
00003642: 80                 CALT    ($0080)
00003643: 0A                 MOV     A,B
00003644: 01 0C              LDAW    VV:0C
00003646: 02                 INX     SP
00003647: 10                 EXA     
00003648: 00                 NOP     
00003649: 81                 CALT    ($0082)
0000364A: 81                 CALT    ($0082)
0000364B: 81                 CALT    ($0082)
0000364C: 01 01              LDAW    VV:01
0000364E: 01 41              LDAW    VV:41
00003650: 01 01              LDAW    VV:01
00003652: 00                 NOP     
00003653: 10                 EXA     
00003654: 02                 INX     SP
00003655: 0C                 MOV     A,D
00003656: 0C                 MOV     A,D
00003657: 10                 EXA     
00003658: 02                 INX     SP
00003659: 00                 NOP     
0000365A: 20 20              INRW    VV:20
0000365C: A0                 POP     VA
0000365D: A0                 POP     VA
0000365E: A0                 POP     VA
0000365F: 20 20              INRW    VV:20
00003661: 20 20              INRW    VV:20
00003663: 00                 NOP     
00003664: 02                 INX     SP
00003665: 10                 EXA     
00003666: 0C                 MOV     A,D
00003667: 8A                 CALT    ($0094)
00003668: 98                 CALT    ($00B0)
00003669: 98                 CALT    ($00B0)
0000366A: 41                 INR     A
0000366B: 00                 NOP     
0000366C: 02                 INX     SP
0000366D: 12                 INX     BC
0000366E: 92                 CALT    ($00A4)
0000366F: 5E 02              BIT     6,VV:02
00003671: 02                 INX     SP
00003672: 02                 INX     SP
00003673: 00                 NOP     
00003674: 98                 CALT    ($00B0)
00003675: 00                 NOP     
00003676: 00                 NOP     
00003677: 02                 INX     SP
00003678: 02                 INX     SP
00003679: 16 9A              XRI     A,$9A
0000367B: 52                 DCR     B
0000367C: 00                 NOP     
0000367D: 00                 NOP     
0000367E: 00                 NOP     
0000367F: 25 0F 84           GTIW    VV:0F,$84
00003682: 00                 NOP     
00003683: 11                 EXX     
00003684: 01 01              LDAW    VV:01
00003686: 81                 CALT    ($0082)
00003687: 81                 CALT    ($0082)
00003688: 81                 CALT    ($0082)
00003689: 01 01              LDAW    VV:01
0000368B: 1F                 MOV     L,A
0000368C: 41                 INR     A
0000368D: 01 01              LDAW    VV:01
0000368F: 01 01              LDAW    VV:01
00003691: 01 01              LDAW    VV:01
00003693: 00                 NOP     
00003694: 20 20              INRW    VV:20
00003696: 20 A0              INRW    VV:A0
00003698: A0                 POP     VA
00003699: A0                 POP     VA
0000369A: 3E                 STAX    (DE-)
0000369B: 00                 NOP     
0000369C: 00                 NOP     
0000369D: 00                 NOP     
0000369E: 00                 NOP     
0000369F: 00                 NOP     
000036A0: 00                 NOP     
000036A1: 00                 NOP     
000036A2: 8A                 CALT    ($0094)
000036A3: A9                 DCX     EA
000036A4: A9                 DCX     EA
000036A5: 80                 CALT    ($0080)
000036A6: 00                 NOP     
000036A7: 00                 NOP     
000036A8: 40 A0 A0           CALL    $A0A0
000036AB: A0                 POP     VA
000036AC: 40 00 00           CALL    $0000
000036AF: A9                 DCX     EA
000036B0: 80                 CALT    ($0080)
000036B1: 00                 NOP     
000036B2: 00                 NOP     
000036B3: 00                 NOP     
000036B4: 40 A0 A0           CALL    $A0A0
000036B7: A0                 POP     VA
000036B8: 40 00 07           CALL    $0700
000036BB: 09                 MOV     A,EAL
000036BC: C0                 JR      $36BD
000036BD: 00                 NOP     
000036BE: 03                 DCX     SP
000036BF: 40 20 00           CALL    $0020
000036C2: 80                 CALT    ($0080)
000036C3: 80                 CALT    ($0080)
000036C4: 80                 CALT    ($0080)
000036C5: 00                 NOP     
000036C6: 20 40              INRW    VV:40
000036C8: 40 80 00           CALL    $0080
000036CB: 20 20              INRW    VV:20
000036CD: 20 00              INRW    VV:00
000036CF: 80                 CALT    ($0080)
000036D0: 40 8E 8B           CALL    $8B8E
000036D3: 8B                 CALT    ($0096)
000036D4: 18                 MOV     EAH,A
000036D5: 12                 INX     BC
000036D6: 12                 INX     BC
000036D7: 7E 92              CALF    $0E92
000036D9: 92                 CALT    ($00A4)
000036DA: 92                 CALT    ($00A4)
000036DB: 92                 CALT    ($00A4)
000036DC: 82                 CALT    ($0084)
000036DD: 42                 INR     B
000036DE: 8B                 CALT    ($0096)
000036DF: 00                 NOP     
000036E0: 12                 INX     BC
000036E1: 12                 INX     BC
000036E2: 1E                 MOV     H,A
000036E3: 72                 SOFTI   
000036E4: 12                 INX     BC
000036E5: 92                 CALT    ($00A4)
000036E6: 92                 CALT    ($00A4)
000036E7: 80                 CALT    ($0080)
000036E8: 40 02 12           CALL    $1202
000036EB: 1E                 MOV     H,A
000036EC: 72                 SOFTI   
000036ED: 92                 CALT    ($00A4)
000036EE: 92                 CALT    ($00A4)
000036EF: 82                 CALT    ($0084)
000036F0: 40 01 16           CALL    $1601
000036F3: 90                 CALT    ($00A0)
000036F4: 40 04 00           CALL    $0004
000036F7: 02                 INX     SP
000036F8: 00                 NOP     
000036F9: 01 01              LDAW    VV:01
000036FB: 01 61              LDAW    VV:61
000036FD: 01 10              LDAW    VV:10
000036FF: 92                 CALT    ($00A4)
00003700: 88                 CALT    ($0090)
00003701: 84                 CALT    ($0088)
00003702: 80                 CALT    ($0080)
00003703: 81                 CALT    ($0082)
00003704: 81                 CALT    ($0082)
00003705: 81                 CALT    ($0082)
00003706: 41                 INR     A
00003707: 01 40              LDAW    VV:40
00003709: 00                 NOP     
0000370A: 00                 NOP     
0000370B: 02                 INX     SP
0000370C: 00                 NOP     
0000370D: 02                 INX     SP
0000370E: 10                 EXA     
0000370F: 14 14 14           LXI     BC,$1414
00003712: 54 B4 10           JMP     $10B4
00003715: 12                 INX     BC
00003716: 10                 EXA     
00003717: 1E                 MOV     H,A
00003718: 10                 EXA     
00003719: 10                 EXA     
0000371A: 10                 EXA     
0000371B: 10                 EXA     
0000371C: 10                 EXA     
0000371D: D0                 JR      $372E
0000371E: 10                 EXA     
0000371F: 02                 INX     SP
00003720: 00                 NOP     
00003721: 00                 NOP     
00003722: 8A                 CALT    ($0094)
00003723: C8                 JR      $372C
00003724: 8B                 CALT    ($0096)
00003725: 80                 CALT    ($0080)
00003726: 00                 NOP     
00003727: 00                 NOP     
00003728: 00                 NOP     
00003729: 00                 NOP     
0000372A: 4F 40              JRE     $366C
0000372C: 00                 NOP     
0000372D: 00                 NOP     
0000372E: 00                 NOP     
0000372F: 9A                 CALT    ($00B4)
00003730: 00                 NOP     
00003731: 00                 NOP     
00003732: 00                 NOP     
00003733: 01 06              LDAW    VV:06
00003735: 18                 MOV     EAH,A
00003736: 40 40 00           CALL    $0040
00003739: 00                 NOP     
0000373A: 8A                 CALT    ($0094)
0000373B: 03                 DCX     SP
0000373C: C0                 JR      $373D
0000373D: 00                 NOP     
0000373E: 03                 DCX     SP
0000373F: 40 00 00           CALL    $0000
00003742: 20 07              INRW    VV:07
00003744: 20 40              INRW    VV:40
00003746: 00                 NOP     
00003747: 00                 NOP     
00003748: 00                 NOP     
00003749: 6F 00              MVI     L,$00
0000374B: 8A                 CALT    ($0094)
0000374C: 8B                 CALT    ($0096)
0000374D: 8B                 CALT    ($0096)
0000374E: 14 06 01           LXI     BC,$0106
00003751: 09                 MOV     A,EAL
00003752: 01 51              LDAW    VV:51
00003754: 41                 INR     A
00003755: 01 01              LDAW    VV:01
00003757: 02                 INX     SP
00003758: 8A                 CALT    ($0094)
00003759: 00                 NOP     
0000375A: 06                 illegal 
0000375B: 01 09              LDAW    VV:09
0000375D: 01 11              LDAW    VV:11
0000375F: 41                 INR     A
00003760: 40 02 00           CALL    $0002
00003763: 84                 CALT    ($0088)
00003764: 10                 EXA     
00003765: 80                 CALT    ($0080)
00003766: 81                 CALT    ($0082)
00003767: 01 1F              LDAW    VV:1F
00003769: F0                 JR      $375A
0000376A: 00                 NOP     
0000376B: 01 02              LDAW    VV:02
0000376D: 00                 NOP     
0000376E: 00                 NOP     
0000376F: 00                 NOP     
00003770: 04 20 08           LXI     SP,$0820
00003773: 20 00              INRW    VV:00
00003775: 00                 NOP     
00003776: 00                 NOP     
00003777: 00                 NOP     
00003778: 00                 NOP     
00003779: 03                 DCX     SP
0000377A: 00                 NOP     
0000377B: 00                 NOP     
0000377C: 00                 NOP     
0000377D: 00                 NOP     
0000377E: 02                 INX     SP
0000377F: 01 00              LDAW    VV:00
00003781: 04 00 00           LXI     SP,$0000
00003784: 00                 NOP     
00003785: 68 00              MVI     V,$00
00003787: 00                 NOP     
00003788: 00                 NOP     
00003789: 00                 NOP     
0000378A: 00                 NOP     
0000378B: 03                 DCX     SP
0000378C: 00                 NOP     
0000378D: 02                 INX     SP
0000378E: AF 8B              LDAX    (HL+$8B)
00003790: 8B                 CALT    ($0096)
00003791: 00                 NOP     
00003792: 5E 90              BIT     6,VV:90
00003794: 90                 CALT    ($00A0)
00003795: 80                 CALT    ($0080)
00003796: 08                 MOV     A,EAH
00003797: 40 44 40           CALL    $4044
0000379A: 9E                 CALT    ($00BC)
0000379B: 40 9E 90           CALL    $909E
0000379E: 90                 CALT    ($00A0)
0000379F: 48 44              SKIT    F2
000037A1: 40 9E 00           CALL    $009E
000037A4: 8B                 CALT    ($0096)
000037A5: 00                 NOP     
000037A6: 06                 illegal 
000037A7: 58 80              BIT     0,VV:80
000037A9: 88                 CALT    ($0090)
000037AA: 84                 CALT    ($0088)
000037AB: 40 46 58           CALL    $5846
000037AE: 80                 CALT    ($0080)
000037AF: 06                 illegal 
000037B0: 58 80              BIT     0,VV:80
000037B2: 88                 CALT    ($0090)
000037B3: C4                 JR      $37B8
000037B4: 40 46 98           CALL    $9846
000037B7: 42                 INR     B
000037B8: 13                 DCX     BC
000037B9: 00                 NOP     
000037BA: E2                 JR      $379D
000037BB: 37 21              LTI     A,$21
000037BD: 21                 JB      
000037BE: 7F 01              CALF    $0F01
000037C0: 01 91              LDAW    VV:91
000037C2: 81                 CALT    ($0082)
000037C3: 80                 CALT    ($0080)
000037C4: 08                 MOV     A,EAH
000037C5: 00                 NOP     
000037C6: 04 40 60           LXI     SP,$6040
000037C9: 62                 RETI    
000037CA: 20 20              INRW    VV:20
000037CC: BF 20              STAX    (HL+$20)
000037CE: 20 00              INRW    VV:00
000037D0: 00                 NOP     
000037D1: 3E                 STAX    (DE-)
000037D2: 80                 CALT    ($0080)
000037D3: 20 00              INRW    VV:00
000037D5: 10                 EXA     
000037D6: 00                 NOP     
000037D7: 00                 NOP     
000037D8: 88                 CALT    ($0090)
000037D9: 00                 NOP     
000037DA: 00                 NOP     
000037DB: 04 00 02           LXI     SP,$0200
000037DE: 80                 CALT    ($0080)
000037DF: 3E                 STAX    (DE-)
000037E0: 00                 NOP     
000037E1: 00                 NOP     
000037E2: 01 11              LDAW    VV:11
000037E4: 21                 JB      
000037E5: 21                 JB      
000037E6: 7F 01              CALF    $0F01
000037E8: 81                 CALT    ($0082)
000037E9: 91                 CALT    ($00A2)
000037EA: 81                 CALT    ($0082)
000037EB: 08                 MOV     A,EAH
000037EC: 00                 NOP     
000037ED: 04 60 62           LXI     SP,$6260
000037F0: 60 20              ADDNC   V,A
000037F2: BF 20              STAX    (HL+$20)
000037F4: 20 00              INRW    VV:00
000037F6: 00                 NOP     
000037F7: 3E                 STAX    (DE-)
000037F8: 80                 CALT    ($0080)
000037F9: 20 00              INRW    VV:00
000037FB: 10                 EXA     
000037FC: 00                 NOP     
000037FD: 88                 CALT    ($0090)
000037FE: 00                 NOP     
000037FF: 04 00 02           LXI     SP,$0200
00003802: 80                 CALT    ($0080)
00003803: 3E                 STAX    (DE-)
00003804: 00                 NOP     
00003805: 00                 NOP     
00003806: AF 8A              LDAX    (HL+$8A)
00003808: 8B                 CALT    ($0096)
00003809: 00                 NOP     
0000380A: 5E 90              BIT     6,VV:90
0000380C: 90                 CALT    ($00A0)
0000380D: 90                 CALT    ($00A0)
0000380E: 50                 EXH     
0000380F: 50                 EXH     
00003810: 50                 EXH     
00003811: 8E                 CALT    ($009C)
00003812: 00                 NOP     
00003813: 40 9E 90           CALL    $909E
00003816: 90                 CALT    ($00A0)
00003817: 50                 EXH     
00003818: 50                 EXH     
00003819: 4E 80              JRE     $389B
0000381B: 00                 NOP     
0000381C: 8B                 CALT    ($0096)
0000381D: 00                 NOP     
0000381E: 16 48              XRI     A,$48
00003820: 80                 CALT    ($0080)
00003821: 90                 CALT    ($00A0)
00003822: 90                 CALT    ($00A0)
00003823: 50                 EXH     
00003824: 56 48              ACI     A,$48
00003826: 80                 CALT    ($0080)
00003827: 16 48              XRI     A,$48
00003829: 80                 CALT    ($0080)
0000382A: 90                 CALT    ($00A0)
0000382B: D0                 JR      $383C
0000382C: 50                 EXH     
0000382D: 56 88              ACI     A,$88
0000382F: 42                 INR     B
00003830: 14 00 5C           LXI     BC,$5C00
00003833: 38                 illegal 
00003834: 01 01              LDAW    VV:01
00003836: 41                 INR     A
00003837: 1F                 MOV     L,A
00003838: 01 81              LDAW    VV:81
0000383A: 91                 CALT    ($00A2)
0000383B: 80                 CALT    ($0080)
0000383C: 00                 NOP     
0000383D: 00                 NOP     
0000383E: 00                 NOP     
0000383F: 40 40 41           CALL    $4140
00003842: 01 11              LDAW    VV:11
00003844: 8F                 CALT    ($009E)
00003845: 01 01              LDAW    VV:01
00003847: 01 20              LDAW    VV:20
00003849: 20 20              INRW    VV:20
0000384B: 9E                 CALT    ($00BC)
0000384C: 00                 NOP     
0000384D: 10                 EXA     
0000384E: 00                 NOP     
0000384F: 00                 NOP     
00003850: 20 A0              INRW    VV:A0
00003852: 20 20              INRW    VV:20
00003854: 20 20              INRW    VV:20
00003856: 20 80              INRW    VV:80
00003858: 1E                 MOV     H,A
00003859: 00                 NOP     
0000385A: 00                 NOP     
0000385B: 00                 NOP     
0000385C: 01 12              LDAW    VV:12
0000385E: 01 01              LDAW    VV:01
00003860: 41                 INR     A
00003861: 1F                 MOV     L,A
00003862: 81                 CALT    ($0082)
00003863: 81                 CALT    ($0082)
00003864: 91                 CALT    ($00A2)
00003865: 00                 NOP     
00003866: 00                 NOP     
00003867: 00                 NOP     
00003868: 40 41 41           CALL    $4141
0000386B: 11                 EXX     
0000386C: 8F                 CALT    ($009E)
0000386D: 01 01              LDAW    VV:01
0000386F: 01 20              LDAW    VV:20
00003871: 20 20              INRW    VV:20
00003873: 9E                 CALT    ($00BC)
00003874: 00                 NOP     
00003875: 10                 EXA     
00003876: 00                 NOP     
00003877: 00                 NOP     
00003878: A0                 POP     VA
00003879: 20 20              INRW    VV:20
0000387B: 20 20              INRW    VV:20
0000387D: 80                 CALT    ($0080)
0000387E: 1E                 MOV     H,A
0000387F: 00                 NOP     
00003880: 00                 NOP     
00003881: 00                 NOP     
00003882: 8E                 CALT    ($009C)
00003883: 8B                 CALT    ($0096)
00003884: 8B                 CALT    ($0096)
00003885: 18                 MOV     EAH,A
00003886: 5D 22              BIT     5,VV:22
00003888: 22                 INX     DE
00003889: 22                 INX     DE
0000388A: 22                 INX     DE
0000388B: 22                 INX     DE
0000388C: 22                 INX     DE
0000388D: 22                 INX     DE
0000388E: 5D 8B              BIT     5,VV:8B
00003890: 00                 NOP     
00003891: 01 0C              LDAW    VV:0C
00003893: 12                 INX     BC
00003894: 42                 INR     B
00003895: 22                 INX     DE
00003896: 21                 JB      
00003897: 24 18 40           LXI     DE,$4018
0000389A: 0D                 MOV     A,E
0000389B: 12                 INX     BC
0000389C: 42                 INR     B
0000389D: 22                 INX     DE
0000389E: 21                 JB      
0000389F: 24 58 00           LXI     DE,$0058
000038A2: 01 15              LDAW    VV:15
000038A4: 80                 CALT    ($0080)
000038A5: 30 01              DCRW    VV:01
000038A7: 20 00              INRW    VV:00
000038A9: 0D                 MOV     A,E
000038AA: 02                 INX     SP
000038AB: 10                 EXA     
000038AC: 00                 NOP     
000038AD: 01 01              LDAW    VV:01
000038AF: 01 01              LDAW    VV:01
000038B1: 01 01              LDAW    VV:01
000038B3: 01 01              LDAW    VV:01
000038B5: 01 00              LDAW    VV:00
000038B7: 10                 EXA     
000038B8: 02                 INX     SP
000038B9: 0D                 MOV     A,E
000038BA: 00                 NOP     
000038BB: 20 01              INRW    VV:01
000038BD: 00                 NOP     
000038BE: 2C                 LDAX    (DE+)
000038BF: 10                 EXA     
000038C0: 02                 INX     SP
000038C1: 00                 NOP     
000038C2: 20 20              INRW    VV:20
000038C4: 20 20              INRW    VV:20
000038C6: 20 20              INRW    VV:20
000038C8: 20 20              INRW    VV:20
000038CA: 20 00              INRW    VV:00
000038CC: 02                 INX     SP
000038CD: 10                 EXA     
000038CE: 2C                 LDAX    (DE+)
000038CF: 00                 NOP     
000038D0: 01 9E              LDAW    VV:9E
000038D2: 8B                 CALT    ($0096)
000038D3: 8B                 CALT    ($0096)
000038D4: 00                 NOP     
000038D5: FE                 JR      $38D4
000038D6: 90                 CALT    ($00A0)
000038D7: 90                 CALT    ($00A0)
000038D8: 70 10              illegal 
000038DA: 10                 EXA     
000038DB: 3E                 STAX    (DE-)
000038DC: 12                 INX     BC
000038DD: 12                 INX     BC
000038DE: FE                 JR      $38DD
000038DF: 00                 NOP     
000038E0: 90                 CALT    ($00A0)
000038E1: 68 00              MVI     V,$00
000038E3: 1E                 MOV     H,A
000038E4: 00                 NOP     
000038E5: 0A                 MOV     A,B
000038E6: 8B                 CALT    ($0096)
000038E7: 00                 NOP     
000038E8: 06                 illegal 
000038E9: 38                 illegal 
000038EA: E0                 JR      $38CB
000038EB: A0                 POP     VA
000038EC: A8                 INX     EA
000038ED: AE                 LDAX    (HL+EA)
000038EE: DA                 JR      $3909
000038EF: 0A                 MOV     A,B
000038F0: 08                 MOV     A,EAH
000038F1: 06                 illegal 
000038F2: 38                 illegal 
000038F3: E0                 JR      $38D4
000038F4: A0                 POP     VA
000038F5: A0                 POP     VA
000038F6: AE                 LDAX    (HL+EA)
000038F7: DA                 JR      $3912
000038F8: 0A                 MOV     A,B
000038F9: 01 16              LDAW    VV:16
000038FB: 80                 CALT    ($0080)
000038FC: 41                 INR     A
000038FD: 40 81 81           CALL    $8181
00003900: FF                 JR      $3900
00003901: 81                 CALT    ($0082)
00003902: 81                 CALT    ($0082)
00003903: 81                 CALT    ($0082)
00003904: 81                 CALT    ($0082)
00003905: 80                 CALT    ($0080)
00003906: 80                 CALT    ($0080)
00003907: 10                 EXA     
00003908: 60 00              illegal 
0000390A: 00                 NOP     
0000390B: 00                 NOP     
0000390C: 00                 NOP     
0000390D: 7E 00              CALF    $0E00
0000390F: 01 01              LDAW    VV:01
00003911: 01 00              LDAW    VV:00
00003913: 00                 NOP     
00003914: 00                 NOP     
00003915: 00                 NOP     
00003916: FE                 JR      $3915
00003917: 10                 EXA     
00003918: 10                 EXA     
00003919: 10                 EXA     
0000391A: 10                 EXA     
0000391B: 10                 EXA     
0000391C: 10                 EXA     
0000391D: 80                 CALT    ($0080)
0000391E: 60 20              ADDNC   V,A
00003920: 20 20              INRW    VV:20
00003922: 20 FE              INRW    VV:FE
00003924: 20 20              INRW    VV:20
00003926: 20 20              INRW    VV:20
00003928: 20 02              INRW    VV:02
0000392A: AE                 LDAX    (HL+EA)
0000392B: 8B                 CALT    ($0096)
0000392C: 8B                 CALT    ($0096)
0000392D: 00                 NOP     
0000392E: 06                 illegal 
0000392F: 0C                 MOV     A,D
00003930: 54 A4 A4           JMP     $A4A4
00003933: A4                 POP     EA
00003934: 54 0C 06           JMP     $060C
00003937: 0E                 MOV     A,H
00003938: 54 A4 A4           JMP     $A4A4
0000393B: A4                 POP     EA
0000393C: 54 0E 00           JMP     $000E
0000393F: 00                 NOP     
00003940: 8B                 CALT    ($0096)
00003941: 00                 NOP     
00003942: 02                 INX     SP
00003943: 04 0C 14           LXI     SP,$140C
00003946: 44 A4 A4           LXI     EA,$A4A4
00003949: BE                 STAX    (HL+EA)
0000394A: 40 02 04           CALL    $0402
0000394D: 0C                 MOV     A,D
0000394E: 54 A4 BE           JMP     $BEA4
00003951: A0                 POP     VA
00003952: 40 01 15           CALL    $1501
00003955: 80                 CALT    ($0080)
00003956: 30 01              DCRW    VV:01
00003958: 01 01              LDAW    VV:01
0000395A: 01 03              LDAW    VV:03
0000395C: 05 0D 45           ANIW    VV:0D,$45
0000395F: 14 A4 84           LXI     BC,$84A4
00003962: 84                 CALT    ($0088)
00003963: 84                 CALT    ($0088)
00003964: A4                 POP     EA
00003965: 14 45 0D           LXI     BC,$0D45
00003968: 05 03 01           ANIW    VV:03,$01
0000396B: 01 01              LDAW    VV:01
0000396D: 00                 NOP     
0000396E: 00                 NOP     
0000396F: 02                 INX     SP
00003970: 04 00 08           LXI     SP,$0800
00003973: 90                 CALT    ($00A0)
00003974: 20 40              INRW    VV:40
00003976: 40 40 40           CALL    $4040
00003979: 40 20 90           CALL    $9020
0000397C: 08                 MOV     A,EAH
0000397D: 00                 NOP     
0000397E: 04 02 00           LXI     SP,$0002
00003981: 00                 NOP     
00003982: 8A                 CALT    ($0094)
00003983: 8B                 CALT    ($0096)
00003984: 8B                 CALT    ($0096)
00003985: 48 24              illegal 
00003987: 2A                 LDAX    (DE)
00003988: EA                 JR      $3973
00003989: AA                 EI      
0000398A: AA                 EI      
0000398B: AA                 EI      
0000398C: E8                 JR      $3975
0000398D: 1C                 MOV     D,A
0000398E: 02                 INX     SP
0000398F: 8A                 CALT    ($0094)
00003990: 00                 NOP     
00003991: 04 0A 2A           LXI     SP,$2A0A
00003994: 2A                 LDAX    (DE)
00003995: 6A AA              MVI     B,$AA
00003997: AC                 LDAX    (HL+A)
00003998: DA                 JR      $39B3
00003999: 00                 NOP     
0000399A: 02                 INX     SP
0000399B: 14 80 82           LXI     BC,$8280
0000399E: 01 00              LDAW    VV:00
000039A0: 02                 INX     SP
000039A1: 04 10 11           LXI     SP,$1110
000039A4: 51                 DCR     A
000039A5: 01 81              LDAW    VV:81
000039A7: 81                 CALT    ($0082)
000039A8: 81                 CALT    ($0082)
000039A9: 81                 CALT    ($0082)
000039AA: 81                 CALT    ($0082)
000039AB: 01 40              LDAW    VV:40
000039AD: 10                 EXA     
000039AE: 0E                 MOV     A,H
000039AF: 00                 NOP     
000039B0: 01 01              LDAW    VV:01
000039B2: 01 00              LDAW    VV:00
000039B4: 04 02 08           LXI     SP,$0802
000039B7: 28                 illegal 
000039B8: A8                 INX     EA
000039B9: 28                 illegal 
000039BA: 68 68              MVI     V,$68
000039BC: 68 68              MVI     V,$68
000039BE: 68 28              MVI     V,$28
000039C0: 88                 CALT    ($0090)
000039C1: 02                 INX     SP
000039C2: 1C                 MOV     D,A
000039C3: 02                 INX     SP
000039C4: 00                 NOP     
000039C5: 00                 NOP     
000039C6: 00                 NOP     
000039C7: 8A                 CALT    ($0094)
000039C8: 1B                 MOV     C,A
000039C9: 0B                 MOV     A,C
000039CA: 20 00              INRW    VV:00
000039CC: 38                 illegal 
000039CD: 44 45 45           LXI     EA,$4545
000039D0: 45 46 44           ONIW    VV:46,$44
000039D3: 44 0A 80           LXI     EA,$800A
000039D6: 00                 NOP     
000039D7: 18                 MOV     EAH,A
000039D8: 21                 JB      
000039D9: 05 45 46           ANIW    VV:45,$46
000039DC: 44 44 40           LXI     EA,$4044
000039DF: 83                 CALT    ($0086)
000039E0: 11                 EXX     
000039E1: 80                 CALT    ($0080)
000039E2: 22                 INX     DE
000039E3: 01 00              LDAW    VV:00
000039E5: 20 00              INRW    VV:00
000039E7: 0C                 MOV     A,D
000039E8: 02                 INX     SP
000039E9: 10                 EXA     
000039EA: 00                 NOP     
000039EB: 01 01              LDAW    VV:01
000039ED: 01 01              LDAW    VV:01
000039EF: 01 01              LDAW    VV:01
000039F1: 01 01              LDAW    VV:01
000039F3: 01 00              LDAW    VV:00
000039F5: 10                 EXA     
000039F6: 08                 MOV     A,EAH
000039F7: 02                 INX     SP
000039F8: 0F                 MOV     A,L
000039F9: C0                 JR      $39FA
000039FA: 00                 NOP     
000039FB: 0C                 MOV     A,D
000039FC: 10                 EXA     
000039FD: 02                 INX     SP
000039FE: 00                 NOP     
000039FF: 20 20              INRW    VV:20
00003A01: 20 20              INRW    VV:20
00003A03: 20 21              INRW    VV:21
00003A05: 20 20              INRW    VV:20
00003A07: 20 00              INRW    VV:00
00003A09: 12                 INX     BC
00003A0A: 00                 NOP     
00003A0B: 10                 EXA     
00003A0C: 8E                 CALT    ($009C)
00003A0D: 9A                 CALT    ($00B4)
00003A0E: 8B                 CALT    ($0096)
00003A0F: 80                 CALT    ($0080)
00003A10: 00                 NOP     
00003A11: 50                 EXH     
00003A12: AA                 EI      
00003A13: AA                 EI      
00003A14: AA                 EI      
00003A15: AA                 EI      
00003A16: AA                 EI      
00003A17: 14 00 8B           LXI     BC,$8B00
00003A1A: 00                 NOP     
00003A1B: 02                 INX     SP
00003A1C: 12                 INX     BC
00003A1D: 6A 2A              MVI     B,$2A
00003A1F: AA                 EI      
00003A20: A8                 INX     EA
00003A21: AC                 LDAX    (HL+A)
00003A22: 90                 CALT    ($00A0)
00003A23: 80                 CALT    ($0080)
00003A24: 12                 INX     BC
00003A25: 6A AA              MVI     B,$AA
00003A27: AA                 EI      
00003A28: AA                 EI      
00003A29: AC                 LDAX    (HL+A)
00003A2A: 90                 CALT    ($00A0)
00003A2B: 00                 NOP     
00003A2C: 04 0F 80           LXI     SP,$800F
00003A2F: 30 01              DCRW    VV:01
00003A31: 48 33              RLR     C
00003A33: 00                 NOP     
00003A34: 84                 CALT    ($0088)
00003A35: 84                 CALT    ($0088)
00003A36: 84                 CALT    ($0088)
00003A37: 84                 CALT    ($0088)
00003A38: 84                 CALT    ($0088)
00003A39: 84                 CALT    ($0088)
00003A3A: 84                 CALT    ($0088)
00003A3B: 84                 CALT    ($0088)
00003A3C: 84                 CALT    ($0088)
00003A3D: 40 11 4A           CALL    $4A11
00003A40: 52                 DCR     B
00003A41: 88                 CALT    ($0090)
00003A42: 02                 INX     SP
00003A43: 21                 JB      
00003A44: 21                 JB      
00003A45: 21                 JB      
00003A46: 21                 JB      
00003A47: 21                 JB      
00003A48: 21                 JB      
00003A49: 21                 JB      
00003A4A: 21                 JB      
00003A4B: 21                 JB      
00003A4C: 00                 NOP     
00003A4D: CC                 JR      $3A5A
00003A4E: 12                 INX     BC
00003A4F: 8B                 CALT    ($0096)
00003A50: 9B                 CALT    ($00B6)
00003A51: 8B                 CALT    ($0096)
00003A52: 80                 CALT    ($0080)
00003A53: 00                 NOP     
00003A54: 7F 80              CALF    $0F80
00003A56: 80                 CALT    ($0080)
00003A57: 92                 CALT    ($00A4)
00003A58: 92                 CALT    ($00A4)
00003A59: 92                 CALT    ($00A4)
00003A5A: 6C 00              MVI     D,$00
00003A5C: 8A                 CALT    ($0094)
00003A5D: 08                 MOV     A,EAH
00003A5E: 00                 NOP     
00003A5F: 03                 DCX     SP
00003A60: 1C                 MOV     D,A
00003A61: 60 00              illegal 
00003A63: 82                 CALT    ($0084)
00003A64: 92                 CALT    ($00A4)
00003A65: 82                 CALT    ($0084)
00003A66: 6C C1              MVI     D,$C1
00003A68: 15 00 9C           ORIW    VV:00,$9C
00003A6B: 3A                 STAX    (DE)
00003A6C: FE                 JR      $3A6B
00003A6D: 00                 NOP     
00003A6E: 00                 NOP     
00003A6F: 00                 NOP     
00003A70: 00                 NOP     
00003A71: 00                 NOP     
00003A72: 3F                 STAX    (HL-)
00003A73: 40 00 00           CALL    $0000
00003A76: 02                 INX     SP
00003A77: 80                 CALT    ($0080)
00003A78: 80                 CALT    ($0080)
00003A79: 81                 CALT    ($0082)
00003A7A: 91                 CALT    ($00A2)
00003A7B: 91                 CALT    ($00A2)
00003A7C: 91                 CALT    ($00A2)
00003A7D: 91                 CALT    ($00A2)
00003A7E: 11                 EXX     
00003A7F: 01 00              LDAW    VV:00
00003A81: 60 0A              ANA     B,A
00003A83: 04 00 00           LXI     SP,$0000
00003A86: 00                 NOP     
00003A87: 00                 NOP     
00003A88: 00                 NOP     
00003A89: 00                 NOP     
00003A8A: 3F                 STAX    (HL-)
00003A8B: 40 00 80           CALL    $8000
00003A8E: 04 02 00           LXI     SP,$0002
00003A91: 00                 NOP     
00003A92: 00                 NOP     
00003A93: 00                 NOP     
00003A94: 00                 NOP     
00003A95: 00                 NOP     
00003A96: 00                 NOP     
00003A97: A0                 POP     VA
00003A98: 10                 EXA     
00003A99: 42                 INR     B
00003A9A: 00                 NOP     
00003A9B: 0C                 MOV     A,D
00003A9C: 80                 CALT    ($0080)
00003A9D: 13                 DCX     BC
00003A9E: FE                 JR      $3A9D
00003A9F: 00                 NOP     
00003AA0: 00                 NOP     
00003AA1: 00                 NOP     
00003AA2: 00                 NOP     
00003AA3: 00                 NOP     
00003AA4: 3F                 STAX    (HL-)
00003AA5: 40 00 02           CALL    $0200
00003AA8: 80                 CALT    ($0080)
00003AA9: 80                 CALT    ($0080)
00003AAA: 81                 CALT    ($0082)
00003AAB: 91                 CALT    ($00A2)
00003AAC: 91                 CALT    ($00A2)
00003AAD: 91                 CALT    ($00A2)
00003AAE: 91                 CALT    ($00A2)
00003AAF: 11                 EXX     
00003AB0: 01 60              LDAW    VV:60
00003AB2: 0A                 MOV     A,B
00003AB3: 04 00 00           LXI     SP,$0000
00003AB6: 00                 NOP     
00003AB7: 00                 NOP     
00003AB8: 00                 NOP     
00003AB9: 00                 NOP     
00003ABA: 3F                 STAX    (HL-)
00003ABB: 40 80 04           CALL    $0480
00003ABE: 02                 INX     SP
00003ABF: 00                 NOP     
00003AC0: 00                 NOP     
00003AC1: 00                 NOP     
00003AC2: 00                 NOP     
00003AC3: 00                 NOP     
00003AC4: 00                 NOP     
00003AC5: 00                 NOP     
00003AC6: A0                 POP     VA
00003AC7: 52                 DCR     B
00003AC8: 00                 NOP     
00003AC9: 0C                 MOV     A,D
00003ACA: 8E                 CALT    ($009C)
00003ACB: 8B                 CALT    ($0096)
00003ACC: 8B                 CALT    ($0096)
00003ACD: 01 3E              LDAW    VV:3E
00003ACF: 48 88              illegal 
00003AD1: 88                 CALT    ($0090)
00003AD2: FE                 JR      $3AD1
00003AD3: 92                 CALT    ($00A4)
00003AD4: 92                 CALT    ($00A4)
00003AD5: 92                 CALT    ($00A4)
00003AD6: 92                 CALT    ($00A4)
00003AD7: 8B                 CALT    ($0096)
00003AD8: 00                 NOP     
00003AD9: 06                 illegal 
00003ADA: 18                 MOV     EAH,A
00003ADB: 30 50              DCRW    VV:50
00003ADD: 9E                 CALT    ($00BC)
00003ADE: F2                 JR      $3AD1
00003ADF: 92                 CALT    ($00A4)
00003AE0: 92                 CALT    ($00A4)
00003AE1: 82                 CALT    ($0084)
00003AE2: 0E                 MOV     A,H
00003AE3: 18                 MOV     EAH,A
00003AE4: 68 88              MVI     V,$88
00003AE6: 9E                 CALT    ($00BC)
00003AE7: F2                 JR      $3ADA
00003AE8: 92                 CALT    ($00A4)
00003AE9: 80                 CALT    ($0080)
00003AEA: 00                 NOP     
00003AEB: 17 80              ORI     A,$80
00003AED: 14 01 01           LXI     BC,$0101
00003AF0: 01 01              LDAW    VV:01
00003AF2: 03                 DCX     SP
00003AF3: 05 08 10           ANIW    VV:08,$10
00003AF6: 20 40              INRW    VV:40
00003AF8: 81                 CALT    ($0082)
00003AF9: 81                 CALT    ($0082)
00003AFA: 81                 CALT    ($0082)
00003AFB: FF                 JR      $3AFB
00003AFC: 81                 CALT    ($0082)
00003AFD: 81                 CALT    ($0082)
00003AFE: 81                 CALT    ($0082)
00003AFF: 81                 CALT    ($0082)
00003B00: 81                 CALT    ($0082)
00003B01: 99                 CALT    ($00B2)
00003B02: 81                 CALT    ($0082)
00003B03: 81                 CALT    ($0082)
00003B04: C3                 JR      $3B08
00003B05: 00                 NOP     
00003B06: 00                 NOP     
00003B07: 00                 NOP     
00003B08: 02                 INX     SP
00003B09: 04 08 18           LXI     SP,$1808
00003B0C: 28                 illegal 
00003B0D: 48 88              illegal 
00003B0F: 08                 MOV     A,EAH
00003B10: 08                 MOV     A,EAH
00003B11: 08                 MOV     A,EAH
00003B12: FE                 JR      $3B11
00003B13: 10                 EXA     
00003B14: 10                 EXA     
00003B15: 10                 EXA     
00003B16: 10                 EXA     
00003B17: 10                 EXA     
00003B18: 38                 illegal 
00003B19: 00                 NOP     
00003B1A: 00                 NOP     
00003B1B: C6                 JR      $3B22
00003B1C: 00                 NOP     
00003B1D: 8E                 CALT    ($009C)
00003B1E: 8B                 CALT    ($0096)
00003B1F: 8B                 CALT    ($0096)
00003B20: 14 2C 2A           LXI     BC,$2A2C
00003B23: 2A                 LDAX    (DE)
00003B24: 0A                 MOV     A,B
00003B25: 1C                 MOV     D,A
00003B26: 28                 illegal 
00003B27: 2A                 LDAX    (DE)
00003B28: 2A                 LDAX    (DE)
00003B29: 1A                 MOV     B,A
00003B2A: 8B                 CALT    ($0096)
00003B2B: 00                 NOP     
00003B2C: 04 22 2A           LXI     SP,$2A22
00003B2F: 2A                 LDAX    (DE)
00003B30: 1C                 MOV     D,A
00003B31: 2A                 LDAX    (DE)
00003B32: 2A                 LDAX    (DE)
00003B33: 2A                 LDAX    (DE)
00003B34: 10                 EXA     
00003B35: 06                 illegal 
00003B36: 22                 INX     DE
00003B37: 2A                 LDAX    (DE)
00003B38: 2C                 LDAX    (DE+)
00003B39: 1A                 MOV     B,A
00003B3A: 2A                 LDAX    (DE)
00003B3B: 2A                 LDAX    (DE)
00003B3C: 30 01              DCRW    VV:01
00003B3E: 15 80 44           ORIW    VV:80,$44
00003B41: 01 02              LDAW    VV:02
00003B43: 10                 EXA     
00003B44: 15 11 01           ORIW    VV:11,$01
00003B47: 01 01              LDAW    VV:01
00003B49: 00                 NOP     
00003B4A: 00                 NOP     
00003B4B: 10                 EXA     
00003B4C: 0E                 MOV     A,H
00003B4D: 10                 EXA     
00003B4E: 00                 NOP     
00003B4F: 01 01              LDAW    VV:01
00003B51: 01 01              LDAW    VV:01
00003B53: 01 00              LDAW    VV:00
00003B55: 10                 EXA     
00003B56: 0A                 MOV     A,B
00003B57: 06                 illegal 
00003B58: 00                 NOP     
00003B59: 00                 NOP     
00003B5A: 20 28              INRW    VV:28
00003B5C: 28                 illegal 
00003B5D: 28                 illegal 
00003B5E: 28                 illegal 
00003B5F: 0A                 MOV     A,B
00003B60: 0A                 MOV     A,B
00003B61: 1C                 MOV     D,A
00003B62: 0A                 MOV     A,B
00003B63: 08                 MOV     A,EAH
00003B64: 28                 illegal 
00003B65: 28                 illegal 
00003B66: 28                 illegal 
00003B67: 28                 illegal 
00003B68: 28                 illegal 
00003B69: 08                 MOV     A,EAH
00003B6A: 0A                 MOV     A,B
00003B6B: 18                 MOV     EAH,A
00003B6C: 8E                 CALT    ($009C)
00003B6D: 8B                 CALT    ($0096)
00003B6E: 8B                 CALT    ($0096)
00003B6F: 22                 INX     DE
00003B70: 3A                 STAX    (DE)
00003B71: 44 00 8A           LXI     EA,$8A00
00003B74: 92                 CALT    ($00A4)
00003B75: A2                 POP     DE
00003B76: 00                 NOP     
00003B77: 44 B8 8B           LXI     EA,$8BB8
00003B7A: 00                 NOP     
00003B7B: 1A                 MOV     B,A
00003B7C: 24 42 0A           LXI     DE,$0A42
00003B7F: 92                 CALT    ($00A4)
00003B80: A0                 POP     VA
00003B81: 84                 CALT    ($0088)
00003B82: 48 B0              DRLR    EA
00003B84: 1A                 MOV     B,A
00003B85: 64 0A 82           ANI     PC,$82
00003B88: 92                 CALT    ($00A4)
00003B89: A0                 POP     VA
00003B8A: 4C B0              illegal 
00003B8C: 02                 INX     SP
00003B8D: 13                 DCX     BC
00003B8E: 80                 CALT    ($0080)
00003B8F: 44 01 19           LXI     EA,$1901
00003B92: 24 42 00           LXI     DE,$0042
00003B95: 00                 NOP     
00003B96: 04 81 81           LXI     SP,$8181
00003B99: 89                 CALT    ($0092)
00003B9A: 81                 CALT    ($0082)
00003B9B: 91                 CALT    ($00A2)
00003B9C: 81                 CALT    ($0082)
00003B9D: 81                 CALT    ($0082)
00003B9E: 20 00              INRW    VV:00
00003BA0: 00                 NOP     
00003BA1: 42                 INR     B
00003BA2: 24 98 38           LXI     DE,$3898
00003BA5: 46 00              ADI     A,$00
00003BA7: 00                 NOP     
00003BA8: 86                 CALT    ($008C)
00003BA9: 00                 NOP     
00003BAA: 08                 MOV     A,EAH
00003BAB: 00                 NOP     
00003BAC: 00                 NOP     
00003BAD: 10                 EXA     
00003BAE: 00                 NOP     
00003BAF: 00                 NOP     
00003BB0: 20 00              INRW    VV:00
00003BB2: C2                 JR      $3BB5
00003BB3: 00                 NOP     
00003BB4: 00                 NOP     
00003BB5: C4                 JR      $3BBA
00003BB6: 38                 illegal 
00003BB7: 8A                 CALT    ($0094)
00003BB8: 8B                 CALT    ($0096)
00003BB9: 8B                 CALT    ($0096)
00003BBA: 22                 INX     DE
00003BBB: 1C                 MOV     D,A
00003BBC: 01 22              LDAW    VV:22
00003BBE: 26 2A              ADINC   A,$2A
00003BC0: 32                 INX     HL
00003BC1: 22                 INX     DE
00003BC2: 40 1C 8A           CALL    $8A1C
00003BC5: 00                 NOP     
00003BC6: 0D                 MOV     A,E
00003BC7: 12                 INX     BC
00003BC8: 06                 illegal 
00003BC9: 28                 illegal 
00003BCA: 32                 INX     HL
00003BCB: 20 44              INRW    VV:44
00003BCD: 18                 MOV     EAH,A
00003BCE: 00                 NOP     
00003BCF: 03                 DCX     SP
00003BD0: 11                 EXX     
00003BD1: 80                 CALT    ($0080)
00003BD2: 82                 CALT    ($0084)
00003BD3: 01 0C              LDAW    VV:0C
00003BD5: 03                 DCX     SP
00003BD6: 10                 EXA     
00003BD7: 00                 NOP     
00003BD8: 03                 DCX     SP
00003BD9: 01 01              LDAW    VV:01
00003BDB: 05 01 01           ANIW    VV:01,$01
00003BDE: 09                 MOV     A,EAL
00003BDF: 01 01              LDAW    VV:01
00003BE1: 10                 EXA     
00003BE2: 00                 NOP     
00003BE3: 02                 INX     SP
00003BE4: 2C                 LDAX    (DE+)
00003BE5: 0D                 MOV     A,E
00003BE6: 10                 EXA     
00003BE7: 00                 NOP     
00003BE8: 02                 INX     SP
00003BE9: 20 20              INRW    VV:20
00003BEB: 24 20 20           LXI     DE,$2020
00003BEE: 28                 illegal 
00003BEF: 20 20              INRW    VV:20
00003BF1: 30 00              DCRW    VV:00
00003BF3: 02                 INX     SP
00003BF4: 30 0C              DCRW    VV:0C
00003BF6: 8A                 CALT    ($0094)
00003BF7: A9                 DCX     EA
00003BF8: A9                 DCX     EA
00003BF9: 88                 CALT    ($0090)
00003BFA: 00                 NOP     
00003BFB: 00                 NOP     
00003BFC: 80                 CALT    ($0080)
00003BFD: 00                 NOP     
00003BFE: 00                 NOP     
00003BFF: 00                 NOP     
00003C00: 80                 CALT    ($0080)
00003C01: 00                 NOP     
00003C02: 00                 NOP     
00003C03: AA                 EI      
00003C04: 00                 NOP     
00003C05: 00                 NOP     
00003C06: 00                 NOP     
00003C07: 80                 CALT    ($0080)
00003C08: 00                 NOP     
00003C09: 00                 NOP     
00003C0A: 00                 NOP     
00003C0B: 80                 CALT    ($0080)
00003C0C: 00                 NOP     
00003C0D: 00                 NOP     
00003C0E: 05 0D 80           ANIW    VV:0D,$80
00003C11: 20 03              INRW    VV:03
00003C13: 40 40 40           CALL    $4040
00003C16: 00                 NOP     
00003C17: 00                 NOP     
00003C18: 00                 NOP     
00003C19: 00                 NOP     
00003C1A: 00                 NOP     
00003C1B: 00                 NOP     
00003C1C: 00                 NOP     
00003C1D: 40 40 40           CALL    $4040
00003C20: 80                 CALT    ($0080)
00003C21: 80                 CALT    ($0080)
00003C22: 80                 CALT    ($0080)
00003C23: 00                 NOP     
00003C24: 00                 NOP     
00003C25: 00                 NOP     
00003C26: 00                 NOP     
00003C27: 00                 NOP     
00003C28: 00                 NOP     
00003C29: 00                 NOP     
00003C2A: 80                 CALT    ($0080)
00003C2B: 80                 CALT    ($0080)
00003C2C: 80                 CALT    ($0080)
00003C2D: AE                 LDAX    (HL+EA)
00003C2E: 8B                 CALT    ($0096)
00003C2F: 8B                 CALT    ($0096)
00003C30: 00                 NOP     
00003C31: 06                 illegal 
00003C32: 8C                 CALT    ($0098)
00003C33: 14 24 44           LXI     BC,$4424
00003C36: 24 14 8C           LXI     DE,$8C14
00003C39: 06                 illegal 
00003C3A: 8E                 CALT    ($009C)
00003C3B: 14 24 44           LXI     BC,$4424
00003C3E: 24 14 8E           LXI     DE,$8E14
00003C41: 00                 NOP     
00003C42: 00                 NOP     
00003C43: 8B                 CALT    ($0096)
00003C44: 00                 NOP     
00003C45: 02                 INX     SP
00003C46: 04 0C 14           LXI     SP,$140C
00003C49: 84                 CALT    ($0088)
00003C4A: 24 24 3E           LXI     DE,$3E24
00003C4D: 80                 CALT    ($0080)
00003C4E: 02                 INX     SP
00003C4F: 04 0C 94           LXI     SP,$940C
00003C52: 04 3E 00           LXI     SP,$003E
00003C55: 80                 CALT    ($0080)
00003C56: 01 15              LDAW    VV:15
00003C58: 80                 CALT    ($0080)
00003C59: 30 01              DCRW    VV:01
00003C5B: 01 01              LDAW    VV:01
00003C5D: 01 83              LDAW    VV:83
00003C5F: 85                 CALT    ($008A)
00003C60: 8D                 CALT    ($009A)
00003C61: 15 04 24           ORIW    VV:04,$24
00003C64: 44 04 44           LXI     EA,$4404
00003C67: 24 04 15           LXI     DE,$1504
00003C6A: 8D                 CALT    ($009A)
00003C6B: 85                 CALT    ($008A)
00003C6C: 83                 CALT    ($0086)
00003C6D: 01 01              LDAW    VV:01
00003C6F: 01 00              LDAW    VV:00
00003C71: 00                 NOP     
00003C72: 02                 INX     SP
00003C73: 04 00 08           LXI     SP,$0800
00003C76: 10                 EXA     
00003C77: 20 40              INRW    VV:40
00003C79: 00                 NOP     
00003C7A: 00                 NOP     
00003C7B: 00                 NOP     
00003C7C: 40 20 10           CALL    $1020
00003C7F: 08                 MOV     A,EAH
00003C80: 00                 NOP     
00003C81: 04 02 00           LXI     SP,$0002
00003C84: 00                 NOP     
00003C85: BF 8B              STAX    (HL+$8B)
00003C87: 8A                 CALT    ($0094)
00003C88: 00                 NOP     
00003C89: 98                 CALT    ($00B0)
00003C8A: 24 00 42           LXI     DE,$4200
00003C8D: 42                 INR     B
00003C8E: 42                 INR     B
00003C8F: 00                 NOP     
00003C90: 24 98 80           LXI     DE,$8098
00003C93: 18                 MOV     EAH,A
00003C94: 24 42 42           LXI     DE,$4242
00003C97: 42                 INR     B
00003C98: 24 18 80           LXI     DE,$8018
00003C9B: 98                 CALT    ($00B0)
00003C9C: 24 42 42           LXI     DE,$4242
00003C9F: 42                 INR     B
00003CA0: 24 98 00           LXI     DE,$0098
00003CA3: 8B                 CALT    ($0096)
00003CA4: 00                 NOP     
00003CA5: 0C                 MOV     A,D
00003CA6: 12                 INX     BC
00003CA7: 02                 INX     SP
00003CA8: A2                 POP     DE
00003CA9: 22                 INX     DE
00003CAA: 22                 INX     DE
00003CAB: 20 A4              INRW    VV:A4
00003CAD: 18                 MOV     EAH,A
00003CAE: 0C                 MOV     A,D
00003CAF: 12                 INX     BC
00003CB0: 22                 INX     DE
00003CB1: A2                 POP     DE
00003CB2: 22                 INX     DE
00003CB3: 22                 INX     DE
00003CB4: 24 98 42           LXI     DE,$4298
00003CB7: 13                 DCX     BC
00003CB8: 00                 NOP     
00003CB9: E1                 JR      $3C9B
00003CBA: 3C                 STAX    (DE+)
00003CBB: 1C                 MOV     D,A
00003CBC: 00                 NOP     
00003CBD: 22                 INX     DE
00003CBE: 80                 CALT    ($0080)
00003CBF: 80                 CALT    ($0080)
00003CC0: 80                 CALT    ($0080)
00003CC1: 41                 INR     A
00003CC2: 41                 INR     A
00003CC3: 41                 INR     A
00003CC4: 41                 INR     A
00003CC5: 41                 INR     A
00003CC6: 41                 INR     A
00003CC7: 41                 INR     A
00003CC8: 80                 CALT    ($0080)
00003CC9: 80                 CALT    ($0080)
00003CCA: 80                 CALT    ($0080)
00003CCB: 22                 INX     DE
00003CCC: 00                 NOP     
00003CCD: 1C                 MOV     D,A
00003CCE: 18                 MOV     EAH,A
00003CCF: 24 00 00           LXI     DE,$0000
00003CD2: 42                 INR     B
00003CD3: 00                 NOP     
00003CD4: 00                 NOP     
00003CD5: 00                 NOP     
00003CD6: 00                 NOP     
00003CD7: 00                 NOP     
00003CD8: 00                 NOP     
00003CD9: 00                 NOP     
00003CDA: 00                 NOP     
00003CDB: 00                 NOP     
00003CDC: 42                 INR     B
00003CDD: 00                 NOP     
00003CDE: 00                 NOP     
00003CDF: 24 18 01           LXI     DE,$0118
00003CE2: 11                 EXX     
00003CE3: 1C                 MOV     D,A
00003CE4: 00                 NOP     
00003CE5: A2                 POP     DE
00003CE6: 80                 CALT    ($0080)
00003CE7: 80                 CALT    ($0080)
00003CE8: 41                 INR     A
00003CE9: 41                 INR     A
00003CEA: 41                 INR     A
00003CEB: 41                 INR     A
00003CEC: 41                 INR     A
00003CED: 41                 INR     A
00003CEE: 41                 INR     A
00003CEF: 80                 CALT    ($0080)
00003CF0: 80                 CALT    ($0080)
00003CF1: A2                 POP     DE
00003CF2: 00                 NOP     
00003CF3: 1C                 MOV     D,A
00003CF4: 18                 MOV     EAH,A
00003CF5: 24 00 42           LXI     DE,$4200
00003CF8: 00                 NOP     
00003CF9: 00                 NOP     
00003CFA: 00                 NOP     
00003CFB: 00                 NOP     
00003CFC: 00                 NOP     
00003CFD: 00                 NOP     
00003CFE: 00                 NOP     
00003CFF: 00                 NOP     
00003D00: 00                 NOP     
00003D01: 42                 INR     B
00003D02: 00                 NOP     
00003D03: 24 18 8B           LXI     DE,$8B18
00003D06: 8B                 CALT    ($0096)
00003D07: 8B                 CALT    ($0096)
00003D08: 41                 INR     A
00003D09: 3C                 STAX    (DE+)
00003D0A: 02                 INX     SP
00003D0B: 82                 CALT    ($0084)
00003D0C: 02                 INX     SP
00003D0D: 02                 INX     SP
00003D0E: 02                 INX     SP
00003D0F: 82                 CALT    ($0084)
00003D10: 02                 INX     SP
00003D11: 3C                 STAX    (DE+)
00003D12: 8B                 CALT    ($0096)
00003D13: 02                 INX     SP
00003D14: 0C                 MOV     A,D
00003D15: 32                 INX     HL
00003D16: 02                 INX     SP
00003D17: 82                 CALT    ($0084)
00003D18: 02                 INX     SP
00003D19: 02                 INX     SP
00003D1A: 00                 NOP     
00003D1B: 8C                 CALT    ($0098)
00003D1C: 30 41              DCRW    VV:41
00003D1E: 15 00 4C           ORIW    VV:00,$4C
00003D21: 3D                 STAX    (HL+)
00003D22: 00                 NOP     
00003D23: 00                 NOP     
00003D24: 3C                 STAX    (DE+)
00003D25: 02                 INX     SP
00003D26: 80                 CALT    ($0080)
00003D27: 80                 CALT    ($0080)
00003D28: 81                 CALT    ($0082)
00003D29: 01 01              LDAW    VV:01
00003D2B: 01 01              LDAW    VV:01
00003D2D: 01 01              LDAW    VV:01
00003D2F: 01 81              LDAW    VV:81
00003D31: 80                 CALT    ($0080)
00003D32: 80                 CALT    ($0080)
00003D33: 02                 INX     SP
00003D34: 3C                 STAX    (DE+)
00003D35: 00                 NOP     
00003D36: 00                 NOP     
00003D37: 40 40 7C           CALL    $7C40
00003D3A: 40 42 40           CALL    $4042
00003D3D: 40 00 00           CALL    $0000
00003D40: 00                 NOP     
00003D41: 00                 NOP     
00003D42: 00                 NOP     
00003D43: 00                 NOP     
00003D44: 00                 NOP     
00003D45: 40 40 42           CALL    $4240
00003D48: 40 7C 40           CALL    $407C
00003D4B: 40 01 11           CALL    $1101
00003D4E: 00                 NOP     
00003D4F: 00                 NOP     
00003D50: 3C                 STAX    (DE+)
00003D51: 82                 CALT    ($0084)
00003D52: 80                 CALT    ($0080)
00003D53: 80                 CALT    ($0080)
00003D54: 01 01              LDAW    VV:01
00003D56: 01 01              LDAW    VV:01
00003D58: 01 80              LDAW    VV:80
00003D5A: 80                 CALT    ($0080)
00003D5B: 82                 CALT    ($0084)
00003D5C: 3C                 STAX    (DE+)
00003D5D: 00                 NOP     
00003D5E: 00                 NOP     
00003D5F: 40 40 7C           CALL    $7C40
00003D62: 40 42 00           CALL    $0042
00003D65: 00                 NOP     
00003D66: 00                 NOP     
00003D67: 00                 NOP     
00003D68: 00                 NOP     
00003D69: 00                 NOP     
00003D6A: 00                 NOP     
00003D6B: 42                 INR     B
00003D6C: 40 7C 40           CALL    $407C
00003D6F: 40 8A 8B           CALL    $8B8A
00003D72: 8B                 CALT    ($0096)
00003D73: 48 04              illegal 
00003D75: 0A                 MOV     A,B
00003D76: AA                 EI      
00003D77: 2A                 LDAX    (DE)
00003D78: 2A                 LDAX    (DE)
00003D79: 2A                 LDAX    (DE)
00003D7A: A8                 INX     EA
00003D7B: 1C                 MOV     D,A
00003D7C: 02                 INX     SP
00003D7D: 8A                 CALT    ($0094)
00003D7E: 00                 NOP     
00003D7F: 04 0A 2A           LXI     SP,$2A0A
00003D82: AA                 EI      
00003D83: 2A                 LDAX    (DE)
00003D84: 2A                 LDAX    (DE)
00003D85: 2C                 LDAX    (DE+)
00003D86: 9A                 CALT    ($00B4)
00003D87: 00                 NOP     
00003D88: 02                 INX     SP
00003D89: 14 80 30           LXI     BC,$3080
00003D8C: 01 00              LDAW    VV:00
00003D8E: 02                 INX     SP
00003D8F: 04 10 51           LXI     SP,$5110
00003D92: 51                 DCR     A
00003D93: 41                 INR     A
00003D94: 01 01              LDAW    VV:01
00003D96: 01 01              LDAW    VV:01
00003D98: 01 01              LDAW    VV:01
00003D9A: 40 50 4E           CALL    $4E50
00003D9D: 00                 NOP     
00003D9E: 01 01              LDAW    VV:01
00003DA0: 01 00              LDAW    VV:00
00003DA2: 04 02 08           LXI     SP,$0802
00003DA5: A8                 INX     EA
00003DA6: A8                 INX     EA
00003DA7: A8                 INX     EA
00003DA8: 28                 illegal 
00003DA9: 28                 illegal 
00003DAA: 28                 illegal 
00003DAB: 28                 illegal 
00003DAC: 28                 illegal 
00003DAD: 28                 illegal 
00003DAE: 88                 CALT    ($0090)
00003DAF: 8A                 CALT    ($0094)
00003DB0: 9C                 CALT    ($00B8)
00003DB1: 02                 INX     SP
00003DB2: 00                 NOP     
00003DB3: 00                 NOP     
00003DB4: 00                 NOP     
00003DB5: 8E                 CALT    ($009C)
00003DB6: 89                 CALT    ($0092)
00003DB7: 8A                 CALT    ($0094)
00003DB8: 41                 INR     A
00003DB9: 1C                 MOV     D,A
00003DBA: 22                 INX     DE
00003DBB: A2                 POP     DE
00003DBC: 22                 INX     DE
00003DBD: 22                 INX     DE
00003DBE: 22                 INX     DE
00003DBF: A2                 POP     DE
00003DC0: 22                 INX     DE
00003DC1: 1C                 MOV     D,A
00003DC2: 8A                 CALT    ($0094)
00003DC3: 00                 NOP     
00003DC4: 0C                 MOV     A,D
00003DC5: 12                 INX     BC
00003DC6: 02                 INX     SP
00003DC7: A0                 POP     VA
00003DC8: 22                 INX     DE
00003DC9: 00                 NOP     
00003DCA: 24 98 00           LXI     DE,$0098
00003DCD: 0C                 MOV     A,D
00003DCE: 12                 INX     BC
00003DCF: 02                 INX     SP
00003DD0: A2                 POP     DE
00003DD1: 20 24              INRW    VV:24
00003DD3: 18                 MOV     EAH,A
00003DD4: 80                 CALT    ($0080)
00003DD5: 03                 DCX     SP
00003DD6: 11                 EXX     
00003DD7: 80                 CALT    ($0080)
00003DD8: 30 01              DCRW    VV:01
00003DDA: 0C                 MOV     A,D
00003DDB: 02                 INX     SP
00003DDC: 50                 EXH     
00003DDD: 40 41 01           CALL    $0141
00003DE0: 01 01              LDAW    VV:01
00003DE2: 01 01              LDAW    VV:01
00003DE4: 01 01              LDAW    VV:01
00003DE6: 41                 INR     A
00003DE7: 40 50 02           CALL    $0250
00003DEA: 0C                 MOV     A,D
00003DEB: 0C                 MOV     A,D
00003DEC: 10                 EXA     
00003DED: 82                 CALT    ($0084)
00003DEE: 80                 CALT    ($0080)
00003DEF: A0                 POP     VA
00003DF0: 20 20              INRW    VV:20
00003DF2: 20 20              INRW    VV:20
00003DF4: 20 20              INRW    VV:20
00003DF6: 20 A0              INRW    VV:A0
00003DF8: 80                 CALT    ($0080)
00003DF9: 82                 CALT    ($0084)
00003DFA: 10                 EXA     
00003DFB: 0C                 MOV     A,D
00003DFC: 8A                 CALT    ($0094)
00003DFD: 8A                 CALT    ($0094)
00003DFE: 8B                 CALT    ($0096)
00003DFF: 48 3C              illegal 
00003E01: 02                 INX     SP
00003E02: 82                 CALT    ($0084)
00003E03: 02                 INX     SP
00003E04: 02                 INX     SP
00003E05: 02                 INX     SP
00003E06: 80                 CALT    ($0080)
00003E07: 3C                 STAX    (DE+)
00003E08: 02                 INX     SP
00003E09: 8B                 CALT    ($0096)
00003E0A: 00                 NOP     
00003E0B: 0C                 MOV     A,D
00003E0C: 32                 INX     HL
00003E0D: 82                 CALT    ($0084)
00003E0E: 02                 INX     SP
00003E0F: 02                 INX     SP
00003E10: 02                 INX     SP
00003E11: 0C                 MOV     A,D
00003E12: B2                 PUSH    DE
00003E13: 00                 NOP     
00003E14: 01 15              LDAW    VV:15
00003E16: C1                 JR      $3E18
00003E17: 00                 NOP     
00003E18: 01 00              LDAW    VV:00
00003E1A: 00                 NOP     
00003E1B: 00                 NOP     
00003E1C: 00                 NOP     
00003E1D: 1E                 MOV     H,A
00003E1E: 40 41 41           CALL    $4141
00003E21: 41                 INR     A
00003E22: 01 01              LDAW    VV:01
00003E24: 01 01              LDAW    VV:01
00003E26: 40 40 42           CALL    $4240
00003E29: 00                 NOP     
00003E2A: 1E                 MOV     H,A
00003E2B: 01 01              LDAW    VV:01
00003E2D: 01 20              LDAW    VV:20
00003E2F: 20 20              INRW    VV:20
00003E31: 20 3C              INRW    VV:3C
00003E33: 82                 CALT    ($0084)
00003E34: 80                 CALT    ($0080)
00003E35: 80                 CALT    ($0080)
00003E36: 80                 CALT    ($0080)
00003E37: 00                 NOP     
00003E38: 00                 NOP     
00003E39: 00                 NOP     
00003E3A: 00                 NOP     
00003E3B: A0                 POP     VA
00003E3C: A2                 POP     DE
00003E3D: A0                 POP     VA
00003E3E: 20 3E              INRW    VV:3E
00003E40: 00                 NOP     
00003E41: 00                 NOP     
00003E42: 00                 NOP     
00003E43: 8E                 CALT    ($009C)
00003E44: 8B                 CALT    ($0096)
00003E45: 8B                 CALT    ($0096)
00003E46: 12                 INX     BC
00003E47: 3E                 STAX    (DE-)
00003E48: 2A                 LDAX    (DE)
00003E49: 2A                 LDAX    (DE)
00003E4A: 2A                 LDAX    (DE)
00003E4B: 6A AA              MVI     B,$AA
00003E4D: 2A                 LDAX    (DE)
00003E4E: 22                 INX     DE
00003E4F: 22                 INX     DE
00003E50: 8B                 CALT    ($0096)
00003E51: 00                 NOP     
00003E52: 06                 illegal 
00003E53: 1A                 MOV     B,A
00003E54: 2A                 LDAX    (DE)
00003E55: 2A                 LDAX    (DE)
00003E56: 2A                 LDAX    (DE)
00003E57: 6A 22              MVI     B,$22
00003E59: A0                 POP     VA
00003E5A: 20 06              INRW    VV:06
00003E5C: 1A                 MOV     B,A
00003E5D: 2A                 LDAX    (DE)
00003E5E: 2A                 LDAX    (DE)
00003E5F: 6A 2A              MVI     B,$2A
00003E61: A0                 POP     VA
00003E62: 20 02              INRW    VV:02
00003E64: 13                 DCX     BC
00003E65: 05 02 20           ANIW    VV:02,$20
00003E68: 01 01              LDAW    VV:01
00003E6A: 01 01              LDAW    VV:01
00003E6C: 3F                 STAX    (HL-)
00003E6D: 09                 MOV     A,EAL
00003E6E: 09                 MOV     A,EAL
00003E6F: 09                 MOV     A,EAL
00003E70: 09                 MOV     A,EAL
00003E71: 49 09              MVIX    BC,$09
00003E73: 09                 MOV     A,EAL
00003E74: 09                 MOV     A,EAL
00003E75: 9D                 CALT    ($00BA)
00003E76: 81                 CALT    ($0082)
00003E77: 81                 CALT    ($0082)
00003E78: 01 01              LDAW    VV:01
00003E7A: 33                 DCX     HL
00003E7B: 40 40 40           CALL    $4040
00003E7E: 40 7E 40           CALL    $407E
00003E81: 40 40 40           CALL    $4040
00003E84: 40 40 C0           CALL    $C040
00003E87: 40 58 40           CALL    $4058
00003E8A: 40 40 40           CALL    $4040
00003E8D: 66 8A              SUI     A,$8A
00003E8F: 8B                 CALT    ($0096)
00003E90: 8B                 CALT    ($0096)
00003E91: 22                 INX     DE
00003E92: 1C                 MOV     D,A
00003E93: 2A                 LDAX    (DE)
00003E94: 2A                 LDAX    (DE)
00003E95: 2A                 LDAX    (DE)
00003E96: 6A AA              MVI     B,$AA
00003E98: 2A                 LDAX    (DE)
00003E99: 2A                 LDAX    (DE)
00003E9A: 18                 MOV     EAH,A
00003E9B: 8A                 CALT    ($0094)
00003E9C: 00                 NOP     
00003E9D: 0C                 MOV     A,D
00003E9E: 1A                 MOV     B,A
00003E9F: 2A                 LDAX    (DE)
00003EA0: 2A                 LDAX    (DE)
00003EA1: 6A 2A              MVI     B,$2A
00003EA3: A8                 INX     EA
00003EA4: 10                 EXA     
00003EA5: 00                 NOP     
00003EA6: 03                 DCX     SP
00003EA7: 11                 EXX     
00003EA8: 80                 CALT    ($0080)
00003EA9: 80                 CALT    ($0080)
00003EAA: 81                 CALT    ($0082)
00003EAB: 0C                 MOV     A,D
00003EAC: 02                 INX     SP
00003EAD: 10                 EXA     
00003EAE: 00                 NOP     
00003EAF: 01 01              LDAW    VV:01
00003EB1: 41                 INR     A
00003EB2: 01 01              LDAW    VV:01
00003EB4: 01 81              LDAW    VV:81
00003EB6: 81                 CALT    ($0082)
00003EB7: 81                 CALT    ($0082)
00003EB8: 00                 NOP     
00003EB9: 10                 EXA     
00003EBA: 00                 NOP     
00003EBB: 0A                 MOV     A,B
00003EBC: 0C                 MOV     A,D
00003EBD: 18                 MOV     EAH,A
00003EBE: 0A                 MOV     A,B
00003EBF: 08                 MOV     A,EAH
00003EC0: 28                 illegal 
00003EC1: 28                 illegal 
00003EC2: 28                 illegal 
00003EC3: 28                 illegal 
00003EC4: A8                 INX     EA
00003EC5: A8                 INX     EA
00003EC6: A8                 INX     EA
00003EC7: 28                 illegal 
00003EC8: 28                 illegal 
00003EC9: 08                 MOV     A,EAH
00003ECA: 0A                 MOV     A,B
00003ECB: 18                 MOV     EAH,A
00003ECC: 08                 MOV     A,EAH
00003ECD: 8F                 CALT    ($009E)
00003ECE: 8B                 CALT    ($0096)
00003ECF: 8B                 CALT    ($0096)
00003ED0: 41                 INR     A
00003ED1: A8                 INX     EA
00003ED2: 28                 illegal 
00003ED3: 68 28              MVI     V,$28
00003ED5: 3E                 STAX    (DE-)
00003ED6: 28                 illegal 
00003ED7: 68 28              MVI     V,$28
00003ED9: A8                 INX     EA
00003EDA: 8B                 CALT    ($0096)
00003EDB: 00                 NOP     
00003EDC: 08                 MOV     A,EAH
00003EDD: 28                 illegal 
00003EDE: A8                 INX     EA
00003EDF: 6E 38              MVI     H,$38
00003EE1: 28                 illegal 
00003EE2: 68 20              MVI     V,$20
00003EE4: 80                 CALT    ($0080)
00003EE5: 08                 MOV     A,EAH
00003EE6: 28                 illegal 
00003EE7: A8                 INX     EA
00003EE8: 6E 38              MVI     H,$38
00003EEA: 28                 illegal 
00003EEB: 68 A0              MVI     V,$A0
00003EED: 42                 INR     B
00003EEE: 13                 DCX     BC
00003EEF: 00                 NOP     
00003EF0: 18                 MOV     EAH,A
00003EF1: 3F                 STAX    (HL-)
00003EF2: 80                 CALT    ($0080)
00003EF3: 90                 CALT    ($00A0)
00003EF4: 90                 CALT    ($00A0)
00003EF5: 90                 CALT    ($00A0)
00003EF6: D1                 JR      $3F08
00003EF7: 91                 CALT    ($00A2)
00003EF8: B1                 PUSH    BC
00003EF9: 11                 EXX     
00003EFA: 11                 EXX     
00003EFB: 1F                 MOV     L,A
00003EFC: 11                 EXX     
00003EFD: 11                 EXX     
00003EFE: B1                 PUSH    BC
00003EFF: 91                 CALT    ($00A2)
00003F00: D1                 JR      $3F12
00003F01: 90                 CALT    ($00A0)
00003F02: 90                 CALT    ($00A0)
00003F03: 90                 CALT    ($00A0)
00003F04: 80                 CALT    ($0080)
00003F05: 00                 NOP     
00003F06: 08                 MOV     A,EAH
00003F07: 08                 MOV     A,EAH
00003F08: 88                 CALT    ($0090)
00003F09: 08                 MOV     A,EAH
00003F0A: 48 08              SK      NV
00003F0C: 28                 illegal 
00003F0D: 08                 MOV     A,EAH
00003F0E: 1E                 MOV     H,A
00003F0F: 08                 MOV     A,EAH
00003F10: 28                 illegal 
00003F11: 08                 MOV     A,EAH
00003F12: 48 08              SK      NV
00003F14: 88                 CALT    ($0090)
00003F15: 08                 MOV     A,EAH
00003F16: 08                 MOV     A,EAH
00003F17: 00                 NOP     
00003F18: 02                 INX     SP
00003F19: 0F                 MOV     A,L
00003F1A: 80                 CALT    ($0080)
00003F1B: 90                 CALT    ($00A0)
00003F1C: 90                 CALT    ($00A0)
00003F1D: D1                 JR      $3F2F
00003F1E: 91                 CALT    ($00A2)
00003F1F: 31                 BLOCK   
00003F20: 11                 EXX     
00003F21: 1F                 MOV     L,A
00003F22: 11                 EXX     
00003F23: 31                 BLOCK   
00003F24: 91                 CALT    ($00A2)
00003F25: D1                 JR      $3F37
00003F26: 90                 CALT    ($00A0)
00003F27: 90                 CALT    ($00A0)
00003F28: 80                 CALT    ($0080)
00003F29: 00                 NOP     
00003F2A: 08                 MOV     A,EAH
00003F2B: 88                 CALT    ($0090)
00003F2C: 08                 MOV     A,EAH
00003F2D: 48 08              SK      NV
00003F2F: 28                 illegal 
00003F30: 1E                 MOV     H,A
00003F31: 28                 illegal 
00003F32: 08                 MOV     A,EAH
00003F33: 48 08              SK      NV
00003F35: 88                 CALT    ($0090)
00003F36: 08                 MOV     A,EAH
00003F37: 00                 NOP     
00003F38: 80                 CALT    ($0080)
00003F39: 8B                 CALT    ($0096)
00003F3A: 8B                 CALT    ($0096)
00003F3B: 00                 NOP     
00003F3C: 00                 NOP     
00003F3D: 00                 NOP     
00003F3E: 00                 NOP     
00003F3F: 00                 NOP     
00003F40: 00                 NOP     
00003F41: 00                 NOP     
00003F42: 00                 NOP     
00003F43: 00                 NOP     
00003F44: 00                 NOP     
00003F45: 8A                 CALT    ($0094)
00003F46: C8                 JR      $3F4F
00003F47: C8                 JR      $3F50
00003F48: 80                 CALT    ($0080)
00003F49: 00                 NOP     
00003F4A: 00                 NOP     
00003F4B: 00                 NOP     
00003F4C: 00                 NOP     
00003F4D: F2                 JR      $3F40
00003F4E: 02                 INX     SP
00003F4F: 00                 NOP     
00003F50: 00                 NOP     
00003F51: 00                 NOP     
00003F52: 9A                 CALT    ($00B4)
00003F53: 00                 NOP     
00003F54: 00                 NOP     
00003F55: 00                 NOP     
00003F56: 02                 INX     SP
00003F57: 1A                 MOV     B,A
00003F58: 60 80              illegal 
00003F5A: 00                 NOP     
00003F5B: 00                 NOP     
00003F5C: 00                 NOP     
00003F5D: 0A                 MOV     A,B
00003F5E: 03                 DCX     SP
00003F5F: C0                 JR      $3F60
00003F60: 00                 NOP     
00003F61: 03                 DCX     SP
00003F62: 00                 NOP     
00003F63: FB                 JR      $3F5F
00003F64: 00                 NOP     
00003F65: 02                 INX     SP
00003F66: F0                 JR      $3F57
00003F67: 02                 INX     SP
00003F68: 8A                 CALT    ($0094)
00003F69: A9                 DCX     EA
00003F6A: A9                 DCX     EA
00003F6B: 88                 CALT    ($0090)
00003F6C: 00                 NOP     
00003F6D: 00                 NOP     
00003F6E: E0                 JR      $3F4F
00003F6F: 00                 NOP     
00003F70: 00                 NOP     
00003F71: 00                 NOP     
00003F72: E0                 JR      $3F53
00003F73: 00                 NOP     
00003F74: 00                 NOP     
00003F75: 9A                 CALT    ($00B4)
00003F76: 08                 MOV     A,EAH
00003F77: 00                 NOP     
00003F78: 20 40              INRW    VV:40
00003F7A: 80                 CALT    ($0080)
00003F7B: 00                 NOP     
00003F7C: 20 40              INRW    VV:40
00003F7E: 80                 CALT    ($0080)
00003F7F: 00                 NOP     
00003F80: 07 0A              ANI     A,$0A
00003F82: C0                 JR      $3F83
00003F83: 20 01              INRW    VV:01
00003F85: C0                 JR      $3F86
00003F86: 00                 NOP     
00003F87: 00                 NOP     
00003F88: 00                 NOP     
00003F89: 00                 NOP     
00003F8A: 00                 NOP     
00003F8B: 00                 NOP     
00003F8C: 00                 NOP     
00003F8D: 00                 NOP     
00003F8E: C0                 JR      $3F8F
00003F8F: C0                 JR      $3F90
00003F90: 00                 NOP     
00003F91: 00                 NOP     
00003F92: 00                 NOP     
00003F93: 00                 NOP     
00003F94: 00                 NOP     
00003F95: 00                 NOP     
00003F96: 00                 NOP     
00003F97: 00                 NOP     
00003F98: C0                 JR      $3F99
00003F99: 8E                 CALT    ($009C)
00003F9A: 8B                 CALT    ($0096)
00003F9B: 8B                 CALT    ($0096)
00003F9C: 41                 INR     A
00003F9D: 28                 illegal 
00003F9E: 28                 illegal 
00003F9F: FE                 JR      $3F9E
00003FA0: 28                 illegal 
00003FA1: 28                 illegal 
00003FA2: 28                 illegal 
00003FA3: FE                 JR      $3FA2
00003FA4: 28                 illegal 
00003FA5: 28                 illegal 
00003FA6: 8B                 CALT    ($0096)
00003FA7: 00                 NOP     
00003FA8: 28                 illegal 
00003FA9: 2E                 LDAX    (DE-)
00003FAA: 38                 illegal 
00003FAB: E8                 JR      $3F94
00003FAC: 28                 illegal 
00003FAD: 2E                 LDAX    (DE-)
00003FAE: 38                 illegal 
00003FAF: E8                 JR      $3F98
00003FB0: 28                 illegal 
00003FB1: 28                 illegal 
00003FB2: 3E                 STAX    (DE-)
00003FB3: E8                 JR      $3F9C
00003FB4: 28                 illegal 
00003FB5: 2E                 LDAX    (DE-)
00003FB6: F8                 JR      $3FAF
00003FB7: 28                 illegal 
00003FB8: 00                 NOP     
00003FB9: 03                 DCX     SP
00003FBA: 11                 EXX     
00003FBB: C0                 JR      $3FBC
00003FBC: 00                 NOP     
00003FBD: 03                 DCX     SP
00003FBE: 00                 NOP     
00003FBF: 00                 NOP     
00003FC0: 00                 NOP     
00003FC1: 00                 NOP     
00003FC2: 7F 24              CALF    $0F24
00003FC4: 24 24 24           LXI     DE,$2424
00003FC7: 24 24 24           LXI     DE,$2424
00003FCA: FE                 JR      $3FC9
00003FCB: 00                 NOP     
00003FCC: 00                 NOP     
00003FCD: 00                 NOP     
00003FCE: 00                 NOP     
00003FCF: 24 24 24           LXI     DE,$2424
00003FD2: 24 FE 00           LXI     DE,$00FE
00003FD5: 00                 NOP     
00003FD6: 00                 NOP     
00003FD7: 00                 NOP     
00003FD8: 00                 NOP     
00003FD9: 00                 NOP     
00003FDA: 00                 NOP     
00003FDB: FE                 JR      $3FDA
00003FDC: 48 48              SKIT    FAD
00003FDE: 48 48              SKIT    FAD
00003FE0: 8A                 CALT    ($0094)
00003FE1: 8B                 CALT    ($0096)
00003FE2: 8B                 CALT    ($0096)
00003FE3: 14 20 54           LXI     BC,$5420
00003FE6: 54 54 FE           JMP     $FE54
00003FE9: 54 54 54           JMP     $5454
00003FEC: 08                 MOV     A,EAH
00003FED: 8A                 CALT    ($0094)
00003FEE: 80                 CALT    ($0080)
00003FEF: 00                 NOP     
00003FF0: 24 14 56           LXI     DE,$5614
00003FF3: 7C D4              CALF    $0CD4
00003FF5: 50                 EXH     
00003FF6: 48 00              illegal 
00003FF8: 82                 CALT    ($0084)
00003FF9: 13                 DCX     BC
00003FFA: 80                 CALT    ($0080)
00003FFB: 28                 illegal 
00003FFC: 01 00              LDAW    VV:00
00003FFE: 40 00 02           CALL    $0200
00004001: 20 12              INRW    VV:12
00004003: 00                 NOP     
00004004: 40 41 41           CALL    $4141
00004007: 41                 INR     A
00004008: 41                 INR     A
00004009: FF                 JR      $4009
0000400A: 49 49              MVIX    BC,$49
0000400C: 49 49              MVIX    BC,$49
0000400E: 49 29              MVIX    BC,$29
00004010: 08                 MOV     A,EAH
00004011: 20 06              INRW    VV:06
00004013: 00                 NOP     
00004014: 40 00 00           CALL    $0000
00004017: 26 40              ADINC   A,$40
00004019: 02                 INX     SP
0000401A: 10                 EXA     
0000401B: 10                 EXA     
0000401C: 10                 EXA     
0000401D: 10                 EXA     
0000401E: 10                 EXA     
0000401F: FF                 JR      $401F
00004020: 00                 NOP     
00004021: 00                 NOP     
00004022: 00                 NOP     
00004023: 00                 NOP     
00004024: 00                 NOP     
00004025: 00                 NOP     
00004026: 60 0A              ANA     B,A
00004028: 04 AF 8B           LXI     SP,$8BAF
0000402B: 8B                 CALT    ($0096)
0000402C: 00                 NOP     
0000402D: C0                 JR      $402E
0000402E: C2                 JR      $4031
0000402F: C4                 JR      $4034
00004030: 08                 MOV     A,EAH
00004031: 10                 EXA     
00004032: 20 46              INRW    VV:46
00004034: 86                 CALT    ($008C)
00004035: 06                 illegal 
00004036: C4                 JR      $403B
00004037: C8                 JR      $4040
00004038: C0                 JR      $4039
00004039: 10                 EXA     
0000403A: 06                 illegal 
0000403B: 26 46              ADINC   A,$46
0000403D: 00                 NOP     
0000403E: 00                 NOP     
0000403F: 8B                 CALT    ($0096)
00004040: 00                 NOP     
00004041: 40 C2 C4           CALL    $C4C2
00004044: 88                 CALT    ($0090)
00004045: 10                 EXA     
00004046: 22                 INX     DE
00004047: 46 86              ADI     A,$86
00004049: 04 42 C4           LXI     SP,$C442
0000404C: C8                 JR      $4055
0000404D: 92                 CALT    ($00A4)
0000404E: 26 46              ADINC   A,$46
00004050: 84                 CALT    ($0088)
00004051: 00                 NOP     
00004052: 42                 INR     B
00004053: 13                 DCX     BC
00004054: 00                 NOP     
00004055: 7D 40              CALF    $0D40
00004057: 41                 INR     A
00004058: 20 02              INRW    VV:02
0000405A: 80                 CALT    ($0080)
0000405B: 80                 CALT    ($0080)
0000405C: 84                 CALT    ($0088)
0000405D: 00                 NOP     
0000405E: 20 48              INRW    VV:48
00004060: 00                 NOP     
00004061: 12                 INX     BC
00004062: 04 00 21           LXI     SP,$2100
00004065: 01 01              LDAW    VV:01
00004067: 40 04 82           CALL    $8204
0000406A: 40 82 00           CALL    $0082
0000406D: 20 24              INRW    VV:24
0000406F: 20 08              INRW    VV:08
00004071: 80                 CALT    ($0080)
00004072: 40 10 04           CALL    $0410
00004075: 02                 INX     SP
00004076: 20 08              INRW    VV:08
00004078: 48 08              SK      NV
0000407A: 00                 NOP     
0000407B: 82                 CALT    ($0084)
0000407C: 04 01 12           LXI     SP,$1201
0000407F: 40 21 00           CALL    $0021
00004082: 82                 CALT    ($0084)
00004083: 80                 CALT    ($0080)
00004084: 84                 CALT    ($0088)
00004085: 00                 NOP     
00004086: 28                 illegal 
00004087: 40 02 14           CALL    $1402
0000408A: 00                 NOP     
0000408B: 21                 JB      
0000408C: 01 41              LDAW    VV:41
0000408E: 00                 NOP     
0000408F: 84                 CALT    ($0088)
00004090: 02                 INX     SP
00004091: 40 80 02           CALL    $0280
00004094: 20 24              INRW    VV:24
00004096: 20 08              INRW    VV:08
00004098: 80                 CALT    ($0080)
00004099: 50                 EXH     
0000409A: 04 02 20           LXI     SP,$2002
0000409D: 08                 MOV     A,EAH
0000409E: 48 08              SK      NV
000040A0: 80                 CALT    ($0080)
000040A1: 02                 INX     SP
000040A2: 04 AF 8B           LXI     SP,$8BAF
000040A5: 8B                 CALT    ($0096)
000040A6: 00                 NOP     
000040A7: 0C                 MOV     A,D
000040A8: 50                 EXH     
000040A9: A2                 POP     DE
000040AA: B2                 PUSH    DE
000040AB: AA                 EI      
000040AC: 40 04 08           CALL    $0804
000040AF: 12                 INX     BC
000040B0: 0C                 MOV     A,D
000040B1: 50                 EXH     
000040B2: A2                 POP     DE
000040B3: B2                 PUSH    DE
000040B4: AA                 EI      
000040B5: 44 08 12           LXI     EA,$1208
000040B8: 00                 NOP     
000040B9: 8B                 CALT    ($0096)
000040BA: 00                 NOP     
000040BB: 0C                 MOV     A,D
000040BC: 10                 EXA     
000040BD: 42                 INR     B
000040BE: A2                 POP     DE
000040BF: B2                 PUSH    DE
000040C0: A8                 INX     EA
000040C1: 44 02 08           LXI     EA,$0802
000040C4: 0C                 MOV     A,D
000040C5: 12                 INX     BC
000040C6: 42                 INR     B
000040C7: B2                 PUSH    DE
000040C8: A8                 INX     EA
000040C9: A4                 POP     EA
000040CA: 42                 INR     B
000040CB: 08                 MOV     A,EAH
000040CC: 41                 INR     A
000040CD: 16 00              XRI     A,$00
000040CF: FD                 JR      $40CD
000040D0: 40 00 06           CALL    $0600
000040D3: 00                 NOP     
000040D4: 08                 MOV     A,EAH
000040D5: 41                 INR     A
000040D6: 21                 JB      
000040D7: 01 91              LDAW    VV:91
000040D9: 81                 CALT    ($0082)
000040DA: 81                 CALT    ($0082)
000040DB: 09                 MOV     A,EAL
000040DC: 20 44              INRW    VV:44
000040DE: 00                 NOP     
000040DF: 02                 INX     SP
000040E0: 00                 NOP     
000040E1: 04 01 09           LXI     SP,$0901
000040E4: 01 00              LDAW    VV:00
000040E6: 00                 NOP     
000040E7: 00                 NOP     
000040E8: 04 0A 00           LXI     SP,$000A
000040EB: 40 90 20           CALL    $2090
000040EE: 00                 NOP     
000040EF: 10                 EXA     
000040F0: 20 00              INRW    VV:00
000040F2: 88                 CALT    ($0090)
000040F3: 42                 INR     B
000040F4: 04 00 04           LXI     SP,$0400
000040F7: 12                 INX     BC
000040F8: 18                 MOV     EAH,A
000040F9: 10                 EXA     
000040FA: 10                 EXA     
000040FB: 10                 EXA     
000040FC: 02                 INX     SP
000040FD: 01 12              LDAW    VV:12
000040FF: 06                 illegal 
00004100: 00                 NOP     
00004101: 48 21              SLR     A
00004103: 01 91              LDAW    VV:91
00004105: 81                 CALT    ($0082)
00004106: 89                 CALT    ($0092)
00004107: 20 44              INRW    VV:44
00004109: 00                 NOP     
0000410A: 02                 INX     SP
0000410B: 00                 NOP     
0000410C: 05 09 01           ANIW    VV:09,$01
0000410F: 00                 NOP     
00004110: 00                 NOP     
00004111: 04 0A 40           LXI     SP,$400A
00004114: 80                 CALT    ($0080)
00004115: 30 00              DCRW    VV:00
00004117: 10                 EXA     
00004118: 20 88              INRW    VV:88
0000411A: 42                 INR     B
0000411B: 04 00 16           LXI     SP,$1600
0000411E: 10                 EXA     
0000411F: 18                 MOV     EAH,A
00004120: 10                 EXA     
00004121: 10                 EXA     
00004122: 02                 INX     SP
00004123: 8A                 CALT    ($0094)
00004124: B7                 DMOV    HL,EA
00004125: B8                 RET     
00004126: 00                 NOP     
00004127: 00                 NOP     
00004128: 00                 NOP     
00004129: 00                 NOP     
0000412A: 40 80 00           CALL    $0080
0000412D: 00                 NOP     
0000412E: 00                 NOP     
0000412F: 00                 NOP     
00004130: D9                 JR      $414A
00004131: 80                 CALT    ($0080)
00004132: 00                 NOP     
00004133: 00                 NOP     
00004134: 00                 NOP     
00004135: 00                 NOP     
00004136: 00                 NOP     
00004137: 40 00 80           CALL    $8000
0000413A: 00                 NOP     
0000413B: 08                 MOV     A,EAH
0000413C: 08                 MOV     A,EAH
0000413D: C0                 JR      $413E
0000413E: 00                 NOP     
0000413F: 03                 DCX     SP
00004140: 00                 NOP     
00004141: 40 00 00           CALL    $0000
00004144: 00                 NOP     
00004145: 80                 CALT    ($0080)
00004146: 80                 CALT    ($0080)
00004147: 80                 CALT    ($0080)
00004148: 00                 NOP     
00004149: 00                 NOP     
0000414A: 00                 NOP     
0000414B: 80                 CALT    ($0080)
0000414C: 80                 CALT    ($0080)
0000414D: 80                 CALT    ($0080)
0000414E: 00                 NOP     
0000414F: 00                 NOP     
00004150: 8A                 CALT    ($0094)
00004151: B8                 RET     
00004152: B8                 RET     
00004153: 80                 CALT    ($0080)
00004154: 00                 NOP     
00004155: 00                 NOP     
00004156: 00                 NOP     
00004157: 3C                 STAX    (DE+)
00004158: 42                 INR     B
00004159: 81                 CALT    ($0082)
0000415A: 00                 NOP     
0000415B: 00                 NOP     
0000415C: 00                 NOP     
0000415D: BA                 DI      
0000415E: 80                 CALT    ($0080)
0000415F: 00                 NOP     
00004160: 00                 NOP     
00004161: 00                 NOP     
00004162: 1E                 MOV     H,A
00004163: 21                 JB      
00004164: 40 00 80           CALL    $8000
00004167: 00                 NOP     
00004168: 88                 CALT    ($0090)
00004169: 07 C0              ANI     A,$C0
0000416B: 00                 NOP     
0000416C: 03                 DCX     SP
0000416D: 08                 MOV     A,EAH
0000416E: 00                 NOP     
0000416F: 00                 NOP     
00004170: 1C                 MOV     D,A
00004171: 22                 INX     DE
00004172: 01 40              LDAW    VV:40
00004174: 00                 NOP     
00004175: 00                 NOP     
00004176: 80                 CALT    ($0080)
00004177: 02                 INX     SP
00004178: 00                 NOP     
00004179: 00                 NOP     
0000417A: 1C                 MOV     D,A
0000417B: 22                 INX     DE
0000417C: 40 01 80           CALL    $8001
0000417F: 00                 NOP     
00004180: 00                 NOP     
00004181: 8A                 CALT    ($0094)
00004182: B8                 RET     
00004183: B8                 RET     
00004184: 80                 CALT    ($0080)
00004185: 00                 NOP     
00004186: 00                 NOP     
00004187: 00                 NOP     
00004188: 81                 CALT    ($0082)
00004189: 42                 INR     B
0000418A: 3C                 STAX    (DE+)
0000418B: 00                 NOP     
0000418C: 00                 NOP     
0000418D: 00                 NOP     
0000418E: 98                 CALT    ($00B0)
0000418F: 00                 NOP     
00004190: 00                 NOP     
00004191: 01 00              LDAW    VV:00
00004193: 02                 INX     SP
00004194: 84                 CALT    ($0088)
00004195: 78 00              CALF    $0800
00004197: 00                 NOP     
00004198: 00                 NOP     
00004199: 89                 CALT    ($0092)
0000419A: 07 C0              ANI     A,$C0
0000419C: 00                 NOP     
0000419D: 03                 DCX     SP
0000419E: 20 00              INRW    VV:00
000041A0: 00                 NOP     
000041A1: 80                 CALT    ($0080)
000041A2: 00                 NOP     
000041A3: 00                 NOP     
000041A4: 40 01 22           CALL    $2201
000041A7: 1C                 MOV     D,A
000041A8: 80                 CALT    ($0080)
000041A9: 00                 NOP     
000041AA: 00                 NOP     
000041AB: 00                 NOP     
000041AC: 00                 NOP     
000041AD: 80                 CALT    ($0080)
000041AE: 01 40              LDAW    VV:40
000041B0: 22                 INX     DE
000041B1: 1C                 MOV     D,A
000041B2: 8E                 CALT    ($009C)
000041B3: 8B                 CALT    ($0096)
000041B4: 8B                 CALT    ($0096)
000041B5: 80                 CALT    ($0080)
000041B6: 00                 NOP     
000041B7: 44 28 10           LXI     EA,$1028
000041BA: FE                 JR      $41B9
000041BB: 10                 EXA     
000041BC: 28                 illegal 
000041BD: 44 00 8B           LXI     EA,$8B00
000041C0: 00                 NOP     
000041C1: 04 40 08           LXI     SP,$0840
000041C4: 26 10              ADINC   A,$10
000041C6: C8                 JR      $41CF
000041C7: 20 04              INRW    VV:04
000041C9: 40 04 40           CALL    $4004
000041CC: 2E                 LDAX    (DE-)
000041CD: 10                 EXA     
000041CE: E8                 JR      $41B7
000041CF: 04 40 00           LXI     SP,$0040
000041D2: 03                 DCX     SP
000041D3: 11                 EXX     
000041D4: C0                 JR      $41D5
000041D5: 00                 NOP     
000041D6: 03                 DCX     SP
000041D7: 04 00 20           LXI     SP,$2000
000041DA: 00                 NOP     
000041DB: 08                 MOV     A,EAH
000041DC: 00                 NOP     
000041DD: 10                 EXA     
000041DE: 00                 NOP     
000041DF: 7E 00              CALF    $0E00
000041E1: 10                 EXA     
000041E2: 00                 NOP     
000041E3: 08                 MOV     A,EAH
000041E4: 00                 NOP     
000041E5: 20 00              INRW    VV:00
000041E7: 04 40 00           LXI     SP,$0040
000041EA: 08                 MOV     A,EAH
000041EB: 00                 NOP     
000041EC: 20 00              INRW    VV:00
000041EE: 10                 EXA     
000041EF: 00                 NOP     
000041F0: FC                 JR      $41ED
000041F1: 00                 NOP     
000041F2: 10                 EXA     
000041F3: 00                 NOP     
000041F4: 20 00              INRW    VV:00
000041F6: 08                 MOV     A,EAH
000041F7: 00                 NOP     
000041F8: 40 8A 8B           CALL    $8B8A
000041FB: 8B                 CALT    ($0096)
000041FC: 14 10 10           LXI     BC,$1010
000041FF: 10                 EXA     
00004200: 10                 EXA     
00004201: 7C 10              CALF    $0C10
00004203: 10                 EXA     
00004204: 10                 EXA     
00004205: 10                 EXA     
00004206: 8B                 CALT    ($0096)
00004207: 08                 MOV     A,EAH
00004208: 10                 EXA     
00004209: 10                 EXA     
0000420A: 14 18 10           LXI     BC,$1018
0000420D: 30 50              DCRW    VV:50
0000420F: 10                 EXA     
00004210: 10                 EXA     
00004211: 22                 INX     DE
00004212: 13                 DCX     BC
00004213: 80                 CALT    ($0080)
00004214: 28                 illegal 
00004215: 01 08              LDAW    VV:08
00004217: 08                 MOV     A,EAH
00004218: 08                 MOV     A,EAH
00004219: 08                 MOV     A,EAH
0000421A: 08                 MOV     A,EAH
0000421B: 08                 MOV     A,EAH
0000421C: 08                 MOV     A,EAH
0000421D: 08                 MOV     A,EAH
0000421E: 08                 MOV     A,EAH
0000421F: 3E                 STAX    (DE-)
00004220: 08                 MOV     A,EAH
00004221: 08                 MOV     A,EAH
00004222: 08                 MOV     A,EAH
00004223: 08                 MOV     A,EAH
00004224: 08                 MOV     A,EAH
00004225: 08                 MOV     A,EAH
00004226: 08                 MOV     A,EAH
00004227: 08                 MOV     A,EAH
00004228: 08                 MOV     A,EAH
00004229: 00                 NOP     
0000422A: 00                 NOP     
0000422B: 00                 NOP     
0000422C: 00                 NOP     
0000422D: 00                 NOP     
0000422E: 00                 NOP     
0000422F: 00                 NOP     
00004230: 00                 NOP     
00004231: 00                 NOP     
00004232: 7E 00              CALF    $0E00
00004234: 00                 NOP     
00004235: 00                 NOP     
00004236: 00                 NOP     
00004237: 00                 NOP     
00004238: 00                 NOP     
00004239: 00                 NOP     
0000423A: 00                 NOP     
0000423B: 00                 NOP     
0000423C: 8A                 CALT    ($0094)
0000423D: 39                 STAX    (BC)
0000423E: 38                 illegal 
0000423F: 80                 CALT    ($0080)
00004240: 00                 NOP     
00004241: 00                 NOP     
00004242: 00                 NOP     
00004243: 0D                 MOV     A,E
00004244: 0C                 MOV     A,D
00004245: 0E                 MOV     A,H
00004246: 00                 NOP     
00004247: 00                 NOP     
00004248: 00                 NOP     
00004249: 18                 MOV     EAH,A
0000424A: 80                 CALT    ($0080)
0000424B: 00                 NOP     
0000424C: 01 04              LDAW    VV:04
0000424E: 0E                 MOV     A,H
0000424F: 0C                 MOV     A,D
00004250: 08                 MOV     A,EAH
00004251: 00                 NOP     
00004252: 00                 NOP     
00004253: 00                 NOP     
00004254: 89                 CALT    ($0092)
00004255: 05 C0 00           ANIW    VV:C0,$00
00004258: 03                 DCX     SP
00004259: 20 00              INRW    VV:00
0000425B: 00                 NOP     
0000425C: 02                 INX     SP
0000425D: 02                 INX     SP
0000425E: 02                 INX     SP
0000425F: 02                 INX     SP
00004260: 03                 DCX     SP
00004261: 80                 CALT    ($0080)
00004262: 00                 NOP     
00004263: 00                 NOP     
00004264: 02                 INX     SP
00004265: 02                 INX     SP
00004266: 02                 INX     SP
00004267: 02                 INX     SP
00004268: 03                 DCX     SP
00004269: 8A                 CALT    ($0094)
0000426A: 8B                 CALT    ($0096)
0000426B: 8B                 CALT    ($0096)
0000426C: 18                 MOV     EAH,A
0000426D: 10                 EXA     
0000426E: 10                 EXA     
0000426F: 10                 EXA     
00004270: 10                 EXA     
00004271: 10                 EXA     
00004272: 10                 EXA     
00004273: 10                 EXA     
00004274: 10                 EXA     
00004275: 10                 EXA     
00004276: 8B                 CALT    ($0096)
00004277: 01 10              LDAW    VV:10
00004279: 10                 EXA     
0000427A: 10                 EXA     
0000427B: 10                 EXA     
0000427C: 10                 EXA     
0000427D: 10                 EXA     
0000427E: 10                 EXA     
0000427F: 10                 EXA     
00004280: 10                 EXA     
00004281: 03                 DCX     SP
00004282: 11                 EXX     
00004283: 98                 CALT    ($00B0)
00004284: 00                 NOP     
00004285: 01 08              LDAW    VV:08
00004287: 08                 MOV     A,EAH
00004288: 08                 MOV     A,EAH
00004289: 08                 MOV     A,EAH
0000428A: 08                 MOV     A,EAH
0000428B: 08                 MOV     A,EAH
0000428C: 08                 MOV     A,EAH
0000428D: 08                 MOV     A,EAH
0000428E: 08                 MOV     A,EAH
0000428F: 08                 MOV     A,EAH
00004290: 08                 MOV     A,EAH
00004291: 08                 MOV     A,EAH
00004292: 08                 MOV     A,EAH
00004293: 08                 MOV     A,EAH
00004294: 08                 MOV     A,EAH
00004295: 08                 MOV     A,EAH
00004296: 08                 MOV     A,EAH
00004297: 00                 NOP     
00004298: 00                 NOP     
00004299: 00                 NOP     
0000429A: 00                 NOP     
0000429B: 00                 NOP     
0000429C: 00                 NOP     
0000429D: 00                 NOP     
0000429E: 00                 NOP     
0000429F: 00                 NOP     
000042A0: 00                 NOP     
000042A1: 00                 NOP     
000042A2: 00                 NOP     
000042A3: 00                 NOP     
000042A4: 00                 NOP     
000042A5: 00                 NOP     
000042A6: 00                 NOP     
000042A7: 00                 NOP     
000042A8: 8A                 CALT    ($0094)
000042A9: B8                 RET     
000042AA: B8                 RET     
000042AB: 80                 CALT    ($0080)
000042AC: 00                 NOP     
000042AD: 00                 NOP     
000042AE: 00                 NOP     
000042AF: 06                 illegal 
000042B0: 06                 illegal 
000042B1: 06                 illegal 
000042B2: 00                 NOP     
000042B3: 00                 NOP     
000042B4: 00                 NOP     
000042B5: A8                 INX     EA
000042B6: 81                 CALT    ($0082)
000042B7: 00                 NOP     
000042B8: 00                 NOP     
000042B9: 02                 INX     SP
000042BA: 06                 illegal 
000042BB: 06                 illegal 
000042BC: 04 00 00           LXI     SP,$0000
000042BF: 00                 NOP     
000042C0: 09                 MOV     A,EAL
000042C1: 05 C0 00           ANIW    VV:C0,$00
000042C4: 03                 DCX     SP
000042C5: 01 01              LDAW    VV:01
000042C7: 01 01              LDAW    VV:01
000042C9: 01 02              LDAW    VV:02
000042CB: 02                 INX     SP
000042CC: 02                 INX     SP
000042CD: 02                 INX     SP
000042CE: 02                 INX     SP
000042CF: 8A                 CALT    ($0094)
000042D0: 9A                 CALT    ($00B4)
000042D1: 9A                 CALT    ($00B4)
000042D2: 80                 CALT    ($0080)
000042D3: 00                 NOP     
000042D4: 02                 INX     SP
000042D5: 04 08 10           LXI     SP,$1008
000042D8: 20 40              INRW    VV:40
000042DA: 80                 CALT    ($0080)
000042DB: 00                 NOP     
000042DC: 89                 CALT    ($0092)
000042DD: 00                 NOP     
000042DE: 01 02              LDAW    VV:02
000042E0: 04 08 10           LXI     SP,$1008
000042E3: 20 40              INRW    VV:40
000042E5: 80                 CALT    ($0080)
000042E6: 00                 NOP     
000042E7: A2                 POP     DE
000042E8: 14 80 80           LXI     BC,$8080
000042EB: 81                 CALT    ($0082)
000042EC: 40 00 00           CALL    $0000
000042EF: 00                 NOP     
000042F0: 00                 NOP     
000042F1: 00                 NOP     
000042F2: 01 00              LDAW    VV:00
000042F4: 02                 INX     SP
000042F5: 00                 NOP     
000042F6: 00                 NOP     
000042F7: 04 00 08           LXI     SP,$0800
000042FA: 00                 NOP     
000042FB: 10                 EXA     
000042FC: 00                 NOP     
000042FD: 00                 NOP     
000042FE: 20 00              INRW    VV:00
00004300: 40 00 80           CALL    $8000
00004303: 80                 CALT    ($0080)
00004304: 00                 NOP     
00004305: 00                 NOP     
00004306: 00                 NOP     
00004307: 00                 NOP     
00004308: 01 00              LDAW    VV:00
0000430A: 02                 INX     SP
0000430B: 00                 NOP     
0000430C: 00                 NOP     
0000430D: 04 00 08           LXI     SP,$0800
00004310: 00                 NOP     
00004311: 10                 EXA     
00004312: 00                 NOP     
00004313: 20 00              INRW    VV:00
00004315: 00                 NOP     
00004316: 40 00 80           CALL    $8000
00004319: 00                 NOP     
0000431A: 8E                 CALT    ($009C)
0000431B: 8B                 CALT    ($0096)
0000431C: 8B                 CALT    ($0096)
0000431D: 22                 INX     DE
0000431E: 38                 illegal 
0000431F: 44 00 82           LXI     EA,$8200
00004322: 82                 CALT    ($0084)
00004323: 82                 CALT    ($0084)
00004324: 00                 NOP     
00004325: 44 38 8B           LXI     EA,$8B38
00004328: 00                 NOP     
00004329: 1C                 MOV     D,A
0000432A: 20 42              INRW    VV:42
0000432C: 02                 INX     SP
0000432D: 82                 CALT    ($0084)
0000432E: 80                 CALT    ($0080)
0000432F: 84                 CALT    ($0088)
00004330: 08                 MOV     A,EAH
00004331: 70 1C              illegal 
00004333: 22                 INX     DE
00004334: 42                 INR     B
00004335: 02                 INX     SP
00004336: 80                 CALT    ($0080)
00004337: 84                 CALT    ($0088)
00004338: 88                 CALT    ($0090)
00004339: 70 03              illegal 
0000433B: 11                 EXX     
0000433C: 82                 CALT    ($0084)
0000433D: 00                 NOP     
0000433E: 81                 CALT    ($0082)
0000433F: 18                 MOV     EAH,A
00004340: 24 42 00           LXI     DE,$0042
00004343: 00                 NOP     
00004344: 00                 NOP     
00004345: 81                 CALT    ($0082)
00004346: 81                 CALT    ($0082)
00004347: 81                 CALT    ($0082)
00004348: 81                 CALT    ($0082)
00004349: 81                 CALT    ($0082)
0000434A: 00                 NOP     
0000434B: 00                 NOP     
0000434C: 00                 NOP     
0000434D: 42                 INR     B
0000434E: 24 18 38           LXI     DE,$3818
00004351: 44 00 00           LXI     EA,$0000
00004354: 82                 CALT    ($0084)
00004355: 00                 NOP     
00004356: 00                 NOP     
00004357: 00                 NOP     
00004358: 00                 NOP     
00004359: 00                 NOP     
0000435A: 00                 NOP     
0000435B: 00                 NOP     
0000435C: 82                 CALT    ($0084)
0000435D: 00                 NOP     
0000435E: 00                 NOP     
0000435F: 44 38 8A           LXI     EA,$8A38
00004362: A9                 DCX     EA
00004363: A9                 DCX     EA
00004364: 41                 INR     A
00004365: 00                 NOP     
00004366: 02                 INX     SP
00004367: 42                 INR     B
00004368: 02                 INX     SP
00004369: FE                 JR      $4368
0000436A: 02                 INX     SP
0000436B: 02                 INX     SP
0000436C: 02                 INX     SP
0000436D: 00                 NOP     
0000436E: 88                 CALT    ($0090)
0000436F: 80                 CALT    ($0080)
00004370: 02                 INX     SP
00004371: 02                 INX     SP
00004372: 02                 INX     SP
00004373: 46 5A              ADI     A,$5A
00004375: 62                 RETI    
00004376: 82                 CALT    ($0084)
00004377: 00                 NOP     
00004378: 00                 NOP     
00004379: 05 0F 84           ANIW    VV:0F,$84
0000437C: 00                 NOP     
0000437D: 11                 EXX     
0000437E: 01 41              LDAW    VV:41
00004380: 41                 INR     A
00004381: 41                 INR     A
00004382: 41                 INR     A
00004383: 41                 INR     A
00004384: 41                 INR     A
00004385: FF                 JR      $4385
00004386: 01 01              LDAW    VV:01
00004388: 01 01              LDAW    VV:01
0000438A: 01 01              LDAW    VV:01
0000438C: 01 00              LDAW    VV:00
0000438E: 00                 NOP     
0000438F: 00                 NOP     
00004390: 00                 NOP     
00004391: 00                 NOP     
00004392: 80                 CALT    ($0080)
00004393: 80                 CALT    ($0080)
00004394: FE                 JR      $4393
00004395: 00                 NOP     
00004396: 00                 NOP     
00004397: 00                 NOP     
00004398: 00                 NOP     
00004399: 00                 NOP     
0000439A: 00                 NOP     
0000439B: 00                 NOP     
0000439C: 8E                 CALT    ($009C)
0000439D: 8B                 CALT    ($0096)
0000439E: 8B                 CALT    ($0096)
0000439F: 50                 EXH     
000043A0: 42                 INR     B
000043A1: 82                 CALT    ($0084)
000043A2: 86                 CALT    ($008C)
000043A3: 82                 CALT    ($0084)
000043A4: 8A                 CALT    ($0094)
000043A5: 82                 CALT    ($0084)
000043A6: 92                 CALT    ($00A4)
000043A7: 82                 CALT    ($0084)
000043A8: 62                 RETI    
000043A9: 8B                 CALT    ($0096)
000043AA: 00                 NOP     
000043AB: 02                 INX     SP
000043AC: 42                 INR     B
000043AD: 06                 illegal 
000043AE: 82                 CALT    ($0084)
000043AF: 8A                 CALT    ($0094)
000043B0: 82                 CALT    ($0084)
000043B1: 92                 CALT    ($00A4)
000043B2: 82                 CALT    ($0084)
000043B3: 60 02              illegal 
000043B5: 46 02              ADI     A,$02
000043B7: 8A                 CALT    ($0094)
000043B8: 82                 CALT    ($0084)
000043B9: 92                 CALT    ($00A4)
000043BA: 60 00              illegal 
000043BC: 03                 DCX     SP
000043BD: 11                 EXX     
000043BE: 80                 CALT    ($0080)
000043BF: 88                 CALT    ($0090)
000043C0: 01 01              LDAW    VV:01
000043C2: 61                 DAA     
000043C3: 03                 DCX     SP
000043C4: 01 81              LDAW    VV:81
000043C6: 81                 CALT    ($0082)
000043C7: 85                 CALT    ($008A)
000043C8: 81                 CALT    ($0082)
000043C9: 81                 CALT    ($0082)
000043CA: 81                 CALT    ($0082)
000043CB: 89                 CALT    ($0092)
000043CC: 81                 CALT    ($0082)
000043CD: 81                 CALT    ($0082)
000043CE: 01 11              LDAW    VV:11
000043D0: 01 63              LDAW    VV:63
000043D2: 40 02 C0           CALL    $C002
000043D5: 00                 NOP     
000043D6: 04 00 00           LXI     SP,$0000
000043D9: 00                 NOP     
000043DA: 08                 MOV     A,EAH
000043DB: 00                 NOP     
000043DC: 00                 NOP     
000043DD: 00                 NOP     
000043DE: 10                 EXA     
000043DF: 00                 NOP     
000043E0: 80                 CALT    ($0080)
000043E1: 20 42              INRW    VV:42
000043E3: 8E                 CALT    ($009C)
000043E4: 8B                 CALT    ($0096)
000043E5: 8B                 CALT    ($0096)
000043E6: 41                 INR     A
000043E7: 84                 CALT    ($0088)
000043E8: 80                 CALT    ($0080)
000043E9: 82                 CALT    ($0084)
000043EA: 82                 CALT    ($0084)
000043EB: A2                 POP     DE
000043EC: 82                 CALT    ($0084)
000043ED: D2                 JR      $4400
000043EE: 80                 CALT    ($0080)
000043EF: 8C                 CALT    ($0098)
000043F0: 8B                 CALT    ($0096)
000043F1: 00                 NOP     
000043F2: 04 00 82           LXI     SP,$8200
000043F5: 82                 CALT    ($0084)
000043F6: 92                 CALT    ($00A4)
000043F7: 92                 CALT    ($00A4)
000043F8: B2                 PUSH    DE
000043F9: CC                 JR      $4406
000043FA: 80                 CALT    ($0080)
000043FB: 04 02 82           LXI     SP,$8202
000043FE: A2                 POP     DE
000043FF: 82                 CALT    ($0084)
00004400: DC                 JR      $441D
00004401: 80                 CALT    ($0080)
00004402: 00                 NOP     
00004403: 03                 DCX     SP
00004404: 12                 INX     BC
00004405: 80                 CALT    ($0080)
00004406: 30 01              DCRW    VV:01
00004408: 00                 NOP     
00004409: 46 40              ADI     A,$40
0000440B: 40 00 81           CALL    $8100
0000440E: 81                 CALT    ($0082)
0000440F: 91                 CALT    ($00A2)
00004410: 91                 CALT    ($00A2)
00004411: 91                 CALT    ($00A2)
00004412: 91                 CALT    ($00A2)
00004413: 91                 CALT    ($00A2)
00004414: 91                 CALT    ($00A2)
00004415: 91                 CALT    ($00A2)
00004416: 00                 NOP     
00004417: 00                 NOP     
00004418: 6A 04              MVI     B,$04
0000441A: 04 00 44           LXI     SP,$4400
0000441D: 82                 CALT    ($0084)
0000441E: 00                 NOP     
0000441F: 00                 NOP     
00004420: 00                 NOP     
00004421: 00                 NOP     
00004422: 00                 NOP     
00004423: 00                 NOP     
00004424: 00                 NOP     
00004425: 00                 NOP     
00004426: 00                 NOP     
00004427: 00                 NOP     
00004428: 00                 NOP     
00004429: B2                 PUSH    DE
0000442A: 40 0C 8A           CALL    $8A0C
0000442D: 8B                 CALT    ($0096)
0000442E: 8B                 CALT    ($0096)
0000442F: 80                 CALT    ($0080)
00004430: 08                 MOV     A,EAH
00004431: 18                 MOV     EAH,A
00004432: 28                 illegal 
00004433: 48 88              illegal 
00004435: 88                 CALT    ($0090)
00004436: FE                 JR      $4435
00004437: 08                 MOV     A,EAH
00004438: 08                 MOV     A,EAH
00004439: 8B                 CALT    ($0096)
0000443A: 08                 MOV     A,EAH
0000443B: 08                 MOV     A,EAH
0000443C: 18                 MOV     EAH,A
0000443D: 08                 MOV     A,EAH
0000443E: 28                 illegal 
0000443F: 08                 MOV     A,EAH
00004440: 4E 38              JRE     $447A
00004442: C8                 JR      $444B
00004443: 08                 MOV     A,EAH
00004444: 03                 DCX     SP
00004445: 12                 INX     BC
00004446: 82                 CALT    ($0084)
00004447: 20 01              INRW    VV:01
00004449: 04 04 0C           LXI     SP,$0C04
0000444C: 04 04 14           LXI     SP,$1404
0000444F: 04 04 24           LXI     SP,$2404
00004452: 05 45 05           ANIW    VV:45,$05
00004455: 05 FF 05           ANIW    VV:FF,$05
00004458: 05 05 05           ANIW    VV:05,$05
0000445B: 00                 NOP     
0000445C: 08                 MOV     A,EAH
0000445D: 00                 NOP     
0000445E: 00                 NOP     
0000445F: 10                 EXA     
00004460: 00                 NOP     
00004461: 20 00              INRW    VV:00
00004463: 00                 NOP     
00004464: 40 00 80           CALL    $8000
00004467: 80                 CALT    ($0080)
00004468: FE                 JR      $4467
00004469: 00                 NOP     
0000446A: 00                 NOP     
0000446B: 00                 NOP     
0000446C: 00                 NOP     
0000446D: 8E                 CALT    ($009C)
0000446E: 8B                 CALT    ($0096)
0000446F: 8B                 CALT    ($0096)
00004470: 18                 MOV     EAH,A
00004471: 00                 NOP     
00004472: E4                 JR      $4457
00004473: A2                 POP     DE
00004474: A2                 POP     DE
00004475: A2                 POP     DE
00004476: A2                 POP     DE
00004477: A2                 POP     DE
00004478: A0                 POP     VA
00004479: 1C                 MOV     D,A
0000447A: 8B                 CALT    ($0096)
0000447B: 00                 NOP     
0000447C: 04 20 E2           LXI     SP,$E220
0000447F: A2                 POP     DE
00004480: A2                 POP     DE
00004481: A0                 POP     VA
00004482: 84                 CALT    ($0088)
00004483: 98                 CALT    ($00B0)
00004484: 80                 CALT    ($0080)
00004485: 04 22 E2           LXI     SP,$E222
00004488: A2                 POP     DE
00004489: A2                 POP     DE
0000448A: A4                 POP     EA
0000448B: 98                 CALT    ($00B0)
0000448C: 80                 CALT    ($0080)
0000448D: 03                 DCX     SP
0000448E: 11                 EXX     
0000448F: 80                 CALT    ($0080)
00004490: 30 01              DCRW    VV:01
00004492: 02                 INX     SP
00004493: 12                 INX     BC
00004494: F2                 JR      $4487
00004495: 90                 CALT    ($00A0)
00004496: 81                 CALT    ($0082)
00004497: 81                 CALT    ($0082)
00004498: 81                 CALT    ($0082)
00004499: 81                 CALT    ($0082)
0000449A: 81                 CALT    ($0082)
0000449B: 81                 CALT    ($0082)
0000449C: 81                 CALT    ($0082)
0000449D: 81                 CALT    ($0082)
0000449E: 81                 CALT    ($0082)
0000449F: 80                 CALT    ($0080)
000044A0: 90                 CALT    ($00A0)
000044A1: 02                 INX     SP
000044A2: 0C                 MOV     A,D
000044A3: 00                 NOP     
000044A4: 34 C2 00           LXI     HL,$00C2
000044A7: 20 20              INRW    VV:20
000044A9: 20 20              INRW    VV:20
000044AB: 20 20              INRW    VV:20
000044AD: 20 20              INRW    VV:20
000044AF: 20 00              INRW    VV:00
000044B1: 02                 INX     SP
000044B2: 10                 EXA     
000044B3: 0C                 MOV     A,D
000044B4: 8E                 CALT    ($009C)
000044B5: 8B                 CALT    ($0096)
000044B6: 8B                 CALT    ($0096)
000044B7: 06                 illegal 
000044B8: 0C                 MOV     A,D
000044B9: 12                 INX     BC
000044BA: 32                 INX     HL
000044BB: 52                 DCR     B
000044BC: 92                 CALT    ($00A4)
000044BD: 12                 INX     BC
000044BE: 12                 INX     BC
000044BF: 12                 INX     BC
000044C0: 0C                 MOV     A,D
000044C1: 8A                 CALT    ($0094)
000044C2: 00                 NOP     
000044C3: 0C                 MOV     A,D
000044C4: 12                 INX     BC
000044C5: 32                 INX     HL
000044C6: 12                 INX     BC
000044C7: 52                 DCR     B
000044C8: 12                 INX     BC
000044C9: 80                 CALT    ($0080)
000044CA: 0C                 MOV     A,D
000044CB: 00                 NOP     
000044CC: 0C                 MOV     A,D
000044CD: 12                 INX     BC
000044CE: 32                 INX     HL
000044CF: 12                 INX     BC
000044D0: 52                 DCR     B
000044D1: 12                 INX     BC
000044D2: 8C                 CALT    ($0098)
000044D3: 00                 NOP     
000044D4: 03                 DCX     SP
000044D5: 12                 INX     BC
000044D6: 80                 CALT    ($0080)
000044D7: 30 01              DCRW    VV:01
000044D9: 00                 NOP     
000044DA: 1C                 MOV     D,A
000044DB: 22                 INX     DE
000044DC: 40 00 11           CALL    $1100
000044DF: 11                 EXX     
000044E0: 91                 CALT    ($00A2)
000044E1: 91                 CALT    ($00A2)
000044E2: 91                 CALT    ($00A2)
000044E3: 91                 CALT    ($00A2)
000044E4: 91                 CALT    ($00A2)
000044E5: 91                 CALT    ($00A2)
000044E6: 91                 CALT    ($00A2)
000044E7: 40 00 4A           CALL    $4A00
000044EA: 04 00 3C           LXI     SP,$3C00
000044ED: 50                 EXH     
000044EE: 12                 INX     BC
000044EF: 00                 NOP     
000044F0: 80                 CALT    ($0080)
000044F1: 00                 NOP     
000044F2: 00                 NOP     
000044F3: 00                 NOP     
000044F4: 00                 NOP     
000044F5: 00                 NOP     
000044F6: 00                 NOP     
000044F7: 00                 NOP     
000044F8: 00                 NOP     
000044F9: 00                 NOP     
000044FA: D2                 JR      $450D
000044FB: 00                 NOP     
000044FC: 0C                 MOV     A,D
000044FD: 8F                 CALT    ($009E)
000044FE: 8B                 CALT    ($0096)
000044FF: 8B                 CALT    ($0096)
00004500: 80                 CALT    ($0080)
00004501: 80                 CALT    ($0080)
00004502: 80                 CALT    ($0080)
00004503: 82                 CALT    ($0084)
00004504: 84                 CALT    ($0088)
00004505: 88                 CALT    ($0090)
00004506: 90                 CALT    ($00A0)
00004507: A0                 POP     VA
00004508: C0                 JR      $4509
00004509: 80                 CALT    ($0080)
0000450A: 8B                 CALT    ($0096)
0000450B: 00                 NOP     
0000450C: 80                 CALT    ($0080)
0000450D: 82                 CALT    ($0084)
0000450E: 84                 CALT    ($0088)
0000450F: 88                 CALT    ($0090)
00004510: 90                 CALT    ($00A0)
00004511: A0                 POP     VA
00004512: 80                 CALT    ($0080)
00004513: C0                 JR      $4514
00004514: 80                 CALT    ($0080)
00004515: 00                 NOP     
00004516: 82                 CALT    ($0084)
00004517: 84                 CALT    ($0088)
00004518: 88                 CALT    ($0090)
00004519: 90                 CALT    ($00A0)
0000451A: A0                 POP     VA
0000451B: C0                 JR      $451C
0000451C: 80                 CALT    ($0080)
0000451D: 43                 INR     C
0000451E: 11                 EXX     
0000451F: 00                 NOP     
00004520: 44 45 C0           LXI     EA,$C045
00004523: 80                 CALT    ($0080)
00004524: 80                 CALT    ($0080)
00004525: 80                 CALT    ($0080)
00004526: 80                 CALT    ($0080)
00004527: 80                 CALT    ($0080)
00004528: 80                 CALT    ($0080)
00004529: 83                 CALT    ($0086)
0000452A: 84                 CALT    ($0088)
0000452B: 88                 CALT    ($0090)
0000452C: 90                 CALT    ($00A0)
0000452D: 80                 CALT    ($0080)
0000452E: A0                 POP     VA
0000452F: 80                 CALT    ($0080)
00004530: C0                 JR      $4531
00004531: 80                 CALT    ($0080)
00004532: 80                 CALT    ($0080)
00004533: C0                 JR      $4534
00004534: 00                 NOP     
00004535: 00                 NOP     
00004536: 00                 NOP     
00004537: 00                 NOP     
00004538: 00                 NOP     
00004539: 00                 NOP     
0000453A: 06                 illegal 
0000453B: 08                 MOV     A,EAH
0000453C: 10                 EXA     
0000453D: 00                 NOP     
0000453E: 20 00              INRW    VV:00
00004540: 40 00 80           CALL    $8000
00004543: 00                 NOP     
00004544: 03                 DCX     SP
00004545: 0F                 MOV     A,L
00004546: C0                 JR      $4547
00004547: 80                 CALT    ($0080)
00004548: 80                 CALT    ($0080)
00004549: 80                 CALT    ($0080)
0000454A: 80                 CALT    ($0080)
0000454B: 80                 CALT    ($0080)
0000454C: 83                 CALT    ($0086)
0000454D: 84                 CALT    ($0088)
0000454E: 88                 CALT    ($0090)
0000454F: 90                 CALT    ($00A0)
00004550: A0                 POP     VA
00004551: 80                 CALT    ($0080)
00004552: C0                 JR      $4553
00004553: 80                 CALT    ($0080)
00004554: 80                 CALT    ($0080)
00004555: C0                 JR      $4556
00004556: 00                 NOP     
00004557: 00                 NOP     
00004558: 00                 NOP     
00004559: 00                 NOP     
0000455A: 00                 NOP     
0000455B: 02                 INX     SP
0000455C: 0C                 MOV     A,D
0000455D: 10                 EXA     
0000455E: 00                 NOP     
0000455F: 20 40              INRW    VV:40
00004561: 00                 NOP     
00004562: 80                 CALT    ($0080)
00004563: 00                 NOP     
00004564: 8E                 CALT    ($009C)
00004565: 8B                 CALT    ($0096)
00004566: 8B                 CALT    ($0096)
00004567: 18                 MOV     EAH,A
00004568: 6C 92              MVI     D,$92
0000456A: 92                 CALT    ($00A4)
0000456B: 92                 CALT    ($00A4)
0000456C: 92                 CALT    ($00A4)
0000456D: 92                 CALT    ($00A4)
0000456E: 92                 CALT    ($00A4)
0000456F: 92                 CALT    ($00A4)
00004570: 6C 8B              MVI     D,$8B
00004572: 00                 NOP     
00004573: 0C                 MOV     A,D
00004574: 62                 RETI    
00004575: 12                 INX     BC
00004576: 92                 CALT    ($00A4)
00004577: 92                 CALT    ($00A4)
00004578: 92                 CALT    ($00A4)
00004579: 90                 CALT    ($00A0)
0000457A: 8C                 CALT    ($0098)
0000457B: 60 0C              ANA     D,A
0000457D: 60 12              XRA     B,A
0000457F: 92                 CALT    ($00A4)
00004580: 92                 CALT    ($00A4)
00004581: 80                 CALT    ($0080)
00004582: 6C 00              MVI     D,$00
00004584: 03                 DCX     SP
00004585: 11                 EXX     
00004586: 80                 CALT    ($0080)
00004587: 30 01              DCRW    VV:01
00004589: 06                 illegal 
0000458A: 68 00              MVI     V,$00
0000458C: 01 91              LDAW    VV:91
0000458E: 91                 CALT    ($00A2)
0000458F: 91                 CALT    ($00A2)
00004590: 91                 CALT    ($00A2)
00004591: 91                 CALT    ($00A2)
00004592: 91                 CALT    ($00A2)
00004593: 91                 CALT    ($00A2)
00004594: 91                 CALT    ($00A2)
00004595: 91                 CALT    ($00A2)
00004596: 01 00              LDAW    VV:00
00004598: 68 06              MVI     V,$06
0000459A: 0C                 MOV     A,D
0000459B: 42                 INR     B
0000459C: B0                 PUSH    VA
0000459D: 00                 NOP     
0000459E: 00                 NOP     
0000459F: 00                 NOP     
000045A0: 00                 NOP     
000045A1: 00                 NOP     
000045A2: 00                 NOP     
000045A3: 00                 NOP     
000045A4: 00                 NOP     
000045A5: 00                 NOP     
000045A6: 00                 NOP     
000045A7: 00                 NOP     
000045A8: B0                 PUSH    VA
000045A9: 42                 INR     B
000045AA: 0C                 MOV     A,D
000045AB: 8E                 CALT    ($009C)
000045AC: 8B                 CALT    ($0096)
000045AD: 8B                 CALT    ($0096)
000045AE: 30 60              DCRW    VV:60
000045B0: 90                 CALT    ($00A0)
000045B1: 90                 CALT    ($00A0)
000045B2: 90                 CALT    ($00A0)
000045B3: 92                 CALT    ($00A4)
000045B4: 94                 CALT    ($00A8)
000045B5: 98                 CALT    ($00B0)
000045B6: 90                 CALT    ($00A0)
000045B7: 60 8A              ANA     A,B
000045B9: 00                 NOP     
000045BA: 60 02              illegal 
000045BC: 90                 CALT    ($00A0)
000045BD: 94                 CALT    ($00A8)
000045BE: 90                 CALT    ($00A0)
000045BF: 98                 CALT    ($00B0)
000045C0: 90                 CALT    ($00A0)
000045C1: 60 00              illegal 
000045C3: 62                 RETI    
000045C4: 90                 CALT    ($00A0)
000045C5: 94                 CALT    ($00A8)
000045C6: 90                 CALT    ($00A0)
000045C7: 98                 CALT    ($00B0)
000045C8: 90                 CALT    ($00A0)
000045C9: 60 00              illegal 
000045CB: 03                 DCX     SP
000045CC: 11                 EXX     
000045CD: 80                 CALT    ($0080)
000045CE: 30 01              DCRW    VV:01
000045D0: 22                 INX     DE
000045D1: 50                 EXH     
000045D2: 02                 INX     SP
000045D3: 01 89              LDAW    VV:89
000045D5: 89                 CALT    ($0092)
000045D6: 89                 CALT    ($0092)
000045D7: 89                 CALT    ($0092)
000045D8: 89                 CALT    ($0092)
000045D9: 89                 CALT    ($0092)
000045DA: 89                 CALT    ($0092)
000045DB: 89                 CALT    ($0092)
000045DC: 88                 CALT    ($0090)
000045DD: 00                 NOP     
000045DE: 02                 INX     SP
000045DF: 44 38 60           LXI     EA,$6038
000045E2: 06                 illegal 
000045E3: 90                 CALT    ($00A0)
000045E4: 00                 NOP     
000045E5: 00                 NOP     
000045E6: 00                 NOP     
000045E7: 00                 NOP     
000045E8: 00                 NOP     
000045E9: 00                 NOP     
000045EA: 00                 NOP     
000045EB: 00                 NOP     
000045EC: 00                 NOP     
000045ED: 00                 NOP     
000045EE: 02                 INX     SP
000045EF: 90                 CALT    ($00A0)
000045F0: 04 78 8A           LXI     SP,$8A78
000045F3: B8                 RET     
000045F4: B8                 RET     
000045F5: 80                 CALT    ($0080)
000045F6: 00                 NOP     
000045F7: 00                 NOP     
000045F8: 00                 NOP     
000045F9: 36 36              SUINB   A,$36
000045FB: 36 00              SUINB   A,$00
000045FD: 00                 NOP     
000045FE: 00                 NOP     
000045FF: A9                 DCX     EA
00004600: 80                 CALT    ($0080)
00004601: 00                 NOP     
00004602: 00                 NOP     
00004603: 02                 INX     SP
00004604: 16 36              XRI     A,$36
00004606: 34 20 00           LXI     HL,$0020
00004609: 00                 NOP     
0000460A: 09                 MOV     A,EAL
0000460B: 05 C0 00           ANIW    VV:C0,$00
0000460E: 03                 DCX     SP
0000460F: 11                 EXX     
00004610: 11                 EXX     
00004611: 11                 EXX     
00004612: 11                 EXX     
00004613: 11                 EXX     
00004614: 22                 INX     DE
00004615: 22                 INX     DE
00004616: 22                 INX     DE
00004617: 22                 INX     DE
00004618: 22                 INX     DE
00004619: 8A                 CALT    ($0094)
0000461A: 38                 illegal 
0000461B: 38                 illegal 
0000461C: 80                 CALT    ($0080)
0000461D: 00                 NOP     
0000461E: 00                 NOP     
0000461F: 00                 NOP     
00004620: 6D 6C              MVI     E,$6C
00004622: 6E 00              MVI     H,$00
00004624: 00                 NOP     
00004625: 00                 NOP     
00004626: 19                 MOV     EAL,A
00004627: 80                 CALT    ($0080)
00004628: 00                 NOP     
00004629: 01 04              LDAW    VV:04
0000462B: 2E                 LDAX    (DE-)
0000462C: 6C 68              MVI     D,$68
0000462E: 40 00 00           CALL    $0000
00004631: 89                 CALT    ($0092)
00004632: 05 C0 00           ANIW    VV:C0,$00
00004635: 03                 DCX     SP
00004636: 20 00              INRW    VV:00
00004638: 00                 NOP     
00004639: 12                 INX     BC
0000463A: 12                 INX     BC
0000463B: 12                 INX     BC
0000463C: 12                 INX     BC
0000463D: 13                 DCX     BC
0000463E: 80                 CALT    ($0080)
0000463F: 00                 NOP     
00004640: 00                 NOP     
00004641: 22                 INX     DE
00004642: 22                 INX     DE
00004643: 22                 INX     DE
00004644: 22                 INX     DE
00004645: 23                 DCX     DE
00004646: 8A                 CALT    ($0094)
00004647: 9A                 CALT    ($00B4)
00004648: 9A                 CALT    ($00B4)
00004649: 80                 CALT    ($0080)
0000464A: 00                 NOP     
0000464B: 10                 EXA     
0000464C: 00                 NOP     
0000464D: 28                 illegal 
0000464E: 00                 NOP     
0000464F: 44 00 82           LXI     EA,$8200
00004652: 00                 NOP     
00004653: 9A                 CALT    ($00B4)
00004654: 80                 CALT    ($0080)
00004655: 00                 NOP     
00004656: 10                 EXA     
00004657: 08                 MOV     A,EAH
00004658: 24 02 40           LXI     DE,$4002
0000465B: 00                 NOP     
0000465C: 80                 CALT    ($0080)
0000465D: 00                 NOP     
0000465E: 23                 DCX     DE
0000465F: 11                 EXX     
00004660: 06                 illegal 
00004661: 06                 illegal 
00004662: 00                 NOP     
00004663: 08                 MOV     A,EAH
00004664: 00                 NOP     
00004665: 08                 MOV     A,EAH
00004666: 00                 NOP     
00004667: 00                 NOP     
00004668: 00                 NOP     
00004669: 14 00 00           LXI     BC,$0000
0000466C: 00                 NOP     
0000466D: 00                 NOP     
0000466E: 00                 NOP     
0000466F: 22                 INX     DE
00004670: 00                 NOP     
00004671: 00                 NOP     
00004672: 00                 NOP     
00004673: 00                 NOP     
00004674: 00                 NOP     
00004675: 00                 NOP     
00004676: 00                 NOP     
00004677: 00                 NOP     
00004678: 18                 MOV     EAH,A
00004679: 00                 NOP     
0000467A: 00                 NOP     
0000467B: 00                 NOP     
0000467C: 24 00 24           LXI     DE,$2400
0000467F: 00                 NOP     
00004680: 00                 NOP     
00004681: 00                 NOP     
00004682: 42                 INR     B
00004683: 00                 NOP     
00004684: 42                 INR     B
00004685: 8A                 CALT    ($0094)
00004686: 8B                 CALT    ($0096)
00004687: 8B                 CALT    ($0096)
00004688: 18                 MOV     EAH,A
00004689: 28                 illegal 
0000468A: 28                 illegal 
0000468B: 28                 illegal 
0000468C: 28                 illegal 
0000468D: 28                 illegal 
0000468E: 28                 illegal 
0000468F: 28                 illegal 
00004690: 28                 illegal 
00004691: 28                 illegal 
00004692: 8A                 CALT    ($0094)
00004693: 00                 NOP     
00004694: 08                 MOV     A,EAH
00004695: 28                 illegal 
00004696: 28                 illegal 
00004697: 28                 illegal 
00004698: 28                 illegal 
00004699: 28                 illegal 
0000469A: 28                 illegal 
0000469B: 20 00              INRW    VV:00
0000469D: 03                 DCX     SP
0000469E: 11                 EXX     
0000469F: 98                 CALT    ($00B0)
000046A0: 00                 NOP     
000046A1: 01 00              LDAW    VV:00
000046A3: 00                 NOP     
000046A4: 00                 NOP     
000046A5: 00                 NOP     
000046A6: 00                 NOP     
000046A7: 00                 NOP     
000046A8: 00                 NOP     
000046A9: 00                 NOP     
000046AA: 00                 NOP     
000046AB: 00                 NOP     
000046AC: 00                 NOP     
000046AD: 00                 NOP     
000046AE: 00                 NOP     
000046AF: 00                 NOP     
000046B0: 00                 NOP     
000046B1: 00                 NOP     
000046B2: 00                 NOP     
000046B3: 24 24 24           LXI     DE,$2424
000046B6: 24 24 24           LXI     DE,$2424
000046B9: 24 24 24           LXI     DE,$2424
000046BC: 24 24 24           LXI     DE,$2424
000046BF: 24 24 24           LXI     DE,$2424
000046C2: 24 24 8A           LXI     DE,$8A24
000046C5: 9A                 CALT    ($00B4)
000046C6: 9A                 CALT    ($00B4)
000046C7: 80                 CALT    ($0080)
000046C8: 00                 NOP     
000046C9: 82                 CALT    ($0084)
000046CA: 00                 NOP     
000046CB: 44 00 28           LXI     EA,$2800
000046CE: 00                 NOP     
000046CF: 10                 EXA     
000046D0: 00                 NOP     
000046D1: 88                 CALT    ($0090)
000046D2: 80                 CALT    ($0080)
000046D3: 00                 NOP     
000046D4: 02                 INX     SP
000046D5: 00                 NOP     
000046D6: 04 80 48           LXI     SP,$4880
000046D9: 20 10              INRW    VV:10
000046DB: 00                 NOP     
000046DC: 24 11 00           LXI     DE,$0011
000046DF: 30 30              DCRW    VV:30
000046E1: 00                 NOP     
000046E2: 00                 NOP     
000046E3: 00                 NOP     
000046E4: 00                 NOP     
000046E5: 22                 INX     DE
000046E6: 00                 NOP     
000046E7: 00                 NOP     
000046E8: 00                 NOP     
000046E9: 00                 NOP     
000046EA: 00                 NOP     
000046EB: 14 00 00           LXI     BC,$0000
000046EE: 00                 NOP     
000046EF: 08                 MOV     A,EAH
000046F0: 00                 NOP     
000046F1: 08                 MOV     A,EAH
000046F2: 42                 INR     B
000046F3: 00                 NOP     
000046F4: 42                 INR     B
000046F5: 00                 NOP     
000046F6: 00                 NOP     
000046F7: 00                 NOP     
000046F8: 24 00 24           LXI     DE,$2400
000046FB: 00                 NOP     
000046FC: 00                 NOP     
000046FD: 00                 NOP     
000046FE: 18                 MOV     EAH,A
000046FF: 00                 NOP     
00004700: 00                 NOP     
00004701: 00                 NOP     
00004702: 00                 NOP     
00004703: 8E                 CALT    ($009C)
00004704: 8B                 CALT    ($0096)
00004705: 89                 CALT    ($0092)
00004706: 14 40 80           LXI     BC,$8040
00004709: 80                 CALT    ($0080)
0000470A: 80                 CALT    ($0080)
0000470B: 8A                 CALT    ($0094)
0000470C: 82                 CALT    ($0084)
0000470D: 90                 CALT    ($00A0)
0000470E: 80                 CALT    ($0080)
0000470F: 60 8A              ANA     A,B
00004711: 00                 NOP     
00004712: 40 02 82           CALL    $8202
00004715: 88                 CALT    ($0090)
00004716: 80                 CALT    ($0080)
00004717: 90                 CALT    ($00A0)
00004718: 80                 CALT    ($0080)
00004719: 60 00              illegal 
0000471B: 40 82 8A           CALL    $8A82
0000471E: 80                 CALT    ($0080)
0000471F: 90                 CALT    ($00A0)
00004720: 80                 CALT    ($0080)
00004721: 60 00              illegal 
00004723: 04 10 80           LXI     SP,$8010
00004726: 80                 CALT    ($0080)
00004727: 41                 INR     A
00004728: 00                 NOP     
00004729: 60 00              illegal 
0000472B: 00                 NOP     
0000472C: 80                 CALT    ($0080)
0000472D: 80                 CALT    ($0080)
0000472E: 80                 CALT    ($0080)
0000472F: 80                 CALT    ($0080)
00004730: 8B                 CALT    ($0096)
00004731: 80                 CALT    ($0080)
00004732: 80                 CALT    ($0080)
00004733: 80                 CALT    ($0080)
00004734: 90                 CALT    ($00A0)
00004735: 00                 NOP     
00004736: 00                 NOP     
00004737: 60 40              ADD     V,A
00004739: 00                 NOP     
0000473A: C0                 JR      $473B
0000473B: 00                 NOP     
0000473C: 00                 NOP     
0000473D: 00                 NOP     
0000473E: 00                 NOP     
0000473F: 02                 INX     SP
00004740: 08                 MOV     A,EAH
00004741: 02                 INX     SP
00004742: 10                 EXA     
00004743: 00                 NOP     
00004744: 00                 NOP     
00004745: 00                 NOP     
00004746: A0                 POP     VA
00004747: 40 8E 8B           CALL    $8B8E
0000474A: 8B                 CALT    ($0096)
0000474B: 0C                 MOV     A,D
0000474C: 38                 illegal 
0000474D: 44 82 92           LXI     EA,$9282
00004750: AA                 EI      
00004751: AA                 EI      
00004752: AA                 EI      
00004753: AA                 EI      
00004754: 7A 8B              CALF    $0A8B
00004756: 00                 NOP     
00004757: 1C                 MOV     D,A
00004758: 20 42              INRW    VV:42
0000475A: 82                 CALT    ($0084)
0000475B: 92                 CALT    ($00A4)
0000475C: 8A                 CALT    ($0094)
0000475D: AA                 EI      
0000475E: A8                 INX     EA
0000475F: 70 1C              illegal 
00004761: 20 42              INRW    VV:42
00004763: 12                 INX     BC
00004764: 8A                 CALT    ($0094)
00004765: A8                 INX     EA
00004766: A8                 INX     EA
00004767: 70 01              illegal 
00004769: 15 08 00           ORIW    VV:08,$00
0000476C: A1                 POP     BC
0000476D: 18                 MOV     EAH,A
0000476E: 24 42 00           LXI     DE,$0042
00004771: 00                 NOP     
00004772: 00                 NOP     
00004773: 99                 CALT    ($00B2)
00004774: 81                 CALT    ($0082)
00004775: 85                 CALT    ($008A)
00004776: A5                 DMOV    EA,BC
00004777: A5                 DMOV    EA,BC
00004778: A1                 POP     BC
00004779: A1                 POP     BC
0000477A: B9                 RETS    
0000477B: 81                 CALT    ($0082)
0000477C: 01 05              LDAW    VV:05
0000477E: 00                 NOP     
0000477F: 44 20 18           LXI     EA,$1820
00004782: 38                 illegal 
00004783: 44 00 00           LXI     EA,$0000
00004786: 82                 CALT    ($0084)
00004787: 00                 NOP     
00004788: 10                 EXA     
00004789: 28                 illegal 
0000478A: 00                 NOP     
0000478B: 00                 NOP     
0000478C: 00                 NOP     
0000478D: 00                 NOP     
0000478E: 08                 MOV     A,EAH
0000478F: 30 08              DCRW    VV:08
00004791: 00                 NOP     
00004792: 80                 CALT    ($0080)
00004793: 00                 NOP     
00004794: 02                 INX     SP
00004795: 48 30              illegal 
00004797: 8B                 CALT    ($0096)
00004798: 8B                 CALT    ($0096)
00004799: 8B                 CALT    ($0096)
0000479A: 18                 MOV     EAH,A
0000479B: 1E                 MOV     H,A
0000479C: 28                 illegal 
0000479D: 48 88              illegal 
0000479F: 88                 CALT    ($0090)
000047A0: 88                 CALT    ($0090)
000047A1: 48 28              JEA     
000047A3: 1E                 MOV     H,A
000047A4: 8B                 CALT    ($0096)
000047A5: 03                 DCX     SP
000047A6: 02                 INX     SP
000047A7: 04 08 18           LXI     SP,$1808
000047AA: 28                 illegal 
000047AB: 48 88              illegal 
000047AD: 08                 MOV     A,EAH
000047AE: FE                 JR      $47AD
000047AF: 41                 INR     A
000047B0: 15 00 DE           ORIW    VV:00,$DE
000047B3: 47 01              ONI     A,$01
000047B5: 01 01              LDAW    VV:01
000047B7: 03                 DCX     SP
000047B8: 05 09 11           ANIW    VV:09,$11
000047BB: 20 40              INRW    VV:40
000047BD: 80                 CALT    ($0080)
000047BE: 80                 CALT    ($0080)
000047BF: 80                 CALT    ($0080)
000047C0: 40 20 11           CALL    $1120
000047C3: 09                 MOV     A,EAL
000047C4: 05 03 01           ANIW    VV:03,$01
000047C7: 01 01              LDAW    VV:01
000047C9: 00                 NOP     
000047CA: 00                 NOP     
000047CB: 02                 INX     SP
000047CC: 04 08 18           LXI     SP,$1808
000047CF: 28                 illegal 
000047D0: 48 88              illegal 
000047D2: 08                 MOV     A,EAH
000047D3: 08                 MOV     A,EAH
000047D4: 08                 MOV     A,EAH
000047D5: 88                 CALT    ($0090)
000047D6: 48 28              JEA     
000047D8: 18                 MOV     EAH,A
000047D9: 08                 MOV     A,EAH
000047DA: 04 02 00           LXI     SP,$0002
000047DD: 00                 NOP     
000047DE: 00                 NOP     
000047DF: 13                 DCX     BC
000047E0: 01 01              LDAW    VV:01
000047E2: 03                 DCX     SP
000047E3: 05 09 11           ANIW    VV:09,$11
000047E6: 21                 JB      
000047E7: 40 80 80           CALL    $8080
000047EA: 80                 CALT    ($0080)
000047EB: 40 21 11           CALL    $1121
000047EE: 09                 MOV     A,EAL
000047EF: 05 03 01           ANIW    VV:03,$01
000047F2: 01 00              LDAW    VV:00
000047F4: 00                 NOP     
000047F5: 02                 INX     SP
000047F6: 04 08 18           LXI     SP,$1808
000047F9: 28                 illegal 
000047FA: 48 88              illegal 
000047FC: 88                 CALT    ($0090)
000047FD: 88                 CALT    ($0090)
000047FE: 48 28              JEA     
00004800: 18                 MOV     EAH,A
00004801: 08                 MOV     A,EAH
00004802: 04 02 00           LXI     SP,$0002
00004805: 00                 NOP     
00004806: 8A                 CALT    ($0094)
00004807: 8B                 CALT    ($0096)
00004808: 8B                 CALT    ($0096)
00004809: 18                 MOV     EAH,A
0000480A: 82                 CALT    ($0084)
0000480B: FE                 JR      $480A
0000480C: 92                 CALT    ($00A4)
0000480D: 92                 CALT    ($00A4)
0000480E: 92                 CALT    ($00A4)
0000480F: 92                 CALT    ($00A4)
00004810: 92                 CALT    ($00A4)
00004811: 92                 CALT    ($00A4)
00004812: 6C 8B              MVI     D,$8B
00004814: 10                 EXA     
00004815: 06                 illegal 
00004816: 9A                 CALT    ($00B4)
00004817: F2                 JR      $480A
00004818: 82                 CALT    ($0084)
00004819: 92                 CALT    ($00A4)
0000481A: 92                 CALT    ($00A4)
0000481B: 92                 CALT    ($00A4)
0000481C: 8C                 CALT    ($0098)
0000481D: 60 02              illegal 
0000481F: 14 85 00           LXI     BC,$0085
00004822: 40 81 81           CALL    $8181
00004825: 81                 CALT    ($0082)
00004826: 81                 CALT    ($0082)
00004827: FF                 JR      $4827
00004828: 81                 CALT    ($0082)
00004829: 81                 CALT    ($0082)
0000482A: 81                 CALT    ($0082)
0000482B: 81                 CALT    ($0082)
0000482C: 81                 CALT    ($0082)
0000482D: 81                 CALT    ($0082)
0000482E: 81                 CALT    ($0082)
0000482F: 81                 CALT    ($0082)
00004830: 81                 CALT    ($0082)
00004831: 81                 CALT    ($0082)
00004832: 81                 CALT    ($0082)
00004833: 91                 CALT    ($00A2)
00004834: 09                 MOV     A,EAL
00004835: 60 06              illegal 
00004837: 00                 NOP     
00004838: 00                 NOP     
00004839: 00                 NOP     
0000483A: 00                 NOP     
0000483B: FE                 JR      $483A
0000483C: 10                 EXA     
0000483D: 10                 EXA     
0000483E: 10                 EXA     
0000483F: 10                 EXA     
00004840: 10                 EXA     
00004841: 10                 EXA     
00004842: 10                 EXA     
00004843: 10                 EXA     
00004844: 10                 EXA     
00004845: 10                 EXA     
00004846: 10                 EXA     
00004847: 10                 EXA     
00004848: A0                 POP     VA
00004849: 42                 INR     B
0000484A: 0C                 MOV     A,D
0000484B: 8E                 CALT    ($009C)
0000484C: 8B                 CALT    ($0096)
0000484D: 8B                 CALT    ($0096)
0000484E: 18                 MOV     EAH,A
0000484F: 7C 82              CALF    $0C82
00004851: 82                 CALT    ($0084)
00004852: 82                 CALT    ($0084)
00004853: 82                 CALT    ($0084)
00004854: 82                 CALT    ($0084)
00004855: 82                 CALT    ($0084)
00004856: 82                 CALT    ($0084)
00004857: 44 8B 00           LXI     EA,$008B
0000485A: 1C                 MOV     D,A
0000485B: 22                 INX     DE
0000485C: 42                 INR     B
0000485D: 82                 CALT    ($0084)
0000485E: 82                 CALT    ($0084)
0000485F: 82                 CALT    ($0084)
00004860: 80                 CALT    ($0080)
00004861: 84                 CALT    ($0088)
00004862: 40 1C 62           CALL    $621C
00004865: 82                 CALT    ($0084)
00004866: 82                 CALT    ($0084)
00004867: 82                 CALT    ($0084)
00004868: 82                 CALT    ($0084)
00004869: 84                 CALT    ($0088)
0000486A: 40 02 14           CALL    $1402
0000486D: 82                 CALT    ($0084)
0000486E: 00                 NOP     
0000486F: 21                 JB      
00004870: 00                 NOP     
00004871: 18                 MOV     EAH,A
00004872: 24 42 00           LXI     DE,$0042
00004875: 00                 NOP     
00004876: 00                 NOP     
00004877: 81                 CALT    ($0082)
00004878: 81                 CALT    ($0082)
00004879: 81                 CALT    ($0082)
0000487A: 81                 CALT    ($0082)
0000487B: 81                 CALT    ($0082)
0000487C: 81                 CALT    ($0082)
0000487D: 81                 CALT    ($0082)
0000487E: 00                 NOP     
0000487F: 00                 NOP     
00004880: 40 42 E0           CALL    $E042
00004883: 04 00 38           LXI     SP,$3800
00004886: 44 00 00           LXI     EA,$0000
00004889: 82                 CALT    ($0084)
0000488A: 00                 NOP     
0000488B: 00                 NOP     
0000488C: 00                 NOP     
0000488D: 00                 NOP     
0000488E: 00                 NOP     
0000488F: 00                 NOP     
00004890: 00                 NOP     
00004891: 00                 NOP     
00004892: 00                 NOP     
00004893: 82                 CALT    ($0084)
00004894: 00                 NOP     
00004895: 00                 NOP     
00004896: C4                 JR      $489B
00004897: 00                 NOP     
00004898: 8A                 CALT    ($0094)
00004899: 8B                 CALT    ($0096)
0000489A: 8B                 CALT    ($0096)
0000489B: 18                 MOV     EAH,A
0000489C: 82                 CALT    ($0084)
0000489D: FE                 JR      $489C
0000489E: 82                 CALT    ($0084)
0000489F: 82                 CALT    ($0084)
000048A0: 82                 CALT    ($0084)
000048A1: 82                 CALT    ($0084)
000048A2: 82                 CALT    ($0084)
000048A3: 44 38 8B           LXI     EA,$8B38
000048A6: 04 06 9A           LXI     SP,$9A06
000048A9: E2                 JR      $488C
000048AA: 82                 CALT    ($0084)
000048AB: 82                 CALT    ($0084)
000048AC: 80                 CALT    ($0080)
000048AD: 84                 CALT    ($0088)
000048AE: 88                 CALT    ($0090)
000048AF: 70 02              illegal 
000048B1: 14 05 00           LXI     BC,$0005
000048B4: 11                 EXX     
000048B5: 81                 CALT    ($0082)
000048B6: 81                 CALT    ($0082)
000048B7: 81                 CALT    ($0082)
000048B8: 81                 CALT    ($0082)
000048B9: FF                 JR      $48B9
000048BA: 81                 CALT    ($0082)
000048BB: 81                 CALT    ($0082)
000048BC: 81                 CALT    ($0082)
000048BD: 81                 CALT    ($0082)
000048BE: 81                 CALT    ($0082)
000048BF: 81                 CALT    ($0082)
000048C0: 81                 CALT    ($0082)
000048C1: 81                 CALT    ($0082)
000048C2: 00                 NOP     
000048C3: 00                 NOP     
000048C4: 00                 NOP     
000048C5: 42                 INR     B
000048C6: 00                 NOP     
000048C7: 24 18 00           LXI     DE,$0018
000048CA: 00                 NOP     
000048CB: 00                 NOP     
000048CC: 00                 NOP     
000048CD: FE                 JR      $48CC
000048CE: 00                 NOP     
000048CF: 00                 NOP     
000048D0: 00                 NOP     
000048D1: 00                 NOP     
000048D2: 00                 NOP     
000048D3: 00                 NOP     
000048D4: 00                 NOP     
000048D5: 00                 NOP     
000048D6: 00                 NOP     
000048D7: 82                 CALT    ($0084)
000048D8: 00                 NOP     
000048D9: 00                 NOP     
000048DA: 00                 NOP     
000048DB: 44 38 8A           LXI     EA,$8A38
000048DE: 8B                 CALT    ($0096)
000048DF: 8B                 CALT    ($0096)
000048E0: 18                 MOV     EAH,A
000048E1: FE                 JR      $48E0
000048E2: 92                 CALT    ($00A4)
000048E3: 92                 CALT    ($00A4)
000048E4: 92                 CALT    ($00A4)
000048E5: 92                 CALT    ($00A4)
000048E6: 92                 CALT    ($00A4)
000048E7: 92                 CALT    ($00A4)
000048E8: 82                 CALT    ($0084)
000048E9: 82                 CALT    ($0084)
000048EA: 8B                 CALT    ($0096)
000048EB: 02                 INX     SP
000048EC: 06                 illegal 
000048ED: 3A                 STAX    (DE)
000048EE: D2                 JR      $4901
000048EF: 92                 CALT    ($00A4)
000048F0: 92                 CALT    ($00A4)
000048F1: 92                 CALT    ($00A4)
000048F2: 82                 CALT    ($0084)
000048F3: 80                 CALT    ($0080)
000048F4: 80                 CALT    ($0080)
000048F5: 02                 INX     SP
000048F6: 13                 DCX     BC
000048F7: 05 02 80           ANIW    VV:02,$80
000048FA: 81                 CALT    ($0082)
000048FB: 81                 CALT    ($0082)
000048FC: 81                 CALT    ($0082)
000048FD: 81                 CALT    ($0082)
000048FE: FF                 JR      $48FE
000048FF: 81                 CALT    ($0082)
00004900: 81                 CALT    ($0082)
00004901: 81                 CALT    ($0082)
00004902: 81                 CALT    ($0082)
00004903: 81                 CALT    ($0082)
00004904: 81                 CALT    ($0082)
00004905: 81                 CALT    ($0082)
00004906: 81                 CALT    ($0082)
00004907: BD                 STAX    (HL+B)
00004908: 81                 CALT    ($0082)
00004909: 81                 CALT    ($0082)
0000490A: 81                 CALT    ($0082)
0000490B: 81                 CALT    ($0082)
0000490C: C3                 JR      $4910
0000490D: 00                 NOP     
0000490E: 00                 NOP     
0000490F: 00                 NOP     
00004910: 00                 NOP     
00004911: FE                 JR      $4910
00004912: 10                 EXA     
00004913: 10                 EXA     
00004914: 10                 EXA     
00004915: 10                 EXA     
00004916: 10                 EXA     
00004917: 10                 EXA     
00004918: 10                 EXA     
00004919: 10                 EXA     
0000491A: 38                 illegal 
0000491B: 00                 NOP     
0000491C: 00                 NOP     
0000491D: 00                 NOP     
0000491E: 00                 NOP     
0000491F: C6                 JR      $4926
00004920: 8A                 CALT    ($0094)
00004921: 8B                 CALT    ($0096)
00004922: 8B                 CALT    ($0096)
00004923: 18                 MOV     EAH,A
00004924: FE                 JR      $4923
00004925: 90                 CALT    ($00A0)
00004926: 90                 CALT    ($00A0)
00004927: 90                 CALT    ($00A0)
00004928: 90                 CALT    ($00A0)
00004929: 90                 CALT    ($00A0)
0000492A: 90                 CALT    ($00A0)
0000492B: 80                 CALT    ($0080)
0000492C: 80                 CALT    ($0080)
0000492D: 8B                 CALT    ($0096)
0000492E: 02                 INX     SP
0000492F: 06                 illegal 
00004930: 38                 illegal 
00004931: D0                 JR      $4942
00004932: 90                 CALT    ($00A0)
00004933: 90                 CALT    ($00A0)
00004934: 90                 CALT    ($00A0)
00004935: 80                 CALT    ($0080)
00004936: 80                 CALT    ($0080)
00004937: 80                 CALT    ($0080)
00004938: 02                 INX     SP
00004939: 14 02 81           LXI     BC,$8102
0000493C: 40 00 81           CALL    $8100
0000493F: 81                 CALT    ($0082)
00004940: 81                 CALT    ($0082)
00004941: 81                 CALT    ($0082)
00004942: FF                 JR      $4942
00004943: 81                 CALT    ($0082)
00004944: 81                 CALT    ($0082)
00004945: 81                 CALT    ($0082)
00004946: 81                 CALT    ($0082)
00004947: 81                 CALT    ($0082)
00004948: 81                 CALT    ($0082)
00004949: 80                 CALT    ($0080)
0000494A: 80                 CALT    ($0080)
0000494B: BC                 STAX    (HL+A)
0000494C: 80                 CALT    ($0080)
0000494D: 80                 CALT    ($0080)
0000494E: 80                 CALT    ($0080)
0000494F: 80                 CALT    ($0080)
00004950: C0                 JR      $4951
00004951: 00                 NOP     
00004952: 00                 NOP     
00004953: 00                 NOP     
00004954: 00                 NOP     
00004955: 00                 NOP     
00004956: FE                 JR      $4955
00004957: 10                 EXA     
00004958: 10                 EXA     
00004959: 10                 EXA     
0000495A: 10                 EXA     
0000495B: 10                 EXA     
0000495C: 10                 EXA     
0000495D: 10                 EXA     
0000495E: 10                 EXA     
0000495F: 38                 illegal 
00004960: 00                 NOP     
00004961: 00                 NOP     
00004962: 00                 NOP     
00004963: 00                 NOP     
00004964: C0                 JR      $4965
00004965: 8E                 CALT    ($009C)
00004966: 8B                 CALT    ($0096)
00004967: 8B                 CALT    ($0096)
00004968: 0C                 MOV     A,D
00004969: 7C 82              CALF    $0C82
0000496B: 82                 CALT    ($0084)
0000496C: 82                 CALT    ($0084)
0000496D: 92                 CALT    ($00A4)
0000496E: 92                 CALT    ($00A4)
0000496F: 92                 CALT    ($00A4)
00004970: 92                 CALT    ($00A4)
00004971: 5C 8B              BIT     4,VV:8B
00004973: 00                 NOP     
00004974: 1C                 MOV     D,A
00004975: 22                 INX     DE
00004976: 42                 INR     B
00004977: 82                 CALT    ($0084)
00004978: 82                 CALT    ($0084)
00004979: 92                 CALT    ($00A4)
0000497A: 94                 CALT    ($00A8)
0000497B: 98                 CALT    ($00B0)
0000497C: 40 1C 62           CALL    $621C
0000497F: 82                 CALT    ($0084)
00004980: 82                 CALT    ($0084)
00004981: 82                 CALT    ($0084)
00004982: 92                 CALT    ($00A4)
00004983: 94                 CALT    ($00A8)
00004984: 58 02              BIT     0,VV:02
00004986: 14 04 06           LXI     BC,$0604
00004989: 01 18              LDAW    VV:18
0000498B: 24 42 00           LXI     DE,$0042
0000498E: 00                 NOP     
0000498F: 00                 NOP     
00004990: 81                 CALT    ($0082)
00004991: 81                 CALT    ($0082)
00004992: 81                 CALT    ($0082)
00004993: 81                 CALT    ($0082)
00004994: 81                 CALT    ($0082)
00004995: 89                 CALT    ($0092)
00004996: 89                 CALT    ($0092)
00004997: 08                 MOV     A,EAH
00004998: 08                 MOV     A,EAH
00004999: 4A 08              MVIX    DE,$08
0000499B: EF                 JR      $498B
0000499C: 08                 MOV     A,EAH
0000499D: 08                 MOV     A,EAH
0000499E: 38                 illegal 
0000499F: 44 00 00           LXI     EA,$0000
000049A2: 82                 CALT    ($0084)
000049A3: 00                 NOP     
000049A4: 00                 NOP     
000049A5: 00                 NOP     
000049A6: 00                 NOP     
000049A7: 00                 NOP     
000049A8: 00                 NOP     
000049A9: 00                 NOP     
000049AA: 00                 NOP     
000049AB: 00                 NOP     
000049AC: 82                 CALT    ($0084)
000049AD: 00                 NOP     
000049AE: 00                 NOP     
000049AF: CE                 JR      $49BE
000049B0: 00                 NOP     
000049B1: 00                 NOP     
000049B2: 8A                 CALT    ($0094)
000049B3: 8B                 CALT    ($0096)
000049B4: 8B                 CALT    ($0096)
000049B5: 18                 MOV     EAH,A
000049B6: FE                 JR      $49B5
000049B7: 10                 EXA     
000049B8: 10                 EXA     
000049B9: 10                 EXA     
000049BA: 10                 EXA     
000049BB: 10                 EXA     
000049BC: 10                 EXA     
000049BD: 10                 EXA     
000049BE: FE                 JR      $49BD
000049BF: 8B                 CALT    ($0096)
000049C0: 18                 MOV     EAH,A
000049C1: 06                 illegal 
000049C2: 38                 illegal 
000049C3: D0                 JR      $49D4
000049C4: 10                 EXA     
000049C5: 10                 EXA     
000049C6: 10                 EXA     
000049C7: 16 38              XRI     A,$38
000049C9: C0                 JR      $49CA
000049CA: 01 15              LDAW    VV:15
000049CC: 14 00 50           LXI     BC,$5000
000049CF: 81                 CALT    ($0082)
000049D0: 81                 CALT    ($0082)
000049D1: 81                 CALT    ($0082)
000049D2: FF                 JR      $49D2
000049D3: 81                 CALT    ($0082)
000049D4: 81                 CALT    ($0082)
000049D5: 81                 CALT    ($0082)
000049D6: 00                 NOP     
000049D7: 00                 NOP     
000049D8: 00                 NOP     
000049D9: 00                 NOP     
000049DA: 00                 NOP     
000049DB: 00                 NOP     
000049DC: 00                 NOP     
000049DD: 81                 CALT    ($0082)
000049DE: 81                 CALT    ($0082)
000049DF: 81                 CALT    ($0082)
000049E0: FF                 JR      $49E0
000049E1: 81                 CALT    ($0082)
000049E2: 81                 CALT    ($0082)
000049E3: 81                 CALT    ($0082)
000049E4: 00                 NOP     
000049E5: 00                 NOP     
000049E6: 00                 NOP     
000049E7: FE                 JR      $49E6
000049E8: 10                 EXA     
000049E9: 10                 EXA     
000049EA: 10                 EXA     
000049EB: 10                 EXA     
000049EC: 10                 EXA     
000049ED: 10                 EXA     
000049EE: 10                 EXA     
000049EF: 10                 EXA     
000049F0: 10                 EXA     
000049F1: 10                 EXA     
000049F2: 10                 EXA     
000049F3: 10                 EXA     
000049F4: 10                 EXA     
000049F5: FE                 JR      $49F4
000049F6: 00                 NOP     
000049F7: 00                 NOP     
000049F8: 00                 NOP     
000049F9: 8A                 CALT    ($0094)
000049FA: A9                 DCX     EA
000049FB: A9                 DCX     EA
000049FC: 80                 CALT    ($0080)
000049FD: 00                 NOP     
000049FE: 00                 NOP     
000049FF: 82                 CALT    ($0084)
00004A00: 82                 CALT    ($0084)
00004A01: FE                 JR      $4A00
00004A02: 82                 CALT    ($0084)
00004A03: 82                 CALT    ($0084)
00004A04: 00                 NOP     
00004A05: 00                 NOP     
00004A06: 9A                 CALT    ($00B4)
00004A07: 80                 CALT    ($0080)
00004A08: 00                 NOP     
00004A09: 02                 INX     SP
00004A0A: 02                 INX     SP
00004A0B: 86                 CALT    ($008C)
00004A0C: 9A                 CALT    ($00B4)
00004A0D: E2                 JR      $49F0
00004A0E: 80                 CALT    ($0080)
00004A0F: 80                 CALT    ($0080)
00004A10: 00                 NOP     
00004A11: 25 0D 80           GTIW    VV:0D,$80
00004A14: 28                 illegal 
00004A15: 01 81              LDAW    VV:81
00004A17: 81                 CALT    ($0082)
00004A18: 81                 CALT    ($0082)
00004A19: 81                 CALT    ($0082)
00004A1A: 81                 CALT    ($0082)
00004A1B: 81                 CALT    ($0082)
00004A1C: FF                 JR      $4A1C
00004A1D: 81                 CALT    ($0082)
00004A1E: 81                 CALT    ($0082)
00004A1F: 81                 CALT    ($0082)
00004A20: 81                 CALT    ($0082)
00004A21: 81                 CALT    ($0082)
00004A22: 81                 CALT    ($0082)
00004A23: 00                 NOP     
00004A24: 00                 NOP     
00004A25: 00                 NOP     
00004A26: 00                 NOP     
00004A27: 00                 NOP     
00004A28: 00                 NOP     
00004A29: FE                 JR      $4A28
00004A2A: 00                 NOP     
00004A2B: 00                 NOP     
00004A2C: 00                 NOP     
00004A2D: 00                 NOP     
00004A2E: 00                 NOP     
00004A2F: 00                 NOP     
00004A30: 8E                 CALT    ($009C)
00004A31: 8A                 CALT    ($0094)
00004A32: 8B                 CALT    ($0096)
00004A33: 40 0C 02           CALL    $020C
00004A36: 02                 INX     SP
00004A37: 82                 CALT    ($0084)
00004A38: 82                 CALT    ($0084)
00004A39: 82                 CALT    ($0084)
00004A3A: FC                 JR      $4A37
00004A3B: 80                 CALT    ($0080)
00004A3C: 00                 NOP     
00004A3D: 8B                 CALT    ($0096)
00004A3E: 00                 NOP     
00004A3F: 0C                 MOV     A,D
00004A40: 02                 INX     SP
00004A41: 02                 INX     SP
00004A42: 02                 INX     SP
00004A43: 82                 CALT    ($0084)
00004A44: 84                 CALT    ($0088)
00004A45: 98                 CALT    ($00B0)
00004A46: E0                 JR      $4A27
00004A47: 80                 CALT    ($0080)
00004A48: 0C                 MOV     A,D
00004A49: 02                 INX     SP
00004A4A: 02                 INX     SP
00004A4B: 82                 CALT    ($0084)
00004A4C: 8C                 CALT    ($0098)
00004A4D: F0                 JR      $4A3E
00004A4E: 80                 CALT    ($0080)
00004A4F: 80                 CALT    ($0080)
00004A50: 22                 INX     DE
00004A51: 13                 DCX     BC
00004A52: 80                 CALT    ($0080)
00004A53: C0                 JR      $4A54
00004A54: 01 04              LDAW    VV:04
00004A56: 06                 illegal 
00004A57: 04 00 01           LXI     SP,$0100
00004A5A: 01 81              LDAW    VV:81
00004A5C: 81                 CALT    ($0082)
00004A5D: 81                 CALT    ($0082)
00004A5E: 81                 CALT    ($0082)
00004A5F: 81                 CALT    ($0082)
00004A60: 80                 CALT    ($0080)
00004A61: 80                 CALT    ($0080)
00004A62: 82                 CALT    ($0084)
00004A63: FC                 JR      $4A60
00004A64: 80                 CALT    ($0080)
00004A65: 80                 CALT    ($0080)
00004A66: 80                 CALT    ($0080)
00004A67: 80                 CALT    ($0080)
00004A68: 04 08 02           LXI     SP,$0208
00004A6B: 00                 NOP     
00004A6C: 00                 NOP     
00004A6D: 00                 NOP     
00004A6E: 00                 NOP     
00004A6F: 00                 NOP     
00004A70: 00                 NOP     
00004A71: 00                 NOP     
00004A72: 00                 NOP     
00004A73: 00                 NOP     
00004A74: 02                 INX     SP
00004A75: 04 F8 00           LXI     SP,$00F8
00004A78: 00                 NOP     
00004A79: 00                 NOP     
00004A7A: 00                 NOP     
00004A7B: 8F                 CALT    ($009E)
00004A7C: 8B                 CALT    ($0096)
00004A7D: 8B                 CALT    ($0096)
00004A7E: 05 00 FE           ANIW    VV:00,$FE
00004A81: 10                 EXA     
00004A82: 10                 EXA     
00004A83: 28                 illegal 
00004A84: 00                 NOP     
00004A85: 44 00 82           LXI     EA,$8200
00004A88: 8B                 CALT    ($0096)
00004A89: 00                 NOP     
00004A8A: 06                 illegal 
00004A8B: 38                 illegal 
00004A8C: C0                 JR      $4A8D
00004A8D: 10                 EXA     
00004A8E: 20 08              INRW    VV:08
00004A90: 44 02 80           LXI     EA,$8002
00004A93: 06                 illegal 
00004A94: 38                 illegal 
00004A95: C0                 JR      $4A96
00004A96: 10                 EXA     
00004A97: 28                 illegal 
00004A98: 04 42 80           LXI     SP,$8042
00004A9B: 42                 INR     B
00004A9C: 14 00 C8           LXI     BC,$C800
00004A9F: 4A 00              MVIX    DE,$00
00004AA1: 81                 CALT    ($0082)
00004AA2: 81                 CALT    ($0082)
00004AA3: 81                 CALT    ($0082)
00004AA4: FF                 JR      $4AA4
00004AA5: 81                 CALT    ($0082)
00004AA6: 89                 CALT    ($0092)
00004AA7: 81                 CALT    ($0082)
00004AA8: 00                 NOP     
00004AA9: 10                 EXA     
00004AAA: 00                 NOP     
00004AAB: 28                 illegal 
00004AAC: 80                 CALT    ($0080)
00004AAD: 85                 CALT    ($008A)
00004AAE: C1                 JR      $4AB0
00004AAF: 83                 CALT    ($0086)
00004AB0: 81                 CALT    ($0082)
00004AB1: 81                 CALT    ($0082)
00004AB2: 81                 CALT    ($0082)
00004AB3: 01 00              LDAW    VV:00
00004AB5: 00                 NOP     
00004AB6: 00                 NOP     
00004AB7: 00                 NOP     
00004AB8: FE                 JR      $4AB7
00004AB9: 00                 NOP     
00004ABA: 00                 NOP     
00004ABB: 10                 EXA     
00004ABC: 00                 NOP     
00004ABD: 00                 NOP     
00004ABE: 30 00              DCRW    VV:00
00004AC0: 08                 MOV     A,EAH
00004AC1: 40 04 80           CALL    $8004
00004AC4: 02                 INX     SP
00004AC5: 00                 NOP     
00004AC6: 00                 NOP     
00004AC7: 00                 NOP     
00004AC8: 02                 INX     SP
00004AC9: 11                 EXX     
00004ACA: 81                 CALT    ($0082)
00004ACB: 81                 CALT    ($0082)
00004ACC: FF                 JR      $4ACC
00004ACD: 81                 CALT    ($0082)
00004ACE: 89                 CALT    ($0092)
00004ACF: 00                 NOP     
00004AD0: 10                 EXA     
00004AD1: 00                 NOP     
00004AD2: 28                 illegal 
00004AD3: 80                 CALT    ($0080)
00004AD4: C5                 JR      $4ADA
00004AD5: 81                 CALT    ($0082)
00004AD6: 83                 CALT    ($0086)
00004AD7: 81                 CALT    ($0082)
00004AD8: 81                 CALT    ($0082)
00004AD9: 81                 CALT    ($0082)
00004ADA: 01 00              LDAW    VV:00
00004ADC: 00                 NOP     
00004ADD: FE                 JR      $4ADC
00004ADE: 00                 NOP     
00004ADF: 00                 NOP     
00004AE0: 10                 EXA     
00004AE1: 00                 NOP     
00004AE2: 30 00              DCRW    VV:00
00004AE4: 48 00              illegal 
00004AE6: 84                 CALT    ($0088)
00004AE7: 00                 NOP     
00004AE8: 02                 INX     SP
00004AE9: 00                 NOP     
00004AEA: 00                 NOP     
00004AEB: 00                 NOP     
00004AEC: 8E                 CALT    ($009C)
00004AED: 8B                 CALT    ($0096)
00004AEE: 8B                 CALT    ($0096)
00004AEF: 18                 MOV     EAH,A
00004AF0: FE                 JR      $4AEF
00004AF1: 02                 INX     SP
00004AF2: 02                 INX     SP
00004AF3: 02                 INX     SP
00004AF4: 02                 INX     SP
00004AF5: 02                 INX     SP
00004AF6: 02                 INX     SP
00004AF7: 02                 INX     SP
00004AF8: 02                 INX     SP
00004AF9: 9A                 CALT    ($00B4)
00004AFA: 00                 NOP     
00004AFB: 00                 NOP     
00004AFC: 06                 illegal 
00004AFD: 1A                 MOV     B,A
00004AFE: 62                 RETI    
00004AFF: 82                 CALT    ($0084)
00004B00: 02                 INX     SP
00004B01: 02                 INX     SP
00004B02: 02                 INX     SP
00004B03: 00                 NOP     
00004B04: 00                 NOP     
00004B05: 06                 illegal 
00004B06: 3A                 STAX    (DE)
00004B07: C2                 JR      $4B0A
00004B08: 02                 INX     SP
00004B09: 02                 INX     SP
00004B0A: 02                 INX     SP
00004B0B: 00                 NOP     
00004B0C: 23                 DCX     DE
00004B0D: 13                 DCX     BC
00004B0E: 82                 CALT    ($0084)
00004B0F: 80                 CALT    ($0080)
00004B10: 01 81              LDAW    VV:81
00004B12: 81                 CALT    ($0082)
00004B13: 81                 CALT    ($0082)
00004B14: 81                 CALT    ($0082)
00004B15: FF                 JR      $4B15
00004B16: 81                 CALT    ($0082)
00004B17: 81                 CALT    ($0082)
00004B18: 81                 CALT    ($0082)
00004B19: 81                 CALT    ($0082)
00004B1A: 81                 CALT    ($0082)
00004B1B: 81                 CALT    ($0082)
00004B1C: 01 01              LDAW    VV:01
00004B1E: 01 01              LDAW    VV:01
00004B20: 01 01              LDAW    VV:01
00004B22: 01 07              LDAW    VV:07
00004B24: 00                 NOP     
00004B25: 00                 NOP     
00004B26: 00                 NOP     
00004B27: 00                 NOP     
00004B28: FE                 JR      $4B27
00004B29: 00                 NOP     
00004B2A: 00                 NOP     
00004B2B: 00                 NOP     
00004B2C: 00                 NOP     
00004B2D: 00                 NOP     
00004B2E: 00                 NOP     
00004B2F: 00                 NOP     
00004B30: 00                 NOP     
00004B31: 00                 NOP     
00004B32: 00                 NOP     
00004B33: 00                 NOP     
00004B34: 00                 NOP     
00004B35: 00                 NOP     
00004B36: 0E                 MOV     A,H
00004B37: 8E                 CALT    ($009C)
00004B38: 8B                 CALT    ($0096)
00004B39: 8B                 CALT    ($0096)
00004B3A: 14 FE 00           LXI     BC,$00FE
00004B3D: 40 20 30           CALL    $3020
00004B40: 20 40              INRW    VV:40
00004B42: 00                 NOP     
00004B43: FE                 JR      $4B42
00004B44: 8B                 CALT    ($0096)
00004B45: 00                 NOP     
00004B46: 06                 illegal 
00004B47: 38                 illegal 
00004B48: C0                 JR      $4B49
00004B49: 00                 NOP     
00004B4A: 30 00              DCRW    VV:00
00004B4C: 46 38              ADI     A,$38
00004B4E: C0                 JR      $4B4F
00004B4F: 06                 illegal 
00004B50: 18                 MOV     EAH,A
00004B51: E0                 JR      $4B32
00004B52: 00                 NOP     
00004B53: 30 46              DCRW    VV:46
00004B55: 38                 illegal 
00004B56: C0                 JR      $4B57
00004B57: 01 15              LDAW    VV:15
00004B59: 80                 CALT    ($0080)
00004B5A: 18                 MOV     EAH,A
00004B5B: 01 81              LDAW    VV:81
00004B5D: 81                 CALT    ($0082)
00004B5E: FF                 JR      $4B5E
00004B5F: 01 41              LDAW    VV:41
00004B61: 01 21              LDAW    VV:21
00004B63: 00                 NOP     
00004B64: 10                 EXA     
00004B65: 00                 NOP     
00004B66: 08                 MOV     A,EAH
00004B67: 00                 NOP     
00004B68: 10                 EXA     
00004B69: 00                 NOP     
00004B6A: 21                 JB      
00004B6B: 01 41              LDAW    VV:41
00004B6D: 01 FF              LDAW    VV:FF
00004B6F: 81                 CALT    ($0082)
00004B70: 81                 CALT    ($0082)
00004B71: 00                 NOP     
00004B72: 00                 NOP     
00004B73: FE                 JR      $4B72
00004B74: 00                 NOP     
00004B75: 00                 NOP     
00004B76: 40 00 20           CALL    $2000
00004B79: 00                 NOP     
00004B7A: 10                 EXA     
00004B7B: 00                 NOP     
00004B7C: 10                 EXA     
00004B7D: 00                 NOP     
00004B7E: 20 00              INRW    VV:00
00004B80: 40 00 00           CALL    $0000
00004B83: FE                 JR      $4B82
00004B84: 00                 NOP     
00004B85: 00                 NOP     
00004B86: 8F                 CALT    ($009E)
00004B87: 8B                 CALT    ($0096)
00004B88: 8B                 CALT    ($0096)
00004B89: 22                 INX     DE
00004B8A: FE                 JR      $4B89
00004B8B: 00                 NOP     
00004B8C: 40 20 10           CALL    $1020
00004B8F: 08                 MOV     A,EAH
00004B90: 04 00 FE           LXI     SP,$FE00
00004B93: 8B                 CALT    ($0096)
00004B94: 00                 NOP     
00004B95: 06                 illegal 
00004B96: 38                 illegal 
00004B97: C0                 JR      $4B98
00004B98: 20 10              INRW    VV:10
00004B9A: 08                 MOV     A,EAH
00004B9B: 06                 illegal 
00004B9C: 38                 illegal 
00004B9D: C0                 JR      $4B9E
00004B9E: 06                 illegal 
00004B9F: 38                 illegal 
00004BA0: C0                 JR      $4BA1
00004BA1: 20 18              INRW    VV:18
00004BA3: 06                 illegal 
00004BA4: 38                 illegal 
00004BA5: C0                 JR      $4BA6
00004BA6: 42                 INR     B
00004BA7: 13                 DCX     BC
00004BA8: 00                 NOP     
00004BA9: D1                 JR      $4BBB
00004BAA: 4B 81              MVIX    HL,$81
00004BAC: 81                 CALT    ($0082)
00004BAD: FF                 JR      $4BAD
00004BAE: 01 41              LDAW    VV:41
00004BB0: 01 21              LDAW    VV:21
00004BB2: 00                 NOP     
00004BB3: 10                 EXA     
00004BB4: 00                 NOP     
00004BB5: 08                 MOV     A,EAH
00004BB6: 00                 NOP     
00004BB7: 84                 CALT    ($0088)
00004BB8: 80                 CALT    ($0080)
00004BB9: 82                 CALT    ($0084)
00004BBA: 80                 CALT    ($0080)
00004BBB: FF                 JR      $4BBB
00004BBC: 80                 CALT    ($0080)
00004BBD: 80                 CALT    ($0080)
00004BBE: 00                 NOP     
00004BBF: 00                 NOP     
00004BC0: FE                 JR      $4BBF
00004BC1: 00                 NOP     
00004BC2: 00                 NOP     
00004BC3: 40 00 20           CALL    $2000
00004BC6: 00                 NOP     
00004BC7: 10                 EXA     
00004BC8: 00                 NOP     
00004BC9: 08                 MOV     A,EAH
00004BCA: 00                 NOP     
00004BCB: 04 00 00           LXI     SP,$0000
00004BCE: FE                 JR      $4BCD
00004BCF: 00                 NOP     
00004BD0: 00                 NOP     
00004BD1: 01 11              LDAW    VV:11
00004BD3: 81                 CALT    ($0082)
00004BD4: 81                 CALT    ($0082)
00004BD5: FF                 JR      $4BD5
00004BD6: 01 41              LDAW    VV:41
00004BD8: 01 21              LDAW    VV:21
00004BDA: 10                 EXA     
00004BDB: 00                 NOP     
00004BDC: 08                 MOV     A,EAH
00004BDD: 84                 CALT    ($0088)
00004BDE: 80                 CALT    ($0080)
00004BDF: 82                 CALT    ($0084)
00004BE0: 80                 CALT    ($0080)
00004BE1: FF                 JR      $4BE1
00004BE2: 80                 CALT    ($0080)
00004BE3: 80                 CALT    ($0080)
00004BE4: 00                 NOP     
00004BE5: 00                 NOP     
00004BE6: FE                 JR      $4BE5
00004BE7: 00                 NOP     
00004BE8: 00                 NOP     
00004BE9: 40 20 00           CALL    $0020
00004BEC: 10                 EXA     
00004BED: 00                 NOP     
00004BEE: 08                 MOV     A,EAH
00004BEF: 04 00 00           LXI     SP,$0000
00004BF2: FE                 JR      $4BF1
00004BF3: 00                 NOP     
00004BF4: 00                 NOP     
00004BF5: 8E                 CALT    ($009C)
00004BF6: 8B                 CALT    ($0096)
00004BF7: 8B                 CALT    ($0096)
00004BF8: 18                 MOV     EAH,A
00004BF9: 7C 82              CALF    $0C82
00004BFB: 82                 CALT    ($0084)
00004BFC: 82                 CALT    ($0084)
00004BFD: 82                 CALT    ($0084)
00004BFE: 82                 CALT    ($0084)
00004BFF: 82                 CALT    ($0084)
00004C00: 82                 CALT    ($0084)
00004C01: 7C 8B              CALF    $0C8B
00004C03: 00                 NOP     
00004C04: 0C                 MOV     A,D
00004C05: 32                 INX     HL
00004C06: 42                 INR     B
00004C07: 82                 CALT    ($0084)
00004C08: 82                 CALT    ($0084)
00004C09: 82                 CALT    ($0084)
00004C0A: 84                 CALT    ($0088)
00004C0B: 98                 CALT    ($00B0)
00004C0C: 60 1C              ORA     D,A
00004C0E: 62                 RETI    
00004C0F: 82                 CALT    ($0084)
00004C10: 82                 CALT    ($0084)
00004C11: 82                 CALT    ($0084)
00004C12: 82                 CALT    ($0084)
00004C13: 8C                 CALT    ($0098)
00004C14: 70 02              illegal 
00004C16: 13                 DCX     BC
00004C17: 84                 CALT    ($0088)
00004C18: 00                 NOP     
00004C19: 41                 INR     A
00004C1A: 18                 MOV     EAH,A
00004C1B: 24 42 00           LXI     DE,$0042
00004C1E: 00                 NOP     
00004C1F: 00                 NOP     
00004C20: 81                 CALT    ($0082)
00004C21: 81                 CALT    ($0082)
00004C22: 81                 CALT    ($0082)
00004C23: 81                 CALT    ($0082)
00004C24: 81                 CALT    ($0082)
00004C25: 81                 CALT    ($0082)
00004C26: 81                 CALT    ($0082)
00004C27: 00                 NOP     
00004C28: 00                 NOP     
00004C29: 00                 NOP     
00004C2A: 42                 INR     B
00004C2B: 24 18 38           LXI     DE,$3818
00004C2E: 44 00 00           LXI     EA,$0000
00004C31: 82                 CALT    ($0084)
00004C32: 00                 NOP     
00004C33: 00                 NOP     
00004C34: 00                 NOP     
00004C35: 00                 NOP     
00004C36: 00                 NOP     
00004C37: 00                 NOP     
00004C38: 00                 NOP     
00004C39: 00                 NOP     
00004C3A: 00                 NOP     
00004C3B: 82                 CALT    ($0084)
00004C3C: 00                 NOP     
00004C3D: 00                 NOP     
00004C3E: 44 38 8E           LXI     EA,$8E38
00004C41: 8B                 CALT    ($0096)
00004C42: 8B                 CALT    ($0096)
00004C43: 18                 MOV     EAH,A
00004C44: FE                 JR      $4C43
00004C45: 90                 CALT    ($00A0)
00004C46: 90                 CALT    ($00A0)
00004C47: 90                 CALT    ($00A0)
00004C48: 90                 CALT    ($00A0)
00004C49: 90                 CALT    ($00A0)
00004C4A: 90                 CALT    ($00A0)
00004C4B: 90                 CALT    ($00A0)
00004C4C: 60 8B              ANA     A,C
00004C4E: 00                 NOP     
00004C4F: 06                 illegal 
00004C50: 18                 MOV     EAH,A
00004C51: 70 90              illegal 
00004C53: 90                 CALT    ($00A0)
00004C54: 90                 CALT    ($00A0)
00004C55: 90                 CALT    ($00A0)
00004C56: 90                 CALT    ($00A0)
00004C57: 60 06              illegal 
00004C59: 38                 illegal 
00004C5A: D0                 JR      $4C6B
00004C5B: 90                 CALT    ($00A0)
00004C5C: 90                 CALT    ($00A0)
00004C5D: 90                 CALT    ($00A0)
00004C5E: 80                 CALT    ($0080)
00004C5F: 60 01              illegal 
00004C61: 14 05 00           LXI     BC,$0005
00004C64: 03                 DCX     SP
00004C65: 00                 NOP     
00004C66: 81                 CALT    ($0082)
00004C67: 81                 CALT    ($0082)
00004C68: 81                 CALT    ($0082)
00004C69: 81                 CALT    ($0082)
00004C6A: FF                 JR      $4C6A
00004C6B: 89                 CALT    ($0092)
00004C6C: 89                 CALT    ($0092)
00004C6D: 89                 CALT    ($0092)
00004C6E: 89                 CALT    ($0092)
00004C6F: 89                 CALT    ($0092)
00004C70: 89                 CALT    ($0092)
00004C71: 88                 CALT    ($0090)
00004C72: 88                 CALT    ($0090)
00004C73: 88                 CALT    ($0090)
00004C74: 88                 CALT    ($0090)
00004C75: 08                 MOV     A,EAH
00004C76: 00                 NOP     
00004C77: 50                 EXH     
00004C78: 20 00              INRW    VV:00
00004C7A: 00                 NOP     
00004C7B: 00                 NOP     
00004C7C: 00                 NOP     
00004C7D: 00                 NOP     
00004C7E: FE                 JR      $4C7D
00004C7F: 00                 NOP     
00004C80: 00                 NOP     
00004C81: 00                 NOP     
00004C82: 00                 NOP     
00004C83: 00                 NOP     
00004C84: 00                 NOP     
00004C85: 00                 NOP     
00004C86: 00                 NOP     
00004C87: 00                 NOP     
00004C88: 00                 NOP     
00004C89: 00                 NOP     
00004C8A: 90                 CALT    ($00A0)
00004C8B: 00                 NOP     
00004C8C: 60 8E              ANA     A,H
00004C8E: 8B                 CALT    ($0096)
00004C8F: 8B                 CALT    ($0096)
00004C90: 18                 MOV     EAH,A
00004C91: 7C 82              CALF    $0C82
00004C93: 82                 CALT    ($0084)
00004C94: 82                 CALT    ($0084)
00004C95: 82                 CALT    ($0084)
00004C96: 8A                 CALT    ($0094)
00004C97: 80                 CALT    ($0080)
00004C98: 84                 CALT    ($0088)
00004C99: 7A 8B              CALF    $0A8B
00004C9B: 00                 NOP     
00004C9C: 1C                 MOV     D,A
00004C9D: 20 42              INRW    VV:42
00004C9F: 02                 INX     SP
00004CA0: 8A                 CALT    ($0094)
00004CA1: 80                 CALT    ($0080)
00004CA2: 84                 CALT    ($0088)
00004CA3: 0A                 MOV     A,B
00004CA4: 70 1C              illegal 
00004CA6: 62                 RETI    
00004CA7: 82                 CALT    ($0084)
00004CA8: 8A                 CALT    ($0094)
00004CA9: 82                 CALT    ($0084)
00004CAA: 84                 CALT    ($0088)
00004CAB: 8A                 CALT    ($0094)
00004CAC: 70 82              illegal 
00004CAE: 14 84 00           LXI     BC,$0084
00004CB1: 41                 INR     A
00004CB2: 00                 NOP     
00004CB3: 01 E0              LDAW    VV:E0
00004CB5: 18                 MOV     EAH,A
00004CB6: 24 42 02           LXI     DE,$0242
00004CB9: 02                 INX     SP
00004CBA: 00                 NOP     
00004CBB: 85                 CALT    ($008A)
00004CBC: 81                 CALT    ($0082)
00004CBD: 81                 CALT    ($0082)
00004CBE: 81                 CALT    ($0082)
00004CBF: 81                 CALT    ($0082)
00004CC0: 81                 CALT    ($0082)
00004CC1: 85                 CALT    ($008A)
00004CC2: 03                 DCX     SP
00004CC3: 01 00              LDAW    VV:00
00004CC5: 42                 INR     B
00004CC6: 24 18 00           LXI     DE,$0018
00004CC9: 00                 NOP     
00004CCA: 00                 NOP     
00004CCB: 00                 NOP     
00004CCC: 38                 illegal 
00004CCD: 44 00 00           LXI     EA,$0000
00004CD0: 82                 CALT    ($0084)
00004CD1: 04 00 00           LXI     SP,$0000
00004CD4: 08                 MOV     A,EAH
00004CD5: 08                 MOV     A,EAH
00004CD6: 08                 MOV     A,EAH
00004CD7: 00                 NOP     
00004CD8: 00                 NOP     
00004CD9: 04 83 00           LXI     SP,$0083
00004CDC: 00                 NOP     
00004CDD: 44 38 01           LXI     EA,$0138
00004CE0: 8E                 CALT    ($009C)
00004CE1: 8B                 CALT    ($0096)
00004CE2: 8B                 CALT    ($0096)
00004CE3: 18                 MOV     EAH,A
00004CE4: FE                 JR      $4CE3
00004CE5: 90                 CALT    ($00A0)
00004CE6: 90                 CALT    ($00A0)
00004CE7: 90                 CALT    ($00A0)
00004CE8: 90                 CALT    ($00A0)
00004CE9: 90                 CALT    ($00A0)
00004CEA: 98                 CALT    ($00B0)
00004CEB: 94                 CALT    ($00A8)
00004CEC: 62                 RETI    
00004CED: 8B                 CALT    ($0096)
00004CEE: 00                 NOP     
00004CEF: 06                 illegal 
00004CF0: 18                 MOV     EAH,A
00004CF1: 70 80              illegal 
00004CF3: 90                 CALT    ($00A0)
00004CF4: 98                 CALT    ($00B0)
00004CF5: 94                 CALT    ($00A8)
00004CF6: 82                 CALT    ($0084)
00004CF7: 60 06              illegal 
00004CF9: 38                 illegal 
00004CFA: D0                 JR      $4D0B
00004CFB: 90                 CALT    ($00A0)
00004CFC: 98                 CALT    ($00B0)
00004CFD: 94                 CALT    ($00A8)
00004CFE: 82                 CALT    ($0084)
00004CFF: 60 02              illegal 
00004D01: 15 85 04           ORIW    VV:85,$04
00004D04: 00                 NOP     
00004D05: 81                 CALT    ($0082)
00004D06: 81                 CALT    ($0082)
00004D07: 81                 CALT    ($0082)
00004D08: 81                 CALT    ($0082)
00004D09: FF                 JR      $4D09
00004D0A: 81                 CALT    ($0082)
00004D0B: 81                 CALT    ($0082)
00004D0C: 81                 CALT    ($0082)
00004D0D: 81                 CALT    ($0082)
00004D0E: 80                 CALT    ($0080)
00004D0F: 80                 CALT    ($0080)
00004D10: 80                 CALT    ($0080)
00004D11: 80                 CALT    ($0080)
00004D12: 88                 CALT    ($0090)
00004D13: 80                 CALT    ($0080)
00004D14: 84                 CALT    ($0088)
00004D15: 12                 INX     BC
00004D16: 01 61              LDAW    VV:61
00004D18: 01 00              LDAW    VV:00
00004D1A: 00                 NOP     
00004D1B: 00                 NOP     
00004D1C: 00                 NOP     
00004D1D: 00                 NOP     
00004D1E: FE                 JR      $4D1D
00004D1F: 10                 EXA     
00004D20: 10                 EXA     
00004D21: 10                 EXA     
00004D22: 10                 EXA     
00004D23: 10                 EXA     
00004D24: 10                 EXA     
00004D25: 10                 EXA     
00004D26: 10                 EXA     
00004D27: 10                 EXA     
00004D28: 18                 MOV     EAH,A
00004D29: 04 82 00           LXI     SP,$0082
00004D2C: 60 00              illegal 
00004D2E: 02                 INX     SP
00004D2F: 8A                 CALT    ($0094)
00004D30: 8B                 CALT    ($0096)
00004D31: 8B                 CALT    ($0096)
00004D32: 18                 MOV     EAH,A
00004D33: 64 92              illegal 
00004D35: 92                 CALT    ($00A4)
00004D36: 92                 CALT    ($00A4)
00004D37: 92                 CALT    ($00A4)
00004D38: 92                 CALT    ($00A4)
00004D39: 92                 CALT    ($00A4)
00004D3A: 92                 CALT    ($00A4)
00004D3B: 4C 8B              illegal 
00004D3D: 22                 INX     DE
00004D3E: 04 62 02           LXI     SP,$0262
00004D41: 92                 CALT    ($00A4)
00004D42: 92                 CALT    ($00A4)
00004D43: 92                 CALT    ($00A4)
00004D44: 80                 CALT    ($0080)
00004D45: 8C                 CALT    ($0098)
00004D46: 40 03 12           CALL    $1203
00004D49: 84                 CALT    ($0088)
00004D4A: 30 00              DCRW    VV:00
00004D4C: 00                 NOP     
00004D4D: 67 00              NEI     A,$00
00004D4F: 12                 INX     BC
00004D50: 00                 NOP     
00004D51: 80                 CALT    ($0080)
00004D52: 81                 CALT    ($0082)
00004D53: 81                 CALT    ($0082)
00004D54: 81                 CALT    ($0082)
00004D55: 81                 CALT    ($0082)
00004D56: 81                 CALT    ($0082)
00004D57: 81                 CALT    ($0082)
00004D58: 81                 CALT    ($0082)
00004D59: 81                 CALT    ($0082)
00004D5A: 01 08              LDAW    VV:08
00004D5C: C0                 JR      $4D5D
00004D5D: 06                 illegal 
00004D5E: 00                 NOP     
00004D5F: 66 00              SUI     A,$00
00004D61: 80                 CALT    ($0080)
00004D62: 02                 INX     SP
00004D63: 10                 EXA     
00004D64: 10                 EXA     
00004D65: 10                 EXA     
00004D66: 10                 EXA     
00004D67: 10                 EXA     
00004D68: 10                 EXA     
00004D69: 10                 EXA     
00004D6A: 10                 EXA     
00004D6B: 10                 EXA     
00004D6C: 80                 CALT    ($0080)
00004D6D: 00                 NOP     
00004D6E: C2                 JR      $4D71
00004D6F: 0C                 MOV     A,D
00004D70: 8A                 CALT    ($0094)
00004D71: 8B                 CALT    ($0096)
00004D72: 8B                 CALT    ($0096)
00004D73: 14 80 80           LXI     BC,$8080
00004D76: 80                 CALT    ($0080)
00004D77: 80                 CALT    ($0080)
00004D78: FE                 JR      $4D77
00004D79: 80                 CALT    ($0080)
00004D7A: 80                 CALT    ($0080)
00004D7B: 80                 CALT    ($0080)
00004D7C: 80                 CALT    ($0080)
00004D7D: 8B                 CALT    ($0096)
00004D7E: 81                 CALT    ($0082)
00004D7F: 80                 CALT    ($0080)
00004D80: 80                 CALT    ($0080)
00004D81: 86                 CALT    ($008C)
00004D82: 98                 CALT    ($00B0)
00004D83: E0                 JR      $4D64
00004D84: 80                 CALT    ($0080)
00004D85: 80                 CALT    ($0080)
00004D86: 80                 CALT    ($0080)
00004D87: 80                 CALT    ($0080)
00004D88: 02                 INX     SP
00004D89: 13                 DCX     BC
00004D8A: 80                 CALT    ($0080)
00004D8B: 28                 illegal 
00004D8C: 01 E0              LDAW    VV:E0
00004D8E: 80                 CALT    ($0080)
00004D8F: 80                 CALT    ($0080)
00004D90: 81                 CALT    ($0082)
00004D91: 81                 CALT    ($0082)
00004D92: 81                 CALT    ($0082)
00004D93: 81                 CALT    ($0082)
00004D94: 81                 CALT    ($0082)
00004D95: 81                 CALT    ($0082)
00004D96: FF                 JR      $4D96
00004D97: 81                 CALT    ($0082)
00004D98: 81                 CALT    ($0082)
00004D99: 81                 CALT    ($0082)
00004D9A: 81                 CALT    ($0082)
00004D9B: 81                 CALT    ($0082)
00004D9C: 81                 CALT    ($0082)
00004D9D: 80                 CALT    ($0080)
00004D9E: 80                 CALT    ($0080)
00004D9F: E0                 JR      $4D80
00004DA0: C0                 JR      $4DA1
00004DA1: 00                 NOP     
00004DA2: 00                 NOP     
00004DA3: 00                 NOP     
00004DA4: 00                 NOP     
00004DA5: 00                 NOP     
00004DA6: 00                 NOP     
00004DA7: 00                 NOP     
00004DA8: 00                 NOP     
00004DA9: FE                 JR      $4DA8
00004DAA: 00                 NOP     
00004DAB: 00                 NOP     
00004DAC: 00                 NOP     
00004DAD: 00                 NOP     
00004DAE: 00                 NOP     
00004DAF: 00                 NOP     
00004DB0: 00                 NOP     
00004DB1: 00                 NOP     
00004DB2: C0                 JR      $4DB3
00004DB3: 8B                 CALT    ($0096)
00004DB4: 8B                 CALT    ($0096)
00004DB5: 8B                 CALT    ($0096)
00004DB6: 18                 MOV     EAH,A
00004DB7: FC                 JR      $4DB4
00004DB8: 02                 INX     SP
00004DB9: 02                 INX     SP
00004DBA: 02                 INX     SP
00004DBB: 02                 INX     SP
00004DBC: 02                 INX     SP
00004DBD: 02                 INX     SP
00004DBE: 02                 INX     SP
00004DBF: FC                 JR      $4DBC
00004DC0: 8B                 CALT    ($0096)
00004DC1: 08                 MOV     A,EAH
00004DC2: 0C                 MOV     A,D
00004DC3: 32                 INX     HL
00004DC4: C2                 JR      $4DC7
00004DC5: 02                 INX     SP
00004DC6: 02                 INX     SP
00004DC7: 02                 INX     SP
00004DC8: 0C                 MOV     A,D
00004DC9: 30 C0              DCRW    VV:C0
00004DCB: 41                 INR     A
00004DCC: 15 00 FA           ORIW    VV:00,$FA
00004DCF: 4D 80              illegal 
00004DD1: 80                 CALT    ($0080)
00004DD2: FC                 JR      $4DCF
00004DD3: 82                 CALT    ($0084)
00004DD4: 80                 CALT    ($0080)
00004DD5: 80                 CALT    ($0080)
00004DD6: 80                 CALT    ($0080)
00004DD7: 01 01              LDAW    VV:01
00004DD9: 01 01              LDAW    VV:01
00004DDB: 01 01              LDAW    VV:01
00004DDD: 01 80              LDAW    VV:80
00004DDF: 80                 CALT    ($0080)
00004DE0: 80                 CALT    ($0080)
00004DE1: 82                 CALT    ($0084)
00004DE2: FC                 JR      $4DDF
00004DE3: 80                 CALT    ($0080)
00004DE4: 80                 CALT    ($0080)
00004DE5: 00                 NOP     
00004DE6: 00                 NOP     
00004DE7: F8                 JR      $4DE0
00004DE8: 04 00 02           LXI     SP,$0200
00004DEB: 00                 NOP     
00004DEC: 00                 NOP     
00004DED: 00                 NOP     
00004DEE: 00                 NOP     
00004DEF: 00                 NOP     
00004DF0: 00                 NOP     
00004DF1: 00                 NOP     
00004DF2: 00                 NOP     
00004DF3: 00                 NOP     
00004DF4: 02                 INX     SP
00004DF5: 00                 NOP     
00004DF6: 04 F8 00           LXI     SP,$00F8
00004DF9: 00                 NOP     
00004DFA: 01 11              LDAW    VV:11
00004DFC: 80                 CALT    ($0080)
00004DFD: 80                 CALT    ($0080)
00004DFE: FC                 JR      $4DFB
00004DFF: 82                 CALT    ($0084)
00004E00: 80                 CALT    ($0080)
00004E01: 00                 NOP     
00004E02: 01 01              LDAW    VV:01
00004E04: 01 01              LDAW    VV:01
00004E06: 01 00              LDAW    VV:00
00004E08: 80                 CALT    ($0080)
00004E09: 82                 CALT    ($0084)
00004E0A: FC                 JR      $4E07
00004E0B: 80                 CALT    ($0080)
00004E0C: 80                 CALT    ($0080)
00004E0D: 00                 NOP     
00004E0E: 00                 NOP     
00004E0F: F8                 JR      $4E08
00004E10: 04 02 00           LXI     SP,$0002
00004E13: 00                 NOP     
00004E14: 00                 NOP     
00004E15: 00                 NOP     
00004E16: 00                 NOP     
00004E17: 00                 NOP     
00004E18: 00                 NOP     
00004E19: 02                 INX     SP
00004E1A: 04 F8 00           LXI     SP,$00F8
00004E1D: 00                 NOP     
00004E1E: AA                 EI      
00004E1F: 8B                 CALT    ($0096)
00004E20: 8B                 CALT    ($0096)
00004E21: 00                 NOP     
00004E22: E0                 JR      $4E03
00004E23: 10                 EXA     
00004E24: 08                 MOV     A,EAH
00004E25: 04 02 04           LXI     SP,$0402
00004E28: 08                 MOV     A,EAH
00004E29: 10                 EXA     
00004E2A: E0                 JR      $4E0B
00004E2B: E0                 JR      $4E0C
00004E2C: 18                 MOV     EAH,A
00004E2D: 04 02 04           LXI     SP,$0402
00004E30: 18                 MOV     EAH,A
00004E31: E0                 JR      $4E12
00004E32: 00                 NOP     
00004E33: 00                 NOP     
00004E34: 9B                 CALT    ($00B6)
00004E35: 20 00              INRW    VV:00
00004E37: FE                 JR      $4E36
00004E38: 00                 NOP     
00004E39: 04 08 10           LXI     SP,$1008
00004E3C: 20 40              INRW    VV:40
00004E3E: 80                 CALT    ($0080)
00004E3F: 01 15              LDAW    VV:15
00004E41: 80                 CALT    ($0080)
00004E42: 18                 MOV     EAH,A
00004E43: 01 80              LDAW    VV:80
00004E45: 80                 CALT    ($0080)
00004E46: 80                 CALT    ($0080)
00004E47: C0                 JR      $4E48
00004E48: A0                 POP     VA
00004E49: 90                 CALT    ($00A0)
00004E4A: 88                 CALT    ($0090)
00004E4B: 04 02 01           LXI     SP,$0102
00004E4E: 00                 NOP     
00004E4F: 01 02              LDAW    VV:02
00004E51: 04 88 90           LXI     SP,$9088
00004E54: A0                 POP     VA
00004E55: C0                 JR      $4E56
00004E56: 80                 CALT    ($0080)
00004E57: 80                 CALT    ($0080)
00004E58: 80                 CALT    ($0080)
00004E59: 00                 NOP     
00004E5A: 00                 NOP     
00004E5B: 80                 CALT    ($0080)
00004E5C: 40 20 10           CALL    $1020
00004E5F: 08                 MOV     A,EAH
00004E60: 04 02 00           LXI     SP,$0002
00004E63: 00                 NOP     
00004E64: 00                 NOP     
00004E65: 02                 INX     SP
00004E66: 04 08 10           LXI     SP,$1008
00004E69: 20 40              INRW    VV:40
00004E6B: 80                 CALT    ($0080)
00004E6C: 00                 NOP     
00004E6D: 00                 NOP     
00004E6E: 8F                 CALT    ($009E)
00004E6F: 8B                 CALT    ($0096)
00004E70: 8B                 CALT    ($0096)
00004E71: 14 FC 02           LXI     BC,$02FC
00004E74: 04 08 38           LXI     SP,$3808
00004E77: 08                 MOV     A,EAH
00004E78: 04 02 FC           LXI     SP,$FC02
00004E7B: 8B                 CALT    ($0096)
00004E7C: 00                 NOP     
00004E7D: 06                 illegal 
00004E7E: 38                 illegal 
00004E7F: C4                 JR      $4E84
00004E80: 08                 MOV     A,EAH
00004E81: 10                 EXA     
00004E82: 08                 MOV     A,EAH
00004E83: 06                 illegal 
00004E84: 38                 illegal 
00004E85: C0                 JR      $4E86
00004E86: 0E                 MOV     A,H
00004E87: 30 C4              DCRW    VV:C4
00004E89: 18                 MOV     EAH,A
00004E8A: 00                 NOP     
00004E8B: 06                 illegal 
00004E8C: 18                 MOV     EAH,A
00004E8D: E0                 JR      $4E6E
00004E8E: 40 17 00           CALL    $0017
00004E91: C1                 JR      $4E93
00004E92: 4E 80              JRE     $4F14
00004E94: 80                 CALT    ($0080)
00004E95: E0                 JR      $4E76
00004E96: 98                 CALT    ($00B0)
00004E97: 84                 CALT    ($0088)
00004E98: 83                 CALT    ($0086)
00004E99: 80                 CALT    ($0080)
00004E9A: 02                 INX     SP
00004E9B: 04 08 10           LXI     SP,$1008
00004E9E: 20 10              INRW    VV:10
00004EA0: 08                 MOV     A,EAH
00004EA1: 04 02 80           LXI     SP,$8002
00004EA4: 83                 CALT    ($0086)
00004EA5: 84                 CALT    ($0088)
00004EA6: 98                 CALT    ($00B0)
00004EA7: E0                 JR      $4E88
00004EA8: 80                 CALT    ($0080)
00004EA9: 80                 CALT    ($0080)
00004EAA: 00                 NOP     
00004EAB: 00                 NOP     
00004EAC: C0                 JR      $4EAD
00004EAD: 30 0C              DCRW    VV:0C
00004EAF: 02                 INX     SP
00004EB0: 00                 NOP     
00004EB1: 04 08 00           LXI     SP,$0008
00004EB4: 10                 EXA     
00004EB5: 20 10              INRW    VV:10
00004EB7: 00                 NOP     
00004EB8: 08                 MOV     A,EAH
00004EB9: 04 00 02           LXI     SP,$0200
00004EBC: 0C                 MOV     A,D
00004EBD: 30 C0              DCRW    VV:C0
00004EBF: 00                 NOP     
00004EC0: 00                 NOP     
00004EC1: 00                 NOP     
00004EC2: 13                 DCX     BC
00004EC3: 80                 CALT    ($0080)
00004EC4: E0                 JR      $4EA5
00004EC5: 98                 CALT    ($00B0)
00004EC6: 87                 CALT    ($008E)
00004EC7: 80                 CALT    ($0080)
00004EC8: 04 00 08           LXI     SP,$0800
00004ECB: 10                 EXA     
00004ECC: 20 10              INRW    VV:10
00004ECE: 08                 MOV     A,EAH
00004ECF: 00                 NOP     
00004ED0: 04 80 87           LXI     SP,$8780
00004ED3: 98                 CALT    ($00B0)
00004ED4: E0                 JR      $4EB5
00004ED5: 80                 CALT    ($0080)
00004ED6: 00                 NOP     
00004ED7: C0                 JR      $4ED8
00004ED8: 38                 illegal 
00004ED9: 06                 illegal 
00004EDA: 04 04 08           LXI     SP,$0804
00004EDD: 10                 EXA     
00004EDE: 00                 NOP     
00004EDF: 20 00              INRW    VV:00
00004EE1: 10                 EXA     
00004EE2: 08                 MOV     A,EAH
00004EE3: 04 04 06           LXI     SP,$0604
00004EE6: 38                 illegal 
00004EE7: C0                 JR      $4EE8
00004EE8: 00                 NOP     
00004EE9: 8F                 CALT    ($009E)
00004EEA: 9A                 CALT    ($00B4)
00004EEB: 9A                 CALT    ($00B4)
00004EEC: 80                 CALT    ($0080)
00004EED: 00                 NOP     
00004EEE: 82                 CALT    ($0084)
00004EEF: 44 28 10           LXI     EA,$1028
00004EF2: 28                 illegal 
00004EF3: 44 82 00           LXI     EA,$0082
00004EF6: 8B                 CALT    ($0096)
00004EF7: 00                 NOP     
00004EF8: 02                 INX     SP
00004EF9: 84                 CALT    ($0088)
00004EFA: 48 20              illegal 
00004EFC: 18                 MOV     EAH,A
00004EFD: 24 02 40           LXI     DE,$4002
00004F00: 80                 CALT    ($0080)
00004F01: 02                 INX     SP
00004F02: 84                 CALT    ($0088)
00004F03: 48 20              illegal 
00004F05: 18                 MOV     EAH,A
00004F06: 24 42 80           LXI     DE,$8042
00004F09: 41                 INR     A
00004F0A: 15 00 38           ORIW    VV:00,$38
00004F0D: 4F 01              JRE     $4E10
00004F0F: 81                 CALT    ($0082)
00004F10: 81                 CALT    ($0082)
00004F11: 81                 CALT    ($0082)
00004F12: 83                 CALT    ($0086)
00004F13: C1                 JR      $4F15
00004F14: 85                 CALT    ($008A)
00004F15: A0                 POP     VA
00004F16: 00                 NOP     
00004F17: 18                 MOV     EAH,A
00004F18: 00                 NOP     
00004F19: 18                 MOV     EAH,A
00004F1A: 00                 NOP     
00004F1B: A0                 POP     VA
00004F1C: 85                 CALT    ($008A)
00004F1D: C1                 JR      $4F1F
00004F1E: 83                 CALT    ($0086)
00004F1F: 81                 CALT    ($0082)
00004F20: 81                 CALT    ($0082)
00004F21: 81                 CALT    ($0082)
00004F22: 01 00              LDAW    VV:00
00004F24: 00                 NOP     
00004F25: 00                 NOP     
00004F26: 02                 INX     SP
00004F27: 80                 CALT    ($0080)
00004F28: 04 40 08           LXI     SP,$0840
00004F2B: 20 00              INRW    VV:00
00004F2D: 10                 EXA     
00004F2E: 00                 NOP     
00004F2F: 20 08              INRW    VV:08
00004F31: 40 04 80           CALL    $8004
00004F34: 02                 INX     SP
00004F35: 00                 NOP     
00004F36: 00                 NOP     
00004F37: 00                 NOP     
00004F38: 00                 NOP     
00004F39: 13                 DCX     BC
00004F3A: 01 81              LDAW    VV:81
00004F3C: 81                 CALT    ($0082)
00004F3D: 81                 CALT    ($0082)
00004F3E: C3                 JR      $4F42
00004F3F: 81                 CALT    ($0082)
00004F40: 25 00 18           GTIW    VV:00,$18
00004F43: 00                 NOP     
00004F44: 18                 MOV     EAH,A
00004F45: 00                 NOP     
00004F46: 25 81 C3           GTIW    VV:81,$C3
00004F49: 81                 CALT    ($0082)
00004F4A: 81                 CALT    ($0082)
00004F4B: 81                 CALT    ($0082)
00004F4C: 01 00              LDAW    VV:00
00004F4E: 00                 NOP     
00004F4F: 00                 NOP     
00004F50: 82                 CALT    ($0084)
00004F51: 00                 NOP     
00004F52: 44 00 28           LXI     EA,$2800
00004F55: 00                 NOP     
00004F56: 10                 EXA     
00004F57: 00                 NOP     
00004F58: 28                 illegal 
00004F59: 00                 NOP     
00004F5A: 44 00 82           LXI     EA,$8200
00004F5D: 00                 NOP     
00004F5E: 00                 NOP     
00004F5F: 00                 NOP     
00004F60: 8F                 CALT    ($009E)
00004F61: 8B                 CALT    ($0096)
00004F62: 8B                 CALT    ($0096)
00004F63: 14 80 40           LXI     BC,$4080
00004F66: 20 10              INRW    VV:10
00004F68: 1E                 MOV     H,A
00004F69: 10                 EXA     
00004F6A: 20 40              INRW    VV:40
00004F6C: 80                 CALT    ($0080)
00004F6D: 8B                 CALT    ($0096)
00004F6E: 00                 NOP     
00004F6F: 80                 CALT    ($0080)
00004F70: 40 26 18           CALL    $1826
00004F73: 00                 NOP     
00004F74: 20 00              INRW    VV:00
00004F76: 40 80 80           CALL    $8080
00004F79: 40 26 18           CALL    $1826
00004F7C: 00                 NOP     
00004F7D: 20 40              INRW    VV:40
00004F7F: 80                 CALT    ($0080)
00004F80: 41                 INR     A
00004F81: 15 00 AF           ORIW    VV:00,$AF
00004F84: 4F 80              JRE     $4F06
00004F86: 80                 CALT    ($0080)
00004F87: 80                 CALT    ($0080)
00004F88: 80                 CALT    ($0080)
00004F89: C0                 JR      $4F8A
00004F8A: 81                 CALT    ($0082)
00004F8B: A1                 POP     BC
00004F8C: 01 11              LDAW    VV:11
00004F8E: 01 0F              LDAW    VV:0F
00004F90: 01 11              LDAW    VV:11
00004F92: 01 A1              LDAW    VV:A1
00004F94: 81                 CALT    ($0082)
00004F95: C0                 JR      $4F96
00004F96: 80                 CALT    ($0080)
00004F97: 80                 CALT    ($0080)
00004F98: 80                 CALT    ($0080)
00004F99: 80                 CALT    ($0080)
00004F9A: 00                 NOP     
00004F9B: 00                 NOP     
00004F9C: 00                 NOP     
00004F9D: 80                 CALT    ($0080)
00004F9E: 00                 NOP     
00004F9F: 40 00 20           CALL    $2000
00004FA2: 00                 NOP     
00004FA3: 10                 EXA     
00004FA4: 0E                 MOV     A,H
00004FA5: 10                 EXA     
00004FA6: 00                 NOP     
00004FA7: 20 00              INRW    VV:00
00004FA9: 40 00 80           CALL    $8000
00004FAC: 00                 NOP     
00004FAD: 00                 NOP     
00004FAE: 00                 NOP     
00004FAF: 00                 NOP     
00004FB0: 13                 DCX     BC
00004FB1: 80                 CALT    ($0080)
00004FB2: 80                 CALT    ($0080)
00004FB3: 80                 CALT    ($0080)
00004FB4: 80                 CALT    ($0080)
00004FB5: C0                 JR      $4FB6
00004FB6: A1                 POP     BC
00004FB7: 81                 CALT    ($0082)
00004FB8: 11                 EXX     
00004FB9: 09                 MOV     A,EAL
00004FBA: 07 09              ANI     A,$09
00004FBC: 11                 EXX     
00004FBD: 81                 CALT    ($0082)
00004FBE: A1                 POP     BC
00004FBF: C0                 JR      $4FC0
00004FC0: 80                 CALT    ($0080)
00004FC1: 80                 CALT    ($0080)
00004FC2: 80                 CALT    ($0080)
00004FC3: 80                 CALT    ($0080)
00004FC4: 00                 NOP     
00004FC5: 00                 NOP     
00004FC6: 00                 NOP     
00004FC7: 80                 CALT    ($0080)
00004FC8: 00                 NOP     
00004FC9: 40 20 00           CALL    $0020
00004FCC: 10                 EXA     
00004FCD: 0E                 MOV     A,H
00004FCE: 10                 EXA     
00004FCF: 00                 NOP     
00004FD0: 20 40              INRW    VV:40
00004FD2: 00                 NOP     
00004FD3: 80                 CALT    ($0080)
00004FD4: 00                 NOP     
00004FD5: 00                 NOP     
00004FD6: 00                 NOP     
00004FD7: 8A                 CALT    ($0094)
00004FD8: 9A                 CALT    ($00B4)
00004FD9: 8B                 CALT    ($0096)
00004FDA: 80                 CALT    ($0080)
00004FDB: 00                 NOP     
00004FDC: 82                 CALT    ($0084)
00004FDD: 86                 CALT    ($008C)
00004FDE: 8A                 CALT    ($0094)
00004FDF: 92                 CALT    ($00A4)
00004FE0: A2                 POP     DE
00004FE1: C2                 JR      $4FE4
00004FE2: 82                 CALT    ($0084)
00004FE3: 00                 NOP     
00004FE4: 8B                 CALT    ($0096)
00004FE5: 24 02 06           LXI     DE,$0602
00004FE8: 82                 CALT    ($0084)
00004FE9: 8A                 CALT    ($0094)
00004FEA: 92                 CALT    ($00A4)
00004FEB: 82                 CALT    ($0084)
00004FEC: A2                 POP     DE
00004FED: C0                 JR      $4FEE
00004FEE: 80                 CALT    ($0080)
00004FEF: 23                 DCX     DE
00004FF0: 11                 EXX     
00004FF1: 80                 CALT    ($0080)
00004FF2: 82                 CALT    ($0084)
00004FF3: 01 01              LDAW    VV:01
00004FF5: 41                 INR     A
00004FF6: 83                 CALT    ($0086)
00004FF7: 81                 CALT    ($0082)
00004FF8: 85                 CALT    ($008A)
00004FF9: 81                 CALT    ($0082)
00004FFA: 81                 CALT    ($0082)
00004FFB: 89                 CALT    ($0092)
00004FFC: 81                 CALT    ($0082)
00004FFD: 91                 CALT    ($00A2)
00004FFE: 81                 CALT    ($0082)
00004FFF: 81                 CALT    ($0082)
00005000: A1                 POP     BC
00005001: 81                 CALT    ($0082)
00005002: C1                 JR      $5004
00005003: 81                 CALT    ($0082)
00005004: 87                 CALT    ($008E)
00005005: 00                 NOP     
00005006: C2                 JR      $5009
00005007: 00                 NOP     
00005008: 04 00 00           LXI     SP,$0000
0000500B: 08                 MOV     A,EAH
0000500C: 00                 NOP     
0000500D: 10                 EXA     
0000500E: 00                 NOP     
0000500F: 20 00              INRW    VV:00
00005011: 00                 NOP     
00005012: 40 00 80           CALL    $8000
00005015: 06                 illegal 
00005016: 8A                 CALT    ($0094)
00005017: A9                 DCX     EA
00005018: A9                 DCX     EA
00005019: 80                 CALT    ($0080)
0000501A: 00                 NOP     
0000501B: 00                 NOP     
0000501C: FF                 JR      $501C
0000501D: 81                 CALT    ($0082)
0000501E: 81                 CALT    ($0082)
0000501F: 81                 CALT    ($0082)
00005020: 81                 CALT    ($0082)
00005021: 00                 NOP     
00005022: 00                 NOP     
00005023: 9B                 CALT    ($00B6)
00005024: 80                 CALT    ($0080)
00005025: 00                 NOP     
00005026: 03                 DCX     SP
00005027: 0D                 MOV     A,E
00005028: 31                 BLOCK   
00005029: C1                 JR      $502B
0000502A: 81                 CALT    ($0082)
0000502B: 80                 CALT    ($0080)
0000502C: 80                 CALT    ($0080)
0000502D: 80                 CALT    ($0080)
0000502E: 88                 CALT    ($0090)
0000502F: 09                 MOV     A,EAL
00005030: C0                 JR      $5031
00005031: 00                 NOP     
00005032: 03                 DCX     SP
00005033: FF                 JR      $5033
00005034: 80                 CALT    ($0080)
00005035: 00                 NOP     
00005036: FF                 JR      $5036
00005037: 80                 CALT    ($0080)
00005038: 80                 CALT    ($0080)
00005039: 80                 CALT    ($0080)
0000503A: 80                 CALT    ($0080)
0000503B: 80                 CALT    ($0080)
0000503C: 80                 CALT    ($0080)
0000503D: 80                 CALT    ($0080)
0000503E: 80                 CALT    ($0080)
0000503F: 00                 NOP     
00005040: 00                 NOP     
00005041: 00                 NOP     
00005042: FF                 JR      $5042
00005043: 00                 NOP     
00005044: 00                 NOP     
00005045: 00                 NOP     
00005046: 00                 NOP     
00005047: 00                 NOP     
00005048: 00                 NOP     
00005049: 00                 NOP     
0000504A: 00                 NOP     
0000504B: 8A                 CALT    ($0094)
0000504C: 9A                 CALT    ($00B4)
0000504D: 9A                 CALT    ($00B4)
0000504E: 80                 CALT    ($0080)
0000504F: 00                 NOP     
00005050: 80                 CALT    ($0080)
00005051: 40 20 10           CALL    $1020
00005054: 08                 MOV     A,EAH
00005055: 04 02 00           LXI     SP,$0002
00005058: A8                 INX     EA
00005059: 00                 NOP     
0000505A: 00                 NOP     
0000505B: 00                 NOP     
0000505C: C0                 JR      $505D
0000505D: 30 0C              DCRW    VV:0C
0000505F: 03                 DCX     SP
00005060: 00                 NOP     
00005061: 00                 NOP     
00005062: 00                 NOP     
00005063: A2                 POP     DE
00005064: 14 81 01           LXI     BC,$0181
00005067: 01 00              LDAW    VV:00
00005069: 00                 NOP     
0000506A: 20 80              INRW    VV:80
0000506C: 00                 NOP     
0000506D: 40 00 20           CALL    $2000
00005070: 00                 NOP     
00005071: 00                 NOP     
00005072: 10                 EXA     
00005073: 00                 NOP     
00005074: 08                 MOV     A,EAH
00005075: 00                 NOP     
00005076: 04 00 00           LXI     SP,$0000
00005079: 02                 INX     SP
0000507A: 00                 NOP     
0000507B: 01 00              LDAW    VV:00
0000507D: 00                 NOP     
0000507E: 00                 NOP     
0000507F: 00                 NOP     
00005080: 00                 NOP     
00005081: 10                 EXA     
00005082: 00                 NOP     
00005083: 80                 CALT    ($0080)
00005084: 00                 NOP     
00005085: 40 00 00           CALL    $0000
00005088: 20 00              INRW    VV:00
0000508A: 10                 EXA     
0000508B: 00                 NOP     
0000508C: 08                 MOV     A,EAH
0000508D: 00                 NOP     
0000508E: 04 00 00           LXI     SP,$0000
00005091: 02                 INX     SP
00005092: 00                 NOP     
00005093: 01 00              LDAW    VV:00
00005095: 00                 NOP     
00005096: 8A                 CALT    ($0094)
00005097: A9                 DCX     EA
00005098: A9                 DCX     EA
00005099: 80                 CALT    ($0080)
0000509A: 00                 NOP     
0000509B: 00                 NOP     
0000509C: 81                 CALT    ($0082)
0000509D: 81                 CALT    ($0082)
0000509E: 81                 CALT    ($0082)
0000509F: 81                 CALT    ($0082)
000050A0: FF                 JR      $50A0
000050A1: 00                 NOP     
000050A2: 00                 NOP     
000050A3: 8A                 CALT    ($0094)
000050A4: 00                 NOP     
000050A5: 01 01              LDAW    VV:01
000050A7: 01 81              LDAW    VV:81
000050A9: 83                 CALT    ($0086)
000050AA: 8C                 CALT    ($0098)
000050AB: B0                 PUSH    VA
000050AC: C0                 JR      $50AD
000050AD: 00                 NOP     
000050AE: 87                 CALT    ($008E)
000050AF: 09                 MOV     A,EAL
000050B0: C0                 JR      $50B1
000050B1: 00                 NOP     
000050B2: 03                 DCX     SP
000050B3: FF                 JR      $50B3
000050B4: 80                 CALT    ($0080)
000050B5: 00                 NOP     
000050B6: 80                 CALT    ($0080)
000050B7: 80                 CALT    ($0080)
000050B8: 80                 CALT    ($0080)
000050B9: 80                 CALT    ($0080)
000050BA: 80                 CALT    ($0080)
000050BB: 80                 CALT    ($0080)
000050BC: 80                 CALT    ($0080)
000050BD: 80                 CALT    ($0080)
000050BE: FF                 JR      $50BE
000050BF: 00                 NOP     
000050C0: 00                 NOP     
000050C1: 00                 NOP     
000050C2: 00                 NOP     
000050C3: 00                 NOP     
000050C4: 00                 NOP     
000050C5: 00                 NOP     
000050C6: 00                 NOP     
000050C7: 00                 NOP     
000050C8: 00                 NOP     
000050C9: 00                 NOP     
000050CA: FF                 JR      $50CA
000050CB: 8A                 CALT    ($0094)
000050CC: 8B                 CALT    ($0096)
000050CD: 8B                 CALT    ($0096)
000050CE: 41                 INR     A
000050CF: 20 00              INRW    VV:00
000050D1: 40 00 80           CALL    $8000
000050D4: 00                 NOP     
000050D5: 40 00 20           CALL    $2000
000050D8: 9A                 CALT    ($00B4)
000050D9: 00                 NOP     
000050DA: 00                 NOP     
000050DB: 20 00              INRW    VV:00
000050DD: 40 00 80           CALL    $8000
000050E0: 40 20 00           CALL    $0020
000050E3: 06                 illegal 
000050E4: 0B                 MOV     A,C
000050E5: C0                 JR      $50E6
000050E6: 00                 NOP     
000050E7: 03                 DCX     SP
000050E8: 40 00 00           CALL    $0000
000050EB: 00                 NOP     
000050EC: 80                 CALT    ($0080)
000050ED: 80                 CALT    ($0080)
000050EE: 80                 CALT    ($0080)
000050EF: 00                 NOP     
000050F0: 00                 NOP     
000050F1: 00                 NOP     
000050F2: 40 00 00           CALL    $0000
000050F5: 80                 CALT    ($0080)
000050F6: 00                 NOP     
000050F7: 00                 NOP     
000050F8: 00                 NOP     
000050F9: 00                 NOP     
000050FA: 00                 NOP     
000050FB: 80                 CALT    ($0080)
000050FC: 00                 NOP     
000050FD: 00                 NOP     
000050FE: 40 0B C0           CALL    $C00B
00005101: 01 01              LDAW    VV:01
00005103: 01 01              LDAW    VV:01
00005105: 01 01              LDAW    VV:01
00005107: 01 01              LDAW    VV:01
00005109: 01 01              LDAW    VV:01
0000510B: 01 8A              LDAW    VV:8A
0000510D: B7                 DMOV    HL,EA
0000510E: B8                 RET     
0000510F: 80                 CALT    ($0080)
00005110: 00                 NOP     
00005111: 00                 NOP     
00005112: 00                 NOP     
00005113: 80                 CALT    ($0080)
00005114: 40 00 00           CALL    $0000
00005117: 00                 NOP     
00005118: 00                 NOP     
00005119: C8                 JR      $5122
0000511A: 00                 NOP     
0000511B: 00                 NOP     
0000511C: 00                 NOP     
0000511D: 00                 NOP     
0000511E: 00                 NOP     
0000511F: 80                 CALT    ($0080)
00005120: 40 00 00           CALL    $0000
00005123: 00                 NOP     
00005124: 08                 MOV     A,EAH
00005125: 07 C0              ANI     A,$C0
00005127: 00                 NOP     
00005128: 03                 DCX     SP
00005129: 80                 CALT    ($0080)
0000512A: 80                 CALT    ($0080)
0000512B: 80                 CALT    ($0080)
0000512C: 00                 NOP     
0000512D: 00                 NOP     
0000512E: 00                 NOP     
0000512F: 40 00 00           CALL    $0000
00005132: 80                 CALT    ($0080)
00005133: 80                 CALT    ($0080)
00005134: 80                 CALT    ($0080)
00005135: 00                 NOP     
00005136: 00                 NOP     
00005137: 8A                 CALT    ($0094)
00005138: 8B                 CALT    ($0096)
00005139: 8B                 CALT    ($0096)
0000513A: 18                 MOV     EAH,A
0000513B: 04 0A 2A           LXI     SP,$2A0A
0000513E: 2A                 LDAX    (DE)
0000513F: 2A                 LDAX    (DE)
00005140: 2A                 LDAX    (DE)
00005141: 28                 illegal 
00005142: 1C                 MOV     D,A
00005143: 02                 INX     SP
00005144: 8A                 CALT    ($0094)
00005145: 00                 NOP     
00005146: 04 0A 2A           LXI     SP,$2A0A
00005149: 2A                 LDAX    (DE)
0000514A: 2A                 LDAX    (DE)
0000514B: 2A                 LDAX    (DE)
0000514C: 2C                 LDAX    (DE+)
0000514D: 1A                 MOV     B,A
0000514E: 00                 NOP     
0000514F: 02                 INX     SP
00005150: 14 80 30           LXI     BC,$3080
00005153: 01 00              LDAW    VV:00
00005155: 02                 INX     SP
00005156: 04 10 11           LXI     SP,$1110
00005159: 11                 EXX     
0000515A: 01 01              LDAW    VV:01
0000515C: 01 01              LDAW    VV:01
0000515E: 01 01              LDAW    VV:01
00005160: 01 00              LDAW    VV:00
00005162: 10                 EXA     
00005163: 0E                 MOV     A,H
00005164: 00                 NOP     
00005165: 01 01              LDAW    VV:01
00005167: 01 00              LDAW    VV:00
00005169: 04 02 08           LXI     SP,$0802
0000516C: 28                 illegal 
0000516D: 28                 illegal 
0000516E: 28                 illegal 
0000516F: 28                 illegal 
00005170: 28                 illegal 
00005171: 28                 illegal 
00005172: 28                 illegal 
00005173: 28                 illegal 
00005174: 28                 illegal 
00005175: 08                 MOV     A,EAH
00005176: 0A                 MOV     A,B
00005177: 1C                 MOV     D,A
00005178: 02                 INX     SP
00005179: 00                 NOP     
0000517A: 00                 NOP     
0000517B: 00                 NOP     
0000517C: 8A                 CALT    ($0094)
0000517D: 9B                 CALT    ($00B6)
0000517E: 9B                 CALT    ($00B6)
0000517F: 18                 MOV     EAH,A
00005180: 00                 NOP     
00005181: FE                 JR      $5180
00005182: 22                 INX     DE
00005183: 22                 INX     DE
00005184: 22                 INX     DE
00005185: 22                 INX     DE
00005186: 22                 INX     DE
00005187: 22                 INX     DE
00005188: 1C                 MOV     D,A
00005189: 8A                 CALT    ($0094)
0000518A: 80                 CALT    ($0080)
0000518B: 00                 NOP     
0000518C: 06                 illegal 
0000518D: 1A                 MOV     B,A
0000518E: E2                 JR      $5171
0000518F: 22                 INX     DE
00005190: 22                 INX     DE
00005191: 20 24              INRW    VV:24
00005193: 18                 MOV     EAH,A
00005194: 01 16              LDAW    VV:16
00005196: 80                 CALT    ($0080)
00005197: 30 01              DCRW    VV:01
00005199: 80                 CALT    ($0080)
0000519A: 80                 CALT    ($0080)
0000519B: 80                 CALT    ($0080)
0000519C: 80                 CALT    ($0080)
0000519D: FF                 JR      $519D
0000519E: 00                 NOP     
0000519F: 02                 INX     SP
000051A0: 10                 EXA     
000051A1: 00                 NOP     
000051A2: 01 01              LDAW    VV:01
000051A4: 01 01              LDAW    VV:01
000051A6: 01 01              LDAW    VV:01
000051A8: 01 00              LDAW    VV:00
000051AA: 10                 EXA     
000051AB: 02                 INX     SP
000051AC: 0C                 MOV     A,D
000051AD: 00                 NOP     
000051AE: 00                 NOP     
000051AF: 00                 NOP     
000051B0: 00                 NOP     
000051B1: 00                 NOP     
000051B2: 00                 NOP     
000051B3: FE                 JR      $51B2
000051B4: 00                 NOP     
000051B5: 10                 EXA     
000051B6: 02                 INX     SP
000051B7: 00                 NOP     
000051B8: 20 20              INRW    VV:20
000051BA: 20 20              INRW    VV:20
000051BC: 20 20              INRW    VV:20
000051BE: 20 00              INRW    VV:00
000051C0: 02                 INX     SP
000051C1: 10                 EXA     
000051C2: 0C                 MOV     A,D
000051C3: 00                 NOP     
000051C4: 00                 NOP     
000051C5: 8A                 CALT    ($0094)
000051C6: 9B                 CALT    ($00B6)
000051C7: 9B                 CALT    ($00B6)
000051C8: 18                 MOV     EAH,A
000051C9: 00                 NOP     
000051CA: 1C                 MOV     D,A
000051CB: 22                 INX     DE
000051CC: 22                 INX     DE
000051CD: 22                 INX     DE
000051CE: 22                 INX     DE
000051CF: 22                 INX     DE
000051D0: 22                 INX     DE
000051D1: 22                 INX     DE
000051D2: 8A                 CALT    ($0094)
000051D3: 80                 CALT    ($0080)
000051D4: 00                 NOP     
000051D5: 0C                 MOV     A,D
000051D6: 10                 EXA     
000051D7: 02                 INX     SP
000051D8: 22                 INX     DE
000051D9: 22                 INX     DE
000051DA: 22                 INX     DE
000051DB: 22                 INX     DE
000051DC: 20 03              INRW    VV:03
000051DE: 11                 EXX     
000051DF: 80                 CALT    ($0080)
000051E0: 30 01              DCRW    VV:01
000051E2: 0C                 MOV     A,D
000051E3: 02                 INX     SP
000051E4: 10                 EXA     
000051E5: 00                 NOP     
000051E6: 01 01              LDAW    VV:01
000051E8: 01 01              LDAW    VV:01
000051EA: 01 01              LDAW    VV:01
000051EC: 01 01              LDAW    VV:01
000051EE: 01 00              LDAW    VV:00
000051F0: 10                 EXA     
000051F1: 08                 MOV     A,EAH
000051F2: 02                 INX     SP
000051F3: 0C                 MOV     A,D
000051F4: 10                 EXA     
000051F5: 02                 INX     SP
000051F6: 00                 NOP     
000051F7: 20 20              INRW    VV:20
000051F9: 20 20              INRW    VV:20
000051FB: 20 20              INRW    VV:20
000051FD: 20 20              INRW    VV:20
000051FF: 20 00              INRW    VV:00
00005201: 12                 INX     BC
00005202: 00                 NOP     
00005203: 10                 EXA     
00005204: 8E                 CALT    ($009C)
00005205: 8A                 CALT    ($0094)
00005206: 8A                 CALT    ($0094)
00005207: 18                 MOV     EAH,A
00005208: 1C                 MOV     D,A
00005209: 22                 INX     DE
0000520A: 22                 INX     DE
0000520B: 22                 INX     DE
0000520C: 22                 INX     DE
0000520D: 22                 INX     DE
0000520E: 22                 INX     DE
0000520F: FE                 JR      $520E
00005210: 00                 NOP     
00005211: 8B                 CALT    ($0096)
00005212: 00                 NOP     
00005213: 0C                 MOV     A,D
00005214: 10                 EXA     
00005215: 02                 INX     SP
00005216: 22                 INX     DE
00005217: 22                 INX     DE
00005218: 22                 INX     DE
00005219: 26 38              ADINC   A,$38
0000521B: C0                 JR      $521C
0000521C: 0C                 MOV     A,D
0000521D: 12                 INX     BC
0000521E: 22                 INX     DE
0000521F: 22                 INX     DE
00005220: 22                 INX     DE
00005221: 26 38              ADINC   A,$38
00005223: C0                 JR      $5224
00005224: 02                 INX     SP
00005225: 14 80 30           LXI     BC,$3080
00005228: 01 00              LDAW    VV:00
0000522A: 0C                 MOV     A,D
0000522B: 02                 INX     SP
0000522C: 10                 EXA     
0000522D: 00                 NOP     
0000522E: 01 01              LDAW    VV:01
00005230: 01 01              LDAW    VV:01
00005232: 01 01              LDAW    VV:01
00005234: 01 80              LDAW    VV:80
00005236: 90                 CALT    ($00A0)
00005237: 82                 CALT    ($0084)
00005238: 80                 CALT    ($0080)
00005239: FE                 JR      $5238
0000523A: 01 01              LDAW    VV:01
0000523C: 01 00              LDAW    VV:00
0000523E: 0C                 MOV     A,D
0000523F: 10                 EXA     
00005240: 02                 INX     SP
00005241: 00                 NOP     
00005242: 20 20              INRW    VV:20
00005244: 20 20              INRW    VV:20
00005246: 20 20              INRW    VV:20
00005248: 20 00              INRW    VV:00
0000524A: 02                 INX     SP
0000524B: 10                 EXA     
0000524C: 00                 NOP     
0000524D: FE                 JR      $524C
0000524E: 00                 NOP     
0000524F: 00                 NOP     
00005250: 00                 NOP     
00005251: 8A                 CALT    ($0094)
00005252: 8B                 CALT    ($0096)
00005253: 8B                 CALT    ($0096)
00005254: 18                 MOV     EAH,A
00005255: 1C                 MOV     D,A
00005256: 2A                 LDAX    (DE)
00005257: 2A                 LDAX    (DE)
00005258: 2A                 LDAX    (DE)
00005259: 2A                 LDAX    (DE)
0000525A: 2A                 LDAX    (DE)
0000525B: 2A                 LDAX    (DE)
0000525C: 2A                 LDAX    (DE)
0000525D: 18                 MOV     EAH,A
0000525E: 8A                 CALT    ($0094)
0000525F: 00                 NOP     
00005260: 0C                 MOV     A,D
00005261: 1A                 MOV     B,A
00005262: 2A                 LDAX    (DE)
00005263: 2A                 LDAX    (DE)
00005264: 2A                 LDAX    (DE)
00005265: 2A                 LDAX    (DE)
00005266: 28                 illegal 
00005267: 10                 EXA     
00005268: 00                 NOP     
00005269: 03                 DCX     SP
0000526A: 11                 EXX     
0000526B: 80                 CALT    ($0080)
0000526C: 30 01              DCRW    VV:01
0000526E: 0C                 MOV     A,D
0000526F: 02                 INX     SP
00005270: 10                 EXA     
00005271: 00                 NOP     
00005272: 01 01              LDAW    VV:01
00005274: 01 01              LDAW    VV:01
00005276: 01 01              LDAW    VV:01
00005278: 01 01              LDAW    VV:01
0000527A: 01 00              LDAW    VV:00
0000527C: 10                 EXA     
0000527D: 00                 NOP     
0000527E: 0A                 MOV     A,B
0000527F: 0C                 MOV     A,D
00005280: 18                 MOV     EAH,A
00005281: 0A                 MOV     A,B
00005282: 08                 MOV     A,EAH
00005283: 28                 illegal 
00005284: 28                 illegal 
00005285: 28                 illegal 
00005286: 28                 illegal 
00005287: 28                 illegal 
00005288: 28                 illegal 
00005289: 28                 illegal 
0000528A: 28                 illegal 
0000528B: 28                 illegal 
0000528C: 08                 MOV     A,EAH
0000528D: 0A                 MOV     A,B
0000528E: 18                 MOV     EAH,A
0000528F: 08                 MOV     A,EAH
00005290: 8A                 CALT    ($0094)
00005291: 9A                 CALT    ($00B4)
00005292: 8B                 CALT    ($0096)
00005293: 80                 CALT    ($0080)
00005294: 00                 NOP     
00005295: 20 20              INRW    VV:20
00005297: 20 7E              INRW    VV:7E
00005299: A0                 POP     VA
0000529A: A0                 POP     VA
0000529B: A0                 POP     VA
0000529C: 00                 NOP     
0000529D: 8B                 CALT    ($0096)
0000529E: 80                 CALT    ($0080)
0000529F: 00                 NOP     
000052A0: 20 26              INRW    VV:26
000052A2: 38                 illegal 
000052A3: 60 20              ADDNC   V,A
000052A5: A0                 POP     VA
000052A6: A0                 POP     VA
000052A7: 80                 CALT    ($0080)
000052A8: 24 12 80           LXI     DE,$8012
000052AB: 88                 CALT    ($0090)
000052AC: 20 01              INRW    VV:01
000052AE: 01 01              LDAW    VV:01
000052B0: 01 01              LDAW    VV:01
000052B2: 01 7F              LDAW    VV:7F
000052B4: 01 01              LDAW    VV:01
000052B6: 81                 CALT    ($0082)
000052B7: 81                 CALT    ($0082)
000052B8: 81                 CALT    ($0082)
000052B9: 81                 CALT    ($0082)
000052BA: 81                 CALT    ($0082)
000052BB: 81                 CALT    ($0082)
000052BC: 81                 CALT    ($0082)
000052BD: 80                 CALT    ($0080)
000052BE: 00                 NOP     
000052BF: 20 20              INRW    VV:20
000052C1: 20 20              INRW    VV:20
000052C3: 20 20              INRW    VV:20
000052C5: 7E A0              CALF    $0EA0
000052C7: 20 20              INRW    VV:20
000052C9: 20 20              INRW    VV:20
000052CB: 20 20              INRW    VV:20
000052CD: 20 A0              INRW    VV:A0
000052CF: 80                 CALT    ($0080)
000052D0: 80                 CALT    ($0080)
000052D1: 8A                 CALT    ($0094)
000052D2: 0A                 MOV     A,B
000052D3: 0A                 MOV     A,B
000052D4: 18                 MOV     EAH,A
000052D5: 38                 illegal 
000052D6: 44 45 45           LXI     EA,$4545
000052D9: 45 45 45           ONIW    VV:45,$45
000052DC: 7E 00              CALF    $0E00
000052DE: 0A                 MOV     A,B
000052DF: 00                 NOP     
000052E0: 19                 MOV     EAL,A
000052E1: 25 05 45           GTIW    VV:05,$45
000052E4: 45 46 58           ONIW    VV:46,$58
000052E7: 60 00              illegal 
000052E9: 83                 CALT    ($0086)
000052EA: 13                 DCX     BC
000052EB: 80                 CALT    ($0080)
000052EC: 30 01              DCRW    VV:01
000052EE: 80                 CALT    ($0080)
000052EF: 00                 NOP     
000052F0: 40 00 03           CALL    $0300
000052F3: 0C                 MOV     A,D
000052F4: 10                 EXA     
000052F5: 00                 NOP     
000052F6: 04 04 04           LXI     SP,$0404
000052F9: 04 04 04           LXI     SP,$0404
000052FC: 04 04 04           LXI     SP,$0404
000052FF: 10                 EXA     
00005300: 28                 illegal 
00005301: 20 21              INRW    VV:21
00005303: 00                 NOP     
00005304: 7F FF              CALF    $0FFF
00005306: 00                 NOP     
00005307: 01 04              LDAW    VV:04
00005309: 10                 EXA     
0000530A: 0A                 MOV     A,B
0000530B: 02                 INX     SP
0000530C: 22                 INX     DE
0000530D: 22                 INX     DE
0000530E: 22                 INX     DE
0000530F: 22                 INX     DE
00005310: 22                 INX     DE
00005311: 22                 INX     DE
00005312: 22                 INX     DE
00005313: 22                 INX     DE
00005314: 22                 INX     DE
00005315: 0A                 MOV     A,B
00005316: 12                 INX     BC
00005317: 00                 NOP     
00005318: 01 20              LDAW    VV:20
0000531A: 8A                 CALT    ($0094)
0000531B: 9B                 CALT    ($00B6)
0000531C: 8B                 CALT    ($0096)
0000531D: 18                 MOV     EAH,A
0000531E: 00                 NOP     
0000531F: FE                 JR      $531E
00005320: 20 20              INRW    VV:20
00005322: 20 20              INRW    VV:20
00005324: 20 20              INRW    VV:20
00005326: 1E                 MOV     H,A
00005327: 8A                 CALT    ($0094)
00005328: 80                 CALT    ($0080)
00005329: 00                 NOP     
0000532A: 06                 illegal 
0000532B: 18                 MOV     EAH,A
0000532C: E0                 JR      $530D
0000532D: 20 20              INRW    VV:20
0000532F: 20 26              INRW    VV:26
00005331: 18                 MOV     EAH,A
00005332: 01 15              LDAW    VV:15
00005334: 80                 CALT    ($0080)
00005335: 30 01              DCRW    VV:01
00005337: 80                 CALT    ($0080)
00005338: 81                 CALT    ($0082)
00005339: 81                 CALT    ($0082)
0000533A: 81                 CALT    ($0082)
0000533B: FF                 JR      $533B
0000533C: 01 01              LDAW    VV:01
0000533E: 11                 EXX     
0000533F: 00                 NOP     
00005340: 00                 NOP     
00005341: 00                 NOP     
00005342: 00                 NOP     
00005343: 00                 NOP     
00005344: 00                 NOP     
00005345: 01 01              LDAW    VV:01
00005347: 11                 EXX     
00005348: 0F                 MOV     A,L
00005349: 01 01              LDAW    VV:01
0000534B: 01 00              LDAW    VV:00
0000534D: 00                 NOP     
0000534E: 00                 NOP     
0000534F: 00                 NOP     
00005350: FE                 JR      $534F
00005351: 00                 NOP     
00005352: 10                 EXA     
00005353: 00                 NOP     
00005354: 00                 NOP     
00005355: 20 20              INRW    VV:20
00005357: 20 20              INRW    VV:20
00005359: 20 20              INRW    VV:20
0000535B: 20 00              INRW    VV:00
0000535D: 1E                 MOV     H,A
0000535E: 00                 NOP     
0000535F: 00                 NOP     
00005360: 00                 NOP     
00005361: 8A                 CALT    ($0094)
00005362: 98                 CALT    ($00B0)
00005363: 98                 CALT    ($00B0)
00005364: 41                 INR     A
00005365: 00                 NOP     
00005366: 02                 INX     SP
00005367: 22                 INX     DE
00005368: 22                 INX     DE
00005369: BE                 STAX    (HL+EA)
0000536A: 82                 CALT    ($0084)
0000536B: 02                 INX     SP
0000536C: 02                 INX     SP
0000536D: 00                 NOP     
0000536E: 99                 CALT    ($00B2)
0000536F: 00                 NOP     
00005370: 00                 NOP     
00005371: 02                 INX     SP
00005372: 02                 INX     SP
00005373: 26 3A              ADINC   A,$3A
00005375: 22                 INX     DE
00005376: 80                 CALT    ($0080)
00005377: 00                 NOP     
00005378: 00                 NOP     
00005379: 25 0F 84           GTIW    VV:0F,$84
0000537C: 00                 NOP     
0000537D: 11                 EXX     
0000537E: 01 01              LDAW    VV:01
00005380: 01 01              LDAW    VV:01
00005382: 01 01              LDAW    VV:01
00005384: C1                 JR      $5386
00005385: 1F                 MOV     L,A
00005386: 01 01              LDAW    VV:01
00005388: 01 01              LDAW    VV:01
0000538A: 01 01              LDAW    VV:01
0000538C: 01 00              LDAW    VV:00
0000538E: 20 20              INRW    VV:20
00005390: 20 20              INRW    VV:20
00005392: A0                 POP     VA
00005393: 20 BE              INRW    VV:BE
00005395: 00                 NOP     
00005396: 00                 NOP     
00005397: 00                 NOP     
00005398: 00                 NOP     
00005399: 00                 NOP     
0000539A: 00                 NOP     
0000539B: 00                 NOP     
0000539C: 8A                 CALT    ($0094)
0000539D: 88                 CALT    ($0090)
0000539E: 87                 CALT    ($008E)
0000539F: 80                 CALT    ($0080)
000053A0: 01 01              LDAW    VV:01
000053A2: 01 21              LDAW    VV:21
000053A4: 21                 JB      
000053A5: BE                 STAX    (HL+EA)
000053A6: 80                 CALT    ($0080)
000053A7: 00                 NOP     
000053A8: 00                 NOP     
000053A9: 89                 CALT    ($0092)
000053AA: 00                 NOP     
000053AB: 01 01              LDAW    VV:01
000053AD: 01 00              LDAW    VV:00
000053AF: 26 38              ADINC   A,$38
000053B1: A0                 POP     VA
000053B2: 00                 NOP     
000053B3: 00                 NOP     
000053B4: 83                 CALT    ($0086)
000053B5: 0D                 MOV     A,E
000053B6: 80                 CALT    ($0080)
000053B7: 30 01              DCRW    VV:01
000053B9: 40 20 00           CALL    $0020
000053BC: 01 00              LDAW    VV:00
000053BE: 01 00              LDAW    VV:00
000053C0: 00                 NOP     
000053C1: 00                 NOP     
000053C2: 00                 NOP     
000053C3: 00                 NOP     
000053C4: 00                 NOP     
000053C5: 00                 NOP     
000053C6: 00                 NOP     
000053C7: C1                 JR      $53C9
000053C8: 1E                 MOV     H,A
000053C9: 3F                 STAX    (HL-)
000053CA: 80                 CALT    ($0080)
000053CB: 00                 NOP     
000053CC: 01 02              LDAW    VV:02
000053CE: 00                 NOP     
000053CF: 00                 NOP     
000053D0: 20 20              INRW    VV:20
000053D2: 20 20              INRW    VV:20
000053D4: 20 20              INRW    VV:20
000053D6: A0                 POP     VA
000053D7: 21                 JB      
000053D8: BE                 STAX    (HL+EA)
000053D9: 8B                 CALT    ($0096)
000053DA: 9A                 CALT    ($00B4)
000053DB: 9A                 CALT    ($00B4)
000053DC: 00                 NOP     
000053DD: 00                 NOP     
000053DE: FE                 JR      $53DD
000053DF: 08                 MOV     A,EAH
000053E0: 08                 MOV     A,EAH
000053E1: 10                 EXA     
000053E2: 04 20 02           LXI     SP,$0220
000053E5: 00                 NOP     
000053E6: 8A                 CALT    ($0094)
000053E7: 80                 CALT    ($0080)
000053E8: 00                 NOP     
000053E9: 06                 illegal 
000053EA: 18                 MOV     EAH,A
000053EB: 60 88              ANA     A,V
000053ED: 04 12 00           LXI     SP,$0012
000053F0: 20 42              INRW    VV:42
000053F2: 14 00 1E           LXI     BC,$1E00
000053F5: 54 81 81           JMP     $8181
000053F8: 81                 CALT    ($0082)
000053F9: 81                 CALT    ($0082)
000053FA: FF                 JR      $53FA
000053FB: 01 05              LDAW    VV:05
000053FD: 00                 NOP     
000053FE: 00                 NOP     
000053FF: 00                 NOP     
00005400: 08                 MOV     A,EAH
00005401: 05 01 01           ANIW    VV:01,$01
00005404: 13                 DCX     BC
00005405: 01 01              LDAW    VV:01
00005407: 01 01              LDAW    VV:01
00005409: 01 00              LDAW    VV:00
0000540B: 00                 NOP     
0000540C: 00                 NOP     
0000540D: 00                 NOP     
0000540E: FE                 JR      $540D
0000540F: 00                 NOP     
00005410: 00                 NOP     
00005411: 00                 NOP     
00005412: 08                 MOV     A,EAH
00005413: 00                 NOP     
00005414: 28                 illegal 
00005415: 20 30              INRW    VV:30
00005417: 24 20 22           LXI     DE,$2220
0000541A: 20 20              INRW    VV:20
0000541C: 20 00              INRW    VV:00
0000541E: 01 12              LDAW    VV:12
00005420: 81                 CALT    ($0082)
00005421: 81                 CALT    ($0082)
00005422: 81                 CALT    ($0082)
00005423: 7F 01              CALF    $0F01
00005425: 05 01 00           ANIW    VV:01,$00
00005428: 08                 MOV     A,EAH
00005429: 00                 NOP     
0000542A: 04 01 11           LXI     SP,$1101
0000542D: 03                 DCX     SP
0000542E: 01 01              LDAW    VV:01
00005430: 01 01              LDAW    VV:01
00005432: 00                 NOP     
00005433: 00                 NOP     
00005434: 00                 NOP     
00005435: FE                 JR      $5434
00005436: 00                 NOP     
00005437: 00                 NOP     
00005438: 00                 NOP     
00005439: 08                 MOV     A,EAH
0000543A: 00                 NOP     
0000543B: 28                 illegal 
0000543C: 30 20              DCRW    VV:20
0000543E: 24 20 22           LXI     DE,$2220
00005441: 20 00              INRW    VV:00
00005443: 00                 NOP     
00005444: 8A                 CALT    ($0094)
00005445: A9                 DCX     EA
00005446: A9                 DCX     EA
00005447: 80                 CALT    ($0080)
00005448: 00                 NOP     
00005449: 00                 NOP     
0000544A: 82                 CALT    ($0084)
0000544B: 82                 CALT    ($0084)
0000544C: FE                 JR      $544B
0000544D: 02                 INX     SP
0000544E: 02                 INX     SP
0000544F: 00                 NOP     
00005450: 00                 NOP     
00005451: 99                 CALT    ($00B2)
00005452: 00                 NOP     
00005453: 00                 NOP     
00005454: 02                 INX     SP
00005455: 02                 INX     SP
00005456: 06                 illegal 
00005457: 9A                 CALT    ($00B4)
00005458: E2                 JR      $543B
00005459: 80                 CALT    ($0080)
0000545A: 00                 NOP     
0000545B: 00                 NOP     
0000545C: 25 0F 84           GTIW    VV:0F,$84
0000545F: 00                 NOP     
00005460: 11                 EXX     
00005461: 01 81              LDAW    VV:81
00005463: 81                 CALT    ($0082)
00005464: 81                 CALT    ($0082)
00005465: 81                 CALT    ($0082)
00005466: 81                 CALT    ($0082)
00005467: 81                 CALT    ($0082)
00005468: FF                 JR      $5468
00005469: 01 01              LDAW    VV:01
0000546B: 01 01              LDAW    VV:01
0000546D: 01 01              LDAW    VV:01
0000546F: 01 00              LDAW    VV:00
00005471: 00                 NOP     
00005472: 00                 NOP     
00005473: 00                 NOP     
00005474: 00                 NOP     
00005475: 00                 NOP     
00005476: 00                 NOP     
00005477: FE                 JR      $5476
00005478: 00                 NOP     
00005479: 00                 NOP     
0000547A: 00                 NOP     
0000547B: 00                 NOP     
0000547C: 00                 NOP     
0000547D: 00                 NOP     
0000547E: 00                 NOP     
0000547F: 8A                 CALT    ($0094)
00005480: 8B                 CALT    ($0096)
00005481: 8B                 CALT    ($0096)
00005482: 14 1E 20           LXI     BC,$201E
00005485: 20 20              INRW    VV:20
00005487: 3E                 STAX    (DE-)
00005488: 20 20              INRW    VV:20
0000548A: 20 1E              INRW    VV:1E
0000548C: 8A                 CALT    ($0094)
0000548D: 00                 NOP     
0000548E: 26 38              ADINC   A,$38
00005490: 20 26              INRW    VV:26
00005492: 38                 illegal 
00005493: 20 26              INRW    VV:26
00005495: 18                 MOV     EAH,A
00005496: 00                 NOP     
00005497: 01 16              LDAW    VV:16
00005499: 82                 CALT    ($0084)
0000549A: 01 80              LDAW    VV:80
0000549C: 01 01              LDAW    VV:01
0000549E: 1F                 MOV     L,A
0000549F: 01 11              LDAW    VV:11
000054A1: 00                 NOP     
000054A2: 00                 NOP     
000054A3: 00                 NOP     
000054A4: 01 11              LDAW    VV:11
000054A6: 0F                 MOV     A,L
000054A7: 11                 EXX     
000054A8: 01 00              LDAW    VV:00
000054AA: 00                 NOP     
000054AB: 00                 NOP     
000054AC: 00                 NOP     
000054AD: 01 11              LDAW    VV:11
000054AF: 0F                 MOV     A,L
000054B0: 01 01              LDAW    VV:01
000054B2: 20 20              INRW    VV:20
000054B4: 3E                 STAX    (DE-)
000054B5: 00                 NOP     
000054B6: 00                 NOP     
000054B7: 00                 NOP     
000054B8: 20 20              INRW    VV:20
000054BA: 20 00              INRW    VV:00
000054BC: 1E                 MOV     H,A
000054BD: 00                 NOP     
000054BE: 00                 NOP     
000054BF: 20 20              INRW    VV:20
000054C1: 20 20              INRW    VV:20
000054C3: 20 00              INRW    VV:00
000054C5: 1E                 MOV     H,A
000054C6: 00                 NOP     
000054C7: 00                 NOP     
000054C8: 8A                 CALT    ($0094)
000054C9: 8A                 CALT    ($0094)
000054CA: 8B                 CALT    ($0096)
000054CB: 18                 MOV     EAH,A
000054CC: 3E                 STAX    (DE-)
000054CD: 20 20              INRW    VV:20
000054CF: 20 20              INRW    VV:20
000054D1: 20 20              INRW    VV:20
000054D3: 1E                 MOV     H,A
000054D4: 00                 NOP     
000054D5: 89                 CALT    ($0092)
000054D6: 80                 CALT    ($0080)
000054D7: 00                 NOP     
000054D8: 26 18              ADINC   A,$18
000054DA: 00                 NOP     
000054DB: 20 20              INRW    VV:20
000054DD: 26 18              ADINC   A,$18
000054DF: 00                 NOP     
000054E0: 02                 INX     SP
000054E1: 14 80 30           LXI     BC,$3080
000054E4: 01 01              LDAW    VV:01
000054E6: 01 01              LDAW    VV:01
000054E8: 1F                 MOV     L,A
000054E9: 01 01              LDAW    VV:01
000054EB: 11                 EXX     
000054EC: 00                 NOP     
000054ED: 00                 NOP     
000054EE: 00                 NOP     
000054EF: 00                 NOP     
000054F0: 00                 NOP     
000054F1: 00                 NOP     
000054F2: 01 01              LDAW    VV:01
000054F4: 11                 EXX     
000054F5: 0F                 MOV     A,L
000054F6: 01 01              LDAW    VV:01
000054F8: 01 20              LDAW    VV:20
000054FA: 20 20              INRW    VV:20
000054FC: 1E                 MOV     H,A
000054FD: 00                 NOP     
000054FE: 10                 EXA     
000054FF: 00                 NOP     
00005500: 00                 NOP     
00005501: 20 20              INRW    VV:20
00005503: 20 20              INRW    VV:20
00005505: 20 20              INRW    VV:20
00005507: 20 00              INRW    VV:00
00005509: 1E                 MOV     H,A
0000550A: 00                 NOP     
0000550B: 00                 NOP     
0000550C: 00                 NOP     
0000550D: 8E                 CALT    ($009C)
0000550E: 8B                 CALT    ($0096)
0000550F: 8A                 CALT    ($0094)
00005510: 18                 MOV     EAH,A
00005511: 1C                 MOV     D,A
00005512: 22                 INX     DE
00005513: 22                 INX     DE
00005514: 22                 INX     DE
00005515: 22                 INX     DE
00005516: 22                 INX     DE
00005517: 22                 INX     DE
00005518: 22                 INX     DE
00005519: 1C                 MOV     D,A
0000551A: 8A                 CALT    ($0094)
0000551B: 00                 NOP     
0000551C: 0C                 MOV     A,D
0000551D: 12                 INX     BC
0000551E: 02                 INX     SP
0000551F: 20 22              INRW    VV:22
00005521: 00                 NOP     
00005522: 24 18 00           LXI     DE,$0018
00005525: 0C                 MOV     A,D
00005526: 12                 INX     BC
00005527: 02                 INX     SP
00005528: 22                 INX     DE
00005529: 20 24              INRW    VV:24
0000552B: 18                 MOV     EAH,A
0000552C: 00                 NOP     
0000552D: 03                 DCX     SP
0000552E: 11                 EXX     
0000552F: 80                 CALT    ($0080)
00005530: 30 01              DCRW    VV:01
00005532: 0C                 MOV     A,D
00005533: 02                 INX     SP
00005534: 10                 EXA     
00005535: 00                 NOP     
00005536: 01 01              LDAW    VV:01
00005538: 01 01              LDAW    VV:01
0000553A: 01 01              LDAW    VV:01
0000553C: 01 01              LDAW    VV:01
0000553E: 01 00              LDAW    VV:00
00005540: 10                 EXA     
00005541: 02                 INX     SP
00005542: 0C                 MOV     A,D
00005543: 0C                 MOV     A,D
00005544: 10                 EXA     
00005545: 02                 INX     SP
00005546: 00                 NOP     
00005547: 20 20              INRW    VV:20
00005549: 20 20              INRW    VV:20
0000554B: 20 20              INRW    VV:20
0000554D: 20 20              INRW    VV:20
0000554F: 20 00              INRW    VV:00
00005551: 02                 INX     SP
00005552: 10                 EXA     
00005553: 0C                 MOV     A,D
00005554: 8A                 CALT    ($0094)
00005555: 1B                 MOV     C,A
00005556: 1B                 MOV     C,A
00005557: 18                 MOV     EAH,A
00005558: 00                 NOP     
00005559: 7F 44              CALF    $0F44
0000555B: 44 44 44           LXI     EA,$4444
0000555E: 44 44 38           LXI     EA,$3844
00005561: 0A                 MOV     A,B
00005562: 80                 CALT    ($0080)
00005563: 00                 NOP     
00005564: 03                 DCX     SP
00005565: 1C                 MOV     D,A
00005566: 64 44              illegal 
00005568: 44 44 48           LXI     EA,$4844
0000556B: 30 A2              DCRW    VV:A2
0000556D: 14 80 01           LXI     BC,$0180
00005570: 81                 CALT    ($0082)
00005571: 08                 MOV     A,EAH
00005572: 00                 NOP     
00005573: 00                 NOP     
00005574: 00                 NOP     
00005575: 00                 NOP     
00005576: 00                 NOP     
00005577: 00                 NOP     
00005578: 1F                 MOV     L,A
00005579: 00                 NOP     
0000557A: 12                 INX     BC
0000557B: 00                 NOP     
0000557C: 00                 NOP     
0000557D: 00                 NOP     
0000557E: 00                 NOP     
0000557F: 00                 NOP     
00005580: 00                 NOP     
00005581: 00                 NOP     
00005582: 00                 NOP     
00005583: 00                 NOP     
00005584: 12                 INX     BC
00005585: 00                 NOP     
00005586: 00                 NOP     
00005587: 0C                 MOV     A,D
00005588: FF                 JR      $5588
00005589: E0                 JR      $556A
0000558A: 00                 NOP     
0000558B: 20 20              INRW    VV:20
0000558D: 20 20              INRW    VV:20
0000558F: 3F                 STAX    (HL-)
00005590: 00                 NOP     
00005591: 00                 NOP     
00005592: 00                 NOP     
00005593: 22                 INX     DE
00005594: 22                 INX     DE
00005595: 22                 INX     DE
00005596: 22                 INX     DE
00005597: 22                 INX     DE
00005598: 22                 INX     DE
00005599: 22                 INX     DE
0000559A: 00                 NOP     
0000559B: 00                 NOP     
0000559C: 00                 NOP     
0000559D: 14 08 8A           LXI     BC,$8A08
000055A0: 0A                 MOV     A,B
000055A1: 0A                 MOV     A,B
000055A2: 18                 MOV     EAH,A
000055A3: 38                 illegal 
000055A4: 44 44 44           LXI     EA,$4444
000055A7: 44 44 44           LXI     EA,$4444
000055AA: 7F 00              CALF    $0F00
000055AC: 0A                 MOV     A,B
000055AD: 00                 NOP     
000055AE: 18                 MOV     EAH,A
000055AF: 24 04 44           LXI     DE,$4404
000055B2: 44 47 58           LXI     EA,$5847
000055B5: 60 00              illegal 
000055B7: A3                 POP     HL
000055B8: 14 84 30           LXI     BC,$3084
000055BB: 00                 NOP     
000055BC: 00                 NOP     
000055BD: 01 00              LDAW    VV:00
000055BF: 0C                 MOV     A,D
000055C0: 00                 NOP     
000055C1: 00                 NOP     
000055C2: 12                 INX     BC
000055C3: 00                 NOP     
000055C4: 00                 NOP     
000055C5: 00                 NOP     
000055C6: 00                 NOP     
000055C7: 00                 NOP     
000055C8: 00                 NOP     
000055C9: 00                 NOP     
000055CA: 00                 NOP     
000055CB: 00                 NOP     
000055CC: 12                 INX     BC
000055CD: 00                 NOP     
000055CE: 1F                 MOV     L,A
000055CF: 00                 NOP     
000055D0: 00                 NOP     
000055D1: 00                 NOP     
000055D2: 00                 NOP     
000055D3: 01 FF              LDAW    VV:FF
000055D5: F0                 JR      $55C6
000055D6: 08                 MOV     A,EAH
000055D7: 14 00 00           LXI     BC,$0000
000055DA: 00                 NOP     
000055DB: 22                 INX     DE
000055DC: 22                 INX     DE
000055DD: 22                 INX     DE
000055DE: 22                 INX     DE
000055DF: 22                 INX     DE
000055E0: 22                 INX     DE
000055E1: 22                 INX     DE
000055E2: 00                 NOP     
000055E3: 00                 NOP     
000055E4: 00                 NOP     
000055E5: 3F                 STAX    (HL-)
000055E6: 00                 NOP     
000055E7: 00                 NOP     
000055E8: 00                 NOP     
000055E9: 00                 NOP     
000055EA: 8A                 CALT    ($0094)
000055EB: 9B                 CALT    ($00B6)
000055EC: 9B                 CALT    ($00B6)
000055ED: 01 00              LDAW    VV:00
000055EF: 3E                 STAX    (DE-)
000055F0: 10                 EXA     
000055F1: 10                 EXA     
000055F2: 20 20              INRW    VV:20
000055F4: 20 20              INRW    VV:20
000055F6: 20 89              INRW    VV:89
000055F8: 80                 CALT    ($0080)
000055F9: 00                 NOP     
000055FA: 00                 NOP     
000055FB: 06                 illegal 
000055FC: 38                 illegal 
000055FD: 00                 NOP     
000055FE: 10                 EXA     
000055FF: 20 20              INRW    VV:20
00005601: 20 03              INRW    VV:03
00005603: 12                 INX     BC
00005604: 82                 CALT    ($0084)
00005605: 08                 MOV     A,EAH
00005606: 01 01              LDAW    VV:01
00005608: 01 01              LDAW    VV:01
0000560A: 01 1F              LDAW    VV:1F
0000560C: 01 09              LDAW    VV:09
0000560E: 01 11              LDAW    VV:11
00005610: 01 01              LDAW    VV:01
00005612: 00                 NOP     
00005613: 00                 NOP     
00005614: 00                 NOP     
00005615: 00                 NOP     
00005616: 00                 NOP     
00005617: 18                 MOV     EAH,A
00005618: 00                 NOP     
00005619: 20 20              INRW    VV:20
0000561B: 20 20              INRW    VV:20
0000561D: 3E                 STAX    (DE-)
0000561E: 00                 NOP     
0000561F: 00                 NOP     
00005620: 10                 EXA     
00005621: 00                 NOP     
00005622: 00                 NOP     
00005623: 20 20              INRW    VV:20
00005625: 20 20              INRW    VV:20
00005627: 20 10              INRW    VV:10
00005629: 00                 NOP     
0000562A: 10                 EXA     
0000562B: 8A                 CALT    ($0094)
0000562C: 8B                 CALT    ($0096)
0000562D: 8B                 CALT    ($0096)
0000562E: 18                 MOV     EAH,A
0000562F: 10                 EXA     
00005630: 2A                 LDAX    (DE)
00005631: 2A                 LDAX    (DE)
00005632: 2A                 LDAX    (DE)
00005633: 2A                 LDAX    (DE)
00005634: 2A                 LDAX    (DE)
00005635: 2A                 LDAX    (DE)
00005636: 2A                 LDAX    (DE)
00005637: 04 8A 00           LXI     SP,$008A
0000563A: 02                 INX     SP
0000563B: 12                 INX     BC
0000563C: 02                 INX     SP
0000563D: 2A                 LDAX    (DE)
0000563E: 2A                 LDAX    (DE)
0000563F: 28                 illegal 
00005640: 24 20 00           LXI     DE,$0020
00005643: 24 11 80           LXI     DE,$8011
00005646: 30 20              DCRW    VV:20
00005648: 03                 DCX     SP
00005649: 18                 MOV     EAH,A
0000564A: 00                 NOP     
0000564B: 01 01              LDAW    VV:01
0000564D: 01 01              LDAW    VV:01
0000564F: 01 01              LDAW    VV:01
00005651: 01 01              LDAW    VV:01
00005653: 01 01              LDAW    VV:01
00005655: 11                 EXX     
00005656: 00                 NOP     
00005657: 14 02 16           LXI     BC,$1602
0000565A: 00                 NOP     
0000565B: 02                 INX     SP
0000565C: 28                 illegal 
0000565D: 28                 illegal 
0000565E: 28                 illegal 
0000565F: 28                 illegal 
00005660: 28                 illegal 
00005661: 28                 illegal 
00005662: 28                 illegal 
00005663: 28                 illegal 
00005664: 28                 illegal 
00005665: 28                 illegal 
00005666: 08                 MOV     A,EAH
00005667: 08                 MOV     A,EAH
00005668: 32                 INX     HL
00005669: 04 8A 9B           LXI     SP,$9B8A
0000566C: 9A                 CALT    ($00B4)
0000566D: 03                 DCX     SP
0000566E: 00                 NOP     
0000566F: 20 20              INRW    VV:20
00005671: FC                 JR      $566E
00005672: 22                 INX     DE
00005673: 22                 INX     DE
00005674: 22                 INX     DE
00005675: 22                 INX     DE
00005676: 02                 INX     SP
00005677: 9A                 CALT    ($00B4)
00005678: 00                 NOP     
00005679: 00                 NOP     
0000567A: 20 2C              INRW    VV:2C
0000567C: 32                 INX     HL
0000567D: E2                 JR      $5660
0000567E: 22                 INX     DE
0000567F: 20 20              INRW    VV:20
00005681: 00                 NOP     
00005682: 03                 DCX     SP
00005683: 11                 EXX     
00005684: 80                 CALT    ($0080)
00005685: 30 01              DCRW    VV:01
00005687: 00                 NOP     
00005688: 00                 NOP     
00005689: 00                 NOP     
0000568A: 00                 NOP     
0000568B: 00                 NOP     
0000568C: 7E 00              CALF    $0E00
0000568E: 01 01              LDAW    VV:01
00005690: 01 01              LDAW    VV:01
00005692: 01 01              LDAW    VV:01
00005694: 01 00              LDAW    VV:00
00005696: 00                 NOP     
00005697: 02                 INX     SP
00005698: 20 20              INRW    VV:20
0000569A: 20 20              INRW    VV:20
0000569C: 20 FC              INRW    VV:FC
0000569E: 22                 INX     DE
0000569F: 20 20              INRW    VV:20
000056A1: 20 20              INRW    VV:20
000056A3: 20 20              INRW    VV:20
000056A5: 20 20              INRW    VV:20
000056A7: 02                 INX     SP
000056A8: 04 8A 8B           LXI     SP,$8B8A
000056AB: 8B                 CALT    ($0096)
000056AC: 18                 MOV     EAH,A
000056AD: 3C                 STAX    (DE+)
000056AE: 02                 INX     SP
000056AF: 02                 INX     SP
000056B0: 02                 INX     SP
000056B1: 02                 INX     SP
000056B2: 02                 INX     SP
000056B3: 00                 NOP     
000056B4: 3C                 STAX    (DE+)
000056B5: 02                 INX     SP
000056B6: 8A                 CALT    ($0094)
000056B7: 00                 NOP     
000056B8: 0C                 MOV     A,D
000056B9: 32                 INX     HL
000056BA: 02                 INX     SP
000056BB: 02                 INX     SP
000056BC: 02                 INX     SP
000056BD: 02                 INX     SP
000056BE: 0C                 MOV     A,D
000056BF: 32                 INX     HL
000056C0: 00                 NOP     
000056C1: 01 15              LDAW    VV:15
000056C3: C1                 JR      $56C5
000056C4: 00                 NOP     
000056C5: 01 00              LDAW    VV:00
000056C7: 00                 NOP     
000056C8: 00                 NOP     
000056C9: 00                 NOP     
000056CA: 1E                 MOV     H,A
000056CB: 00                 NOP     
000056CC: 01 01              LDAW    VV:01
000056CE: 01 01              LDAW    VV:01
000056D0: 01 01              LDAW    VV:01
000056D2: 01 00              LDAW    VV:00
000056D4: 00                 NOP     
000056D5: 02                 INX     SP
000056D6: 00                 NOP     
000056D7: 1E                 MOV     H,A
000056D8: 01 01              LDAW    VV:01
000056DA: 01 20              LDAW    VV:20
000056DC: 20 20              INRW    VV:20
000056DE: 20 3C              INRW    VV:3C
000056E0: 02                 INX     SP
000056E1: 00                 NOP     
000056E2: 00                 NOP     
000056E3: 00                 NOP     
000056E4: 00                 NOP     
000056E5: 00                 NOP     
000056E6: 00                 NOP     
000056E7: 00                 NOP     
000056E8: 20 22              INRW    VV:22
000056EA: 20 20              INRW    VV:20
000056EC: 3E                 STAX    (DE-)
000056ED: 00                 NOP     
000056EE: 00                 NOP     
000056EF: 00                 NOP     
000056F0: AB 8B              LDAX    (DE+$8B)
000056F2: 8B                 CALT    ($0096)
000056F3: 00                 NOP     
000056F4: 20 10              INRW    VV:10
000056F6: 08                 MOV     A,EAH
000056F7: 04 02 04           LXI     SP,$0402
000056FA: 08                 MOV     A,EAH
000056FB: 10                 EXA     
000056FC: 20 30              INRW    VV:30
000056FE: 08                 MOV     A,EAH
000056FF: 04 02 04           LXI     SP,$0402
00005702: 08                 MOV     A,EAH
00005703: 30 00              DCRW    VV:00
00005705: 00                 NOP     
00005706: 9A                 CALT    ($00B4)
00005707: 00                 NOP     
00005708: 00                 NOP     
00005709: 3E                 STAX    (DE-)
0000570A: 00                 NOP     
0000570B: 04 00 08           LXI     SP,$0800
0000570E: 10                 EXA     
0000570F: 20 00              INRW    VV:00
00005711: 41                 INR     A
00005712: 15 00 40           ORIW    VV:00,$40
00005715: 57 00              OFFI    A,$00
00005717: 00                 NOP     
00005718: 00                 NOP     
00005719: 10                 EXA     
0000571A: 00                 NOP     
0000571B: 08                 MOV     A,EAH
0000571C: 04 00 02           LXI     SP,$0200
0000571F: 00                 NOP     
00005720: 01 00              LDAW    VV:00
00005722: 02                 INX     SP
00005723: 00                 NOP     
00005724: 04 08 00           LXI     SP,$0008
00005727: 10                 EXA     
00005728: 00                 NOP     
00005729: 00                 NOP     
0000572A: 00                 NOP     
0000572B: 20 20              INRW    VV:20
0000572D: 20 20              INRW    VV:20
0000572F: 30 20              DCRW    VV:20
00005731: 28                 illegal 
00005732: 04 00 02           LXI     SP,$0200
00005735: 00                 NOP     
00005736: 02                 INX     SP
00005737: 00                 NOP     
00005738: 04 28 20           LXI     SP,$2028
0000573B: 30 20              DCRW    VV:20
0000573D: 20 20              INRW    VV:20
0000573F: 20 00              INRW    VV:00
00005741: 13                 DCX     BC
00005742: 00                 NOP     
00005743: 00                 NOP     
00005744: 00                 NOP     
00005745: 10                 EXA     
00005746: 08                 MOV     A,EAH
00005747: 00                 NOP     
00005748: 04 02 00           LXI     SP,$0002
0000574B: 01 00              LDAW    VV:00
0000574D: 02                 INX     SP
0000574E: 04 00 08           LXI     SP,$0800
00005751: 10                 EXA     
00005752: 00                 NOP     
00005753: 00                 NOP     
00005754: 00                 NOP     
00005755: 20 20              INRW    VV:20
00005757: 20 20              INRW    VV:20
00005759: 30 28              DCRW    VV:28
0000575B: 20 04              INRW    VV:04
0000575D: 02                 INX     SP
0000575E: 00                 NOP     
0000575F: 02                 INX     SP
00005760: 04 20 28           LXI     SP,$2820
00005763: 30 20              DCRW    VV:20
00005765: 20 20              INRW    VV:20
00005767: 20 8F              INRW    VV:8F
00005769: 8B                 CALT    ($0096)
0000576A: 8B                 CALT    ($0096)
0000576B: 14 3C 02           LXI     BC,$023C
0000576E: 04 08 18           LXI     SP,$1808
00005771: 08                 MOV     A,EAH
00005772: 04 02 3C           LXI     SP,$3C02
00005775: 8B                 CALT    ($0096)
00005776: 00                 NOP     
00005777: 0E                 MOV     A,H
00005778: 30 04              DCRW    VV:04
0000577A: 00                 NOP     
0000577B: 18                 MOV     EAH,A
0000577C: 04 02 0C           LXI     SP,$0C02
0000577F: 30 0E              DCRW    VV:0E
00005781: 30 04              DCRW    VV:04
00005783: 08                 MOV     A,EAH
00005784: 04 02 0C           LXI     SP,$0C02
00005787: 30 40              DCRW    VV:40
00005789: 17 00              ORI     A,$00
0000578B: BB 57              STAX    (DE+$57)
0000578D: 00                 NOP     
0000578E: 00                 NOP     
0000578F: 10                 EXA     
00005790: 08                 MOV     A,EAH
00005791: 04 02 01           LXI     SP,$0102
00005794: 00                 NOP     
00005795: 02                 INX     SP
00005796: 04 08 00           LXI     SP,$0008
00005799: 08                 MOV     A,EAH
0000579A: 04 02 00           LXI     SP,$0002
0000579D: 01 02              LDAW    VV:02
0000579F: 04 08 10           LXI     SP,$1008
000057A2: 00                 NOP     
000057A3: 00                 NOP     
000057A4: 20 20              INRW    VV:20
000057A6: 30 28              DCRW    VV:28
000057A8: 24 22 20           LXI     DE,$2022
000057AB: 02                 INX     SP
000057AC: 04 00 08           LXI     SP,$0800
000057AF: 10                 EXA     
000057B0: 08                 MOV     A,EAH
000057B1: 00                 NOP     
000057B2: 04 02 20           LXI     SP,$2002
000057B5: 22                 INX     DE
000057B6: 24 28 30           LXI     DE,$3028
000057B9: 20 20              INRW    VV:20
000057BB: 00                 NOP     
000057BC: 13                 DCX     BC
000057BD: 00                 NOP     
000057BE: 00                 NOP     
000057BF: 18                 MOV     EAH,A
000057C0: 04 03 00           LXI     SP,$0003
000057C3: 02                 INX     SP
000057C4: 00                 NOP     
000057C5: 04 00 04           LXI     SP,$0400
000057C8: 00                 NOP     
000057C9: 02                 INX     SP
000057CA: 00                 NOP     
000057CB: 03                 DCX     SP
000057CC: 04 18 00           LXI     SP,$0018
000057CF: 00                 NOP     
000057D0: 20 20              INRW    VV:20
000057D2: 30 2C              DCRW    VV:2C
000057D4: 22                 INX     DE
000057D5: 20 20              INRW    VV:20
000057D7: 04 00 08           LXI     SP,$0800
000057DA: 00                 NOP     
000057DB: 04 20 20           LXI     SP,$2020
000057DE: 22                 INX     DE
000057DF: 2C                 LDAX    (DE+)
000057E0: 30 20              DCRW    VV:20
000057E2: 20 8F              INRW    VV:8F
000057E4: 9A                 CALT    ($00B4)
000057E5: 9A                 CALT    ($00B4)
000057E6: 14 00 22           LXI     BC,$2200
000057E9: 14 00 08           LXI     BC,$0800
000057EC: 00                 NOP     
000057ED: 14 22 00           LXI     BC,$0022
000057F0: 8B                 CALT    ($0096)
000057F1: 00                 NOP     
000057F2: 02                 INX     SP
000057F3: 00                 NOP     
000057F4: 24 10 08           LXI     DE,$0810
000057F7: 04 12 00           LXI     SP,$0012
000057FA: 20 02              INRW    VV:02
000057FC: 24 10 08           LXI     DE,$0810
000057FF: 04 12 20           LXI     SP,$2012
00005802: 00                 NOP     
00005803: 61                 DAA     
00005804: 15 00 32           ORIW    VV:00,$32
00005807: 58 01              BIT     0,VV:01
00005809: 01 01              LDAW    VV:01
0000580B: 01 11              LDAW    VV:11
0000580D: 03                 DCX     SP
0000580E: 01 00              LDAW    VV:00
00005810: 08                 MOV     A,EAH
00005811: 04 00 04           LXI     SP,$0400
00005814: 08                 MOV     A,EAH
00005815: 00                 NOP     
00005816: 01 03              LDAW    VV:03
00005818: 11                 EXX     
00005819: 01 01              LDAW    VV:01
0000581B: 01 01              LDAW    VV:01
0000581D: 00                 NOP     
0000581E: 20 20              INRW    VV:20
00005820: 22                 INX     DE
00005821: 20 20              INRW    VV:20
00005823: 30 24              DCRW    VV:24
00005825: 00                 NOP     
00005826: 00                 NOP     
00005827: 08                 MOV     A,EAH
00005828: 00                 NOP     
00005829: 00                 NOP     
0000582A: 24 30 20           LXI     DE,$2030
0000582D: 20 22              INRW    VV:22
0000582F: 20 20              INRW    VV:20
00005831: 00                 NOP     
00005832: 01 13              LDAW    VV:13
00005834: 01 01              LDAW    VV:01
00005836: 01 01              LDAW    VV:01
00005838: 11                 EXX     
00005839: 03                 DCX     SP
0000583A: 01 08              LDAW    VV:08
0000583C: 04 00 04           LXI     SP,$0400
0000583F: 08                 MOV     A,EAH
00005840: 01 03              LDAW    VV:03
00005842: 11                 EXX     
00005843: 01 01              LDAW    VV:01
00005845: 01 01              LDAW    VV:01
00005847: 00                 NOP     
00005848: 20 20              INRW    VV:20
0000584A: 22                 INX     DE
0000584B: 20 20              INRW    VV:20
0000584D: 34 20 00           LXI     HL,$0020
00005850: 08                 MOV     A,EAH
00005851: 00                 NOP     
00005852: 20 34              INRW    VV:34
00005854: 20 20              INRW    VV:20
00005856: 22                 INX     DE
00005857: 20 20              INRW    VV:20
00005859: 00                 NOP     
0000585A: AB 0B              LDAX    (DE+$0B)
0000585C: 0B                 MOV     A,C
0000585D: 00                 NOP     
0000585E: 40 21 12           CALL    $1221
00005861: 04 08 10           LXI     SP,$1008
00005864: 20 40              INRW    VV:40
00005866: 00                 NOP     
00005867: 41                 INR     A
00005868: 22                 INX     DE
00005869: 14 08 10           LXI     BC,$1008
0000586C: 20 40              INRW    VV:40
0000586E: 00                 NOP     
0000586F: 00                 NOP     
00005870: 0A                 MOV     A,B
00005871: 08                 MOV     A,EAH
00005872: 00                 NOP     
00005873: 61                 DAA     
00005874: 1A                 MOV     B,A
00005875: 04 00 08           LXI     SP,$0800
00005878: 10                 EXA     
00005879: 20 40              INRW    VV:40
0000587B: C2                 JR      $587E
0000587C: 14 00 AE           LXI     BC,$AE00
0000587F: 58 70              BIT     0,VV:70
00005881: 80                 CALT    ($0080)
00005882: 00                 NOP     
00005883: 00                 NOP     
00005884: 00                 NOP     
00005885: 00                 NOP     
00005886: 10                 EXA     
00005887: 00                 NOP     
00005888: 08                 MOV     A,EAH
00005889: 04 02 00           LXI     SP,$0002
0000588C: 00                 NOP     
0000588D: 01 02              LDAW    VV:02
0000588F: 00                 NOP     
00005890: 04 08 00           LXI     SP,$0008
00005893: 10                 EXA     
00005894: 00                 NOP     
00005895: 00                 NOP     
00005896: 00                 NOP     
00005897: 1F                 MOV     L,A
00005898: 00                 NOP     
00005899: 00                 NOP     
0000589A: 20 20              INRW    VV:20
0000589C: 21                 JB      
0000589D: 20 30              INRW    VV:30
0000589F: 28                 illegal 
000058A0: 20 04              INRW    VV:04
000058A2: 02                 INX     SP
000058A3: 01 02              LDAW    VV:02
000058A5: 00                 NOP     
000058A6: 04 20 28           LXI     SP,$2820
000058A9: 30 20              DCRW    VV:20
000058AB: 20 20              INRW    VV:20
000058AD: 20 80              INRW    VV:80
000058AF: 13                 DCX     BC
000058B0: 29                 LDAX    (BC)
000058B1: 00                 NOP     
000058B2: 00                 NOP     
000058B3: 00                 NOP     
000058B4: 00                 NOP     
000058B5: 00                 NOP     
000058B6: 10                 EXA     
000058B7: 00                 NOP     
000058B8: 08                 MOV     A,EAH
000058B9: 04 00 02           LXI     SP,$0200
000058BC: 01 02              LDAW    VV:02
000058BE: 00                 NOP     
000058BF: 04 00 08           LXI     SP,$0800
000058C2: 10                 EXA     
000058C3: 00                 NOP     
000058C4: 00                 NOP     
000058C5: 00                 NOP     
000058C6: 14 00 00           LXI     BC,$0000
000058C9: 20 20              INRW    VV:20
000058CB: 20 21              INRW    VV:21
000058CD: 30 20              DCRW    VV:20
000058CF: 28                 illegal 
000058D0: 04 01 00           LXI     SP,$0001
000058D3: 02                 INX     SP
000058D4: 04 20 28           LXI     SP,$2820
000058D7: 30 20              DCRW    VV:20
000058D9: 20 20              INRW    VV:20
000058DB: 20 8E              INRW    VV:8E
000058DD: 9A                 CALT    ($00B4)
000058DE: 9A                 CALT    ($00B4)
000058DF: 14 00 22           LXI     BC,$2200
000058E2: 26 22              ADINC   A,$22
000058E4: 2A                 LDAX    (DE)
000058E5: 22                 INX     DE
000058E6: 32                 INX     HL
000058E7: 22                 INX     DE
000058E8: 00                 NOP     
000058E9: 8B                 CALT    ($0096)
000058EA: 00                 NOP     
000058EB: 02                 INX     SP
000058EC: 02                 INX     SP
000058ED: 26 22              ADINC   A,$22
000058EF: 2A                 LDAX    (DE)
000058F0: 22                 INX     DE
000058F1: 32                 INX     HL
000058F2: 20 20              INRW    VV:20
000058F4: 02                 INX     SP
000058F5: 06                 illegal 
000058F6: 22                 INX     DE
000058F7: 2A                 LDAX    (DE)
000058F8: 22                 INX     DE
000058F9: 30 20              DCRW    VV:20
000058FB: 00                 NOP     
000058FC: 23                 DCX     DE
000058FD: 11                 EXX     
000058FE: 80                 CALT    ($0080)
000058FF: 40 21 01           CALL    $0121
00005902: 11                 EXX     
00005903: 01 03              LDAW    VV:03
00005905: 01 01              LDAW    VV:01
00005907: 01 05              LDAW    VV:05
00005909: 01 01              LDAW    VV:01
0000590B: 09                 MOV     A,EAL
0000590C: 01 01              LDAW    VV:01
0000590E: 01 11              LDAW    VV:11
00005910: 01 03              LDAW    VV:03
00005912: 00                 NOP     
00005913: 12                 INX     BC
00005914: 20 20              INRW    VV:20
00005916: 20 24              INRW    VV:24
00005918: 20 20              INRW    VV:20
0000591A: 20 28              INRW    VV:28
0000591C: 20 20              INRW    VV:20
0000591E: 30 20              DCRW    VV:20
00005920: 20 20              INRW    VV:20
00005922: 26 8A              ADINC   A,$8A
00005924: 99                 CALT    ($00B2)
00005925: 99                 CALT    ($00B2)
00005926: 80                 CALT    ($0080)
00005927: 00                 NOP     
00005928: 10                 EXA     
00005929: 00                 NOP     
0000592A: 6E 81              MVI     H,$81
0000592C: 81                 CALT    ($0082)
0000592D: 81                 CALT    ($0082)
0000592E: 00                 NOP     
0000592F: 00                 NOP     
00005930: 9A                 CALT    ($00B4)
00005931: 80                 CALT    ($0080)
00005932: 00                 NOP     
00005933: 10                 EXA     
00005934: 16 19              XRI     A,$19
00005936: 61                 DAA     
00005937: 81                 CALT    ($0082)
00005938: 80                 CALT    ($0080)
00005939: 80                 CALT    ($0080)
0000593A: 00                 NOP     
0000593B: 85                 CALT    ($008A)
0000593C: 0D                 MOV     A,E
0000593D: C0                 JR      $593E
0000593E: 00                 NOP     
0000593F: 03                 DCX     SP
00005940: 01 F0              LDAW    VV:F0
00005942: 00                 NOP     
00005943: 08                 MOV     A,EAH
00005944: 08                 MOV     A,EAH
00005945: 08                 MOV     A,EAH
00005946: 00                 NOP     
00005947: 00                 NOP     
00005948: 77 00              EQI     A,$00
0000594A: 80                 CALT    ($0080)
0000594B: 80                 CALT    ($0080)
0000594C: 80                 CALT    ($0080)
0000594D: 80                 CALT    ($0080)
0000594E: 80                 CALT    ($0080)
0000594F: 00                 NOP     
00005950: 00                 NOP     
00005951: 00                 NOP     
00005952: 00                 NOP     
00005953: 00                 NOP     
00005954: 00                 NOP     
00005955: 00                 NOP     
00005956: 00                 NOP     
00005957: 18                 MOV     EAH,A
00005958: E7                 JR      $5940
00005959: 00                 NOP     
0000595A: 00                 NOP     
0000595B: 00                 NOP     
0000595C: 00                 NOP     
0000595D: 00                 NOP     
0000595E: 00                 NOP     
0000595F: 00                 NOP     
00005960: 8A                 CALT    ($0094)
00005961: C8                 JR      $596A
00005962: C7                 JR      $596A
00005963: 80                 CALT    ($0080)
00005964: 00                 NOP     
00005965: 00                 NOP     
00005966: 00                 NOP     
00005967: 00                 NOP     
00005968: E7                 JR      $5950
00005969: 00                 NOP     
0000596A: 00                 NOP     
0000596B: 00                 NOP     
0000596C: 00                 NOP     
0000596D: 99                 CALT    ($00B2)
0000596E: 08                 MOV     A,EAH
0000596F: 00                 NOP     
00005970: 00                 NOP     
00005971: 01 06              LDAW    VV:06
00005973: 00                 NOP     
00005974: 20 C0              INRW    VV:C0
00005976: 00                 NOP     
00005977: 00                 NOP     
00005978: 8B                 CALT    ($0096)
00005979: 01 C0              LDAW    VV:C0
0000597B: 00                 NOP     
0000597C: 03                 DCX     SP
0000597D: 80                 CALT    ($0080)
0000597E: 00                 NOP     
0000597F: 00                 NOP     
00005980: F3                 JR      $5974
00005981: 80                 CALT    ($0080)
00005982: 00                 NOP     
00005983: 00                 NOP     
00005984: E7                 JR      $596C
00005985: 8A                 CALT    ($0094)
00005986: AA                 EI      
00005987: AA                 EI      
00005988: 80                 CALT    ($0080)
00005989: 00                 NOP     
0000598A: 00                 NOP     
0000598B: 81                 CALT    ($0082)
0000598C: 81                 CALT    ($0082)
0000598D: 81                 CALT    ($0082)
0000598E: 6E 00              MVI     H,$00
00005990: 10                 EXA     
00005991: 00                 NOP     
00005992: 9A                 CALT    ($00B4)
00005993: 80                 CALT    ($0080)
00005994: 00                 NOP     
00005995: 01 01              LDAW    VV:01
00005997: 81                 CALT    ($0082)
00005998: 86                 CALT    ($008C)
00005999: B8                 RET     
0000599A: 50                 EXH     
0000599B: 10                 EXA     
0000599C: 00                 NOP     
0000599D: 87                 CALT    ($008E)
0000599E: 0C                 MOV     A,D
0000599F: C0                 JR      $59A0
000059A0: 00                 NOP     
000059A1: 03                 DCX     SP
000059A2: F8                 JR      $599B
000059A3: 00                 NOP     
000059A4: 00                 NOP     
000059A5: 80                 CALT    ($0080)
000059A6: 80                 CALT    ($0080)
000059A7: 80                 CALT    ($0080)
000059A8: 80                 CALT    ($0080)
000059A9: 80                 CALT    ($0080)
000059AA: 00                 NOP     
000059AB: 77 00              EQI     A,$00
000059AD: 00                 NOP     
000059AE: 08                 MOV     A,EAH
000059AF: 08                 MOV     A,EAH
000059B0: 08                 MOV     A,EAH
000059B1: 00                 NOP     
000059B2: 00                 NOP     
000059B3: 00                 NOP     
000059B4: 00                 NOP     
000059B5: 00                 NOP     
000059B6: 00                 NOP     
000059B7: 00                 NOP     
000059B8: 00                 NOP     
000059B9: 00                 NOP     
000059BA: E7                 JR      $59A2
000059BB: 18                 MOV     EAH,A
000059BC: 00                 NOP     
000059BD: 00                 NOP     
000059BE: 00                 NOP     
000059BF: 00                 NOP     
000059C0: 9E                 CALT    ($00BC)
000059C1: 8B                 CALT    ($0096)
000059C2: 8B                 CALT    ($0096)
000059C3: 00                 NOP     
000059C4: 40 80 80           CALL    $8080
000059C7: 80                 CALT    ($0080)
000059C8: 40 20 20           CALL    $2020
000059CB: 20 40              INRW    VV:40
000059CD: 40 80 00           CALL    $0080
000059D0: 80                 CALT    ($0080)
000059D1: 40 00 40           CALL    $4000
000059D4: 80                 CALT    ($0080)
000059D5: 8B                 CALT    ($0096)
000059D6: 00                 NOP     
000059D7: 40 80 80           CALL    $8080
000059DA: 80                 CALT    ($0080)
000059DB: 40 20 20           CALL    $2020
000059DE: 20 40              INRW    VV:40
000059E0: 40 80 80           CALL    $8080
000059E3: 80                 CALT    ($0080)
000059E4: 40 40 40           CALL    $4040
000059E7: 80                 CALT    ($0080)
000059E8: 04 0F C0           LXI     SP,$C00F
000059EB: 00                 NOP     
000059EC: 03                 DCX     SP
000059ED: 40 00 00           CALL    $0000
000059F0: 80                 CALT    ($0080)
000059F1: 80                 CALT    ($0080)
000059F2: 80                 CALT    ($0080)
000059F3: 00                 NOP     
000059F4: 00                 NOP     
000059F5: 00                 NOP     
000059F6: 40 40 40           CALL    $4040
000059F9: 00                 NOP     
000059FA: 00                 NOP     
000059FB: 80                 CALT    ($0080)
000059FC: 00                 NOP     
000059FD: 80                 CALT    ($0080)
000059FE: 00                 NOP     
000059FF: 00                 NOP     
00005A00: 00                 NOP     
00005A01: 00                 NOP     
00005A02: 00                 NOP     
00005A03: 80                 CALT    ($0080)
00005A04: 00                 NOP     
00005A05: 00                 NOP     
00005A06: 00                 NOP     
00005A07: 00                 NOP     
00005A08: 00                 NOP     
00005A09: 80                 CALT    ($0080)
00005A0A: 00                 NOP     
00005A0B: 8E                 CALT    ($009C)
00005A0C: 8B                 CALT    ($0096)
00005A0D: 8B                 CALT    ($0096)
00005A0E: 22                 INX     DE
00005A0F: 7C 82              CALF    $0C82
00005A11: 86                 CALT    ($008C)
00005A12: 8A                 CALT    ($0094)
00005A13: 92                 CALT    ($00A4)
00005A14: A2                 POP     DE
00005A15: C2                 JR      $5A18
00005A16: 82                 CALT    ($0084)
00005A17: 7C 8B              CALF    $0C8B
00005A19: 00                 NOP     
00005A1A: 1C                 MOV     D,A
00005A1B: 20 4A              INRW    VV:4A
00005A1D: 02                 INX     SP
00005A1E: 92                 CALT    ($00A4)
00005A1F: 80                 CALT    ($0080)
00005A20: A4                 POP     EA
00005A21: 08                 MOV     A,EAH
00005A22: 70 1C              illegal 
00005A24: 22                 INX     DE
00005A25: 4A 12              MVIX    DE,$12
00005A27: 80                 CALT    ($0080)
00005A28: A4                 POP     EA
00005A29: 88                 CALT    ($0090)
00005A2A: 70 03              illegal 
00005A2C: 11                 EXX     
00005A2D: 82                 CALT    ($0084)
00005A2E: 00                 NOP     
00005A2F: 81                 CALT    ($0082)
00005A30: 18                 MOV     EAH,A
00005A31: 24 42 04           LXI     DE,$0442
00005A34: 00                 NOP     
00005A35: 00                 NOP     
00005A36: 89                 CALT    ($0092)
00005A37: 81                 CALT    ($0082)
00005A38: 81                 CALT    ($0082)
00005A39: 91                 CALT    ($00A2)
00005A3A: 81                 CALT    ($0082)
00005A3B: 00                 NOP     
00005A3C: 20 00              INRW    VV:00
00005A3E: 42                 INR     B
00005A3F: 24 18 38           LXI     DE,$3818
00005A42: 44 00 00           LXI     EA,$0000
00005A45: 8A                 CALT    ($0094)
00005A46: 00                 NOP     
00005A47: 00                 NOP     
00005A48: 10                 EXA     
00005A49: 00                 NOP     
00005A4A: 00                 NOP     
00005A4B: 20 00              INRW    VV:00
00005A4D: 82                 CALT    ($0084)
00005A4E: 40 00 44           CALL    $4400
00005A51: 38                 illegal 
00005A52: 8E                 CALT    ($009C)
00005A53: 8B                 CALT    ($0096)
00005A54: 8B                 CALT    ($0096)
00005A55: 41                 INR     A
00005A56: 78 84              CALF    $0884
00005A58: 85                 CALT    ($008A)
00005A59: 85                 CALT    ($008A)
00005A5A: 85                 CALT    ($008A)
00005A5B: 86                 CALT    ($008C)
00005A5C: 84                 CALT    ($0088)
00005A5D: 84                 CALT    ($0088)
00005A5E: 48 8B 00           LDEAX   (DE+$00)
00005A61: 38                 illegal 
00005A62: 45 05 85           ONIW    VV:05,$85
00005A65: 86                 CALT    ($008C)
00005A66: 84                 CALT    ($0088)
00005A67: 80                 CALT    ($0080)
00005A68: 88                 CALT    ($0090)
00005A69: 40 19 65           CALL    $6519
00005A6C: 85                 CALT    ($008A)
00005A6D: 86                 CALT    ($008C)
00005A6E: 84                 CALT    ($0088)
00005A6F: 84                 CALT    ($0088)
00005A70: 88                 CALT    ($0090)
00005A71: 40 83 13           CALL    $1383
00005A74: 82                 CALT    ($0084)
00005A75: 00                 NOP     
00005A76: 21                 JB      
00005A77: 00                 NOP     
00005A78: 10                 EXA     
00005A79: 00                 NOP     
00005A7A: 18                 MOV     EAH,A
00005A7B: 24 40 00           LXI     DE,$0040
00005A7E: 02                 INX     SP
00005A7F: 00                 NOP     
00005A80: 80                 CALT    ($0080)
00005A81: 80                 CALT    ($0080)
00005A82: 80                 CALT    ($0080)
00005A83: 81                 CALT    ($0082)
00005A84: 80                 CALT    ($0080)
00005A85: 80                 CALT    ($0080)
00005A86: 80                 CALT    ($0080)
00005A87: 00                 NOP     
00005A88: 02                 INX     SP
00005A89: 40 40 E4           CALL    $E440
00005A8C: 00                 NOP     
00005A8D: 03                 DCX     SP
00005A8E: E0                 JR      $5A6F
00005A8F: 00                 NOP     
00005A90: 30 48              DCRW    VV:48
00005A92: 04 00 80           LXI     SP,$8000
00005A95: 00                 NOP     
00005A96: 02                 INX     SP
00005A97: 02                 INX     SP
00005A98: 02                 INX     SP
00005A99: 02                 INX     SP
00005A9A: 03                 DCX     SP
00005A9B: 02                 INX     SP
00005A9C: 02                 INX     SP
00005A9D: 00                 NOP     
00005A9E: 80                 CALT    ($0080)
00005A9F: 00                 NOP     
00005AA0: 04 C0 08           LXI     SP,$08C0
00005AA3: BE                 STAX    (HL+EA)
00005AA4: 8B                 CALT    ($0096)
00005AA5: 8B                 CALT    ($0096)
00005AA6: 00                 NOP     
00005AA7: 44 0A 8A           LXI     EA,$8A0A
00005AAA: AA                 EI      
00005AAB: AA                 EI      
00005AAC: AA                 EI      
00005AAD: 88                 CALT    ($0090)
00005AAE: 1C                 MOV     D,A
00005AAF: 42                 INR     B
00005AB0: 40 04 8A           CALL    $8A04
00005AB3: AA                 EI      
00005AB4: AA                 EI      
00005AB5: A8                 INX     EA
00005AB6: 9C                 CALT    ($00B8)
00005AB7: 02                 INX     SP
00005AB8: 40 44 8A           CALL    $8A44
00005ABB: AA                 EI      
00005ABC: AA                 EI      
00005ABD: A8                 INX     EA
00005ABE: 9C                 CALT    ($00B8)
00005ABF: 42                 INR     B
00005AC0: 00                 NOP     
00005AC1: 8B                 CALT    ($0096)
00005AC2: 00                 NOP     
00005AC3: 04 4A 2A           LXI     SP,$2A4A
00005AC6: AA                 EI      
00005AC7: AA                 EI      
00005AC8: AA                 EI      
00005AC9: AC                 LDAX    (HL+A)
00005ACA: 9A                 CALT    ($00B4)
00005ACB: 40 44 02           CALL    $0244
00005ACE: 8A                 CALT    ($0094)
00005ACF: AA                 EI      
00005AD0: AA                 EI      
00005AD1: AC                 LDAX    (HL+A)
00005AD2: 9A                 CALT    ($00B4)
00005AD3: 40 02 14           CALL    $1402
00005AD6: 80                 CALT    ($0080)
00005AD7: 18                 MOV     EAH,A
00005AD8: 01 00              LDAW    VV:00
00005ADA: 02                 INX     SP
00005ADB: 04 10 11           LXI     SP,$1110
00005ADE: 51                 DCR     A
00005ADF: 01 01              LDAW    VV:01
00005AE1: 01 81              LDAW    VV:81
00005AE3: 81                 CALT    ($0082)
00005AE4: 81                 CALT    ($0082)
00005AE5: 01 00              LDAW    VV:00
00005AE7: 10                 EXA     
00005AE8: 4E 00              JRE     $5AEA
00005AEA: 01 01              LDAW    VV:01
00005AEC: 01 00              LDAW    VV:00
00005AEE: 04 02 08           LXI     SP,$0802
00005AF1: 28                 illegal 
00005AF2: 28                 illegal 
00005AF3: 28                 illegal 
00005AF4: A8                 INX     EA
00005AF5: 28                 illegal 
00005AF6: 28                 illegal 
00005AF7: 28                 illegal 
00005AF8: 28                 illegal 
00005AF9: 28                 illegal 
00005AFA: 88                 CALT    ($0090)
00005AFB: 0A                 MOV     A,B
00005AFC: 1C                 MOV     D,A
00005AFD: 02                 INX     SP
00005AFE: 00                 NOP     
00005AFF: 00                 NOP     
00005B00: 00                 NOP     
00005B01: 9E                 CALT    ($00BC)
00005B02: 8B                 CALT    ($0096)
00005B03: 8B                 CALT    ($0096)
00005B04: 00                 NOP     
00005B05: 40 1C 8A           CALL    $8A1C
00005B08: AA                 EI      
00005B09: AA                 EI      
00005B0A: AA                 EI      
00005B0B: 8A                 CALT    ($0094)
00005B0C: 18                 MOV     EAH,A
00005B0D: 40 00 5C           CALL    $5C00
00005B10: 82                 CALT    ($0084)
00005B11: 28                 illegal 
00005B12: 82                 CALT    ($0084)
00005B13: 28                 illegal 
00005B14: 82                 CALT    ($0084)
00005B15: 58 8B              BIT     0,VV:8B
00005B17: 00                 NOP     
00005B18: 0C                 MOV     A,D
00005B19: 5A 2A              BIT     2,VV:2A
00005B1B: AA                 EI      
00005B1C: AA                 EI      
00005B1D: AA                 EI      
00005B1E: A8                 INX     EA
00005B1F: 90                 CALT    ($00A0)
00005B20: 40 4C 1A           CALL    $1A4C
00005B23: 8A                 CALT    ($0094)
00005B24: AA                 EI      
00005B25: AA                 EI      
00005B26: AA                 EI      
00005B27: 98                 CALT    ($00B0)
00005B28: 40 03 11           CALL    $1103
00005B2B: 80                 CALT    ($0080)
00005B2C: 30 01              DCRW    VV:01
00005B2E: 0C                 MOV     A,D
00005B2F: 02                 INX     SP
00005B30: 10                 EXA     
00005B31: 40 01 01           CALL    $0101
00005B34: 01 81              LDAW    VV:81
00005B36: 81                 CALT    ($0082)
00005B37: 81                 CALT    ($0082)
00005B38: 01 01              LDAW    VV:01
00005B3A: 01 40              LDAW    VV:40
00005B3C: 10                 EXA     
00005B3D: 00                 NOP     
00005B3E: 0A                 MOV     A,B
00005B3F: 0C                 MOV     A,D
00005B40: 18                 MOV     EAH,A
00005B41: 0A                 MOV     A,B
00005B42: 08                 MOV     A,EAH
00005B43: 28                 illegal 
00005B44: A8                 INX     EA
00005B45: 28                 illegal 
00005B46: 28                 illegal 
00005B47: 28                 illegal 
00005B48: 28                 illegal 
00005B49: 28                 illegal 
00005B4A: A8                 INX     EA
00005B4B: 28                 illegal 
00005B4C: 08                 MOV     A,EAH
00005B4D: 0A                 MOV     A,B
00005B4E: 18                 MOV     EAH,A
00005B4F: 08                 MOV     A,EAH
00005B50: 8A                 CALT    ($0094)
00005B51: 8B                 CALT    ($0096)
00005B52: 8B                 CALT    ($0096)
00005B53: 41                 INR     A
00005B54: 1C                 MOV     D,A
00005B55: 2A                 LDAX    (DE)
00005B56: AA                 EI      
00005B57: 2A                 LDAX    (DE)
00005B58: 2A                 LDAX    (DE)
00005B59: 2A                 LDAX    (DE)
00005B5A: AA                 EI      
00005B5B: 2A                 LDAX    (DE)
00005B5C: 18                 MOV     EAH,A
00005B5D: 8A                 CALT    ($0094)
00005B5E: 00                 NOP     
00005B5F: 0C                 MOV     A,D
00005B60: 1A                 MOV     B,A
00005B61: 2A                 LDAX    (DE)
00005B62: AA                 EI      
00005B63: 2A                 LDAX    (DE)
00005B64: 2A                 LDAX    (DE)
00005B65: 28                 illegal 
00005B66: 90                 CALT    ($00A0)
00005B67: 00                 NOP     
00005B68: 03                 DCX     SP
00005B69: 11                 EXX     
00005B6A: 80                 CALT    ($0080)
00005B6B: 30 01              DCRW    VV:01
00005B6D: 0C                 MOV     A,D
00005B6E: 02                 INX     SP
00005B6F: 50                 EXH     
00005B70: 40 41 01           CALL    $0141
00005B73: 01 01              LDAW    VV:01
00005B75: 01 01              LDAW    VV:01
00005B77: 01 01              LDAW    VV:01
00005B79: 41                 INR     A
00005B7A: 40 50 00           CALL    $0050
00005B7D: 0A                 MOV     A,B
00005B7E: 0C                 MOV     A,D
00005B7F: 18                 MOV     EAH,A
00005B80: 8A                 CALT    ($0094)
00005B81: 88                 CALT    ($0090)
00005B82: A8                 INX     EA
00005B83: 28                 illegal 
00005B84: 28                 illegal 
00005B85: 28                 illegal 
00005B86: 28                 illegal 
00005B87: 28                 illegal 
00005B88: 28                 illegal 
00005B89: 28                 illegal 
00005B8A: A8                 INX     EA
00005B8B: 88                 CALT    ($0090)
00005B8C: 8A                 CALT    ($0094)
00005B8D: 18                 MOV     EAH,A
00005B8E: 08                 MOV     A,EAH
00005B8F: 8A                 CALT    ($0094)
00005B90: 98                 CALT    ($00B0)
00005B91: 99                 CALT    ($00B2)
00005B92: 41                 INR     A
00005B93: 00                 NOP     
00005B94: 02                 INX     SP
00005B95: A2                 POP     DE
00005B96: 22                 INX     DE
00005B97: 3E                 STAX    (DE-)
00005B98: 02                 INX     SP
00005B99: 82                 CALT    ($0084)
00005B9A: 02                 INX     SP
00005B9B: 00                 NOP     
00005B9C: 9A                 CALT    ($00B4)
00005B9D: 00                 NOP     
00005B9E: 00                 NOP     
00005B9F: 02                 INX     SP
00005BA0: 02                 INX     SP
00005BA1: A6                 DMOV    EA,DE
00005BA2: 3A                 STAX    (DE)
00005BA3: 22                 INX     DE
00005BA4: 00                 NOP     
00005BA5: 80                 CALT    ($0080)
00005BA6: 00                 NOP     
00005BA7: 25 0F 84           GTIW    VV:0F,$84
00005BAA: 00                 NOP     
00005BAB: 11                 EXX     
00005BAC: 01 41              LDAW    VV:41
00005BAE: 41                 INR     A
00005BAF: 41                 INR     A
00005BB0: 41                 INR     A
00005BB1: 01 01              LDAW    VV:01
00005BB3: 1F                 MOV     L,A
00005BB4: 01 01              LDAW    VV:01
00005BB6: 41                 INR     A
00005BB7: 41                 INR     A
00005BB8: 41                 INR     A
00005BB9: 01 01              LDAW    VV:01
00005BBB: 00                 NOP     
00005BBC: A0                 POP     VA
00005BBD: A0                 POP     VA
00005BBE: A0                 POP     VA
00005BBF: A0                 POP     VA
00005BC0: 20 20              INRW    VV:20
00005BC2: 3E                 STAX    (DE-)
00005BC3: 00                 NOP     
00005BC4: 00                 NOP     
00005BC5: 80                 CALT    ($0080)
00005BC6: 80                 CALT    ($0080)
00005BC7: 80                 CALT    ($0080)
00005BC8: 00                 NOP     
00005BC9: 00                 NOP     
00005BCA: 8E                 CALT    ($009C)
00005BCB: 89                 CALT    ($0092)
00005BCC: 89                 CALT    ($0092)
00005BCD: 41                 INR     A
00005BCE: 40 02 92           CALL    $9202
00005BD1: 92                 CALT    ($00A4)
00005BD2: 9E                 CALT    ($00BC)
00005BD3: 82                 CALT    ($0084)
00005BD4: 82                 CALT    ($0084)
00005BD5: 02                 INX     SP
00005BD6: 40 9B 00           CALL    $009B
00005BD9: 00                 NOP     
00005BDA: 02                 INX     SP
00005BDB: 02                 INX     SP
00005BDC: 56 1A              ACI     A,$1A
00005BDE: 92                 CALT    ($00A4)
00005BDF: 80                 CALT    ($0080)
00005BE0: 80                 CALT    ($0080)
00005BE1: 40 00 02           CALL    $0200
00005BE4: 42                 INR     B
00005BE5: 16 9A              XRI     A,$9A
00005BE7: 92                 CALT    ($00A4)
00005BE8: 80                 CALT    ($0080)
00005BE9: 40 25 0F           CALL    $0F25
00005BEC: 84                 CALT    ($0088)
00005BED: 00                 NOP     
00005BEE: 11                 EXX     
00005BEF: 01 41              LDAW    VV:41
00005BF1: 01 01              LDAW    VV:01
00005BF3: 01 81              LDAW    VV:81
00005BF5: 81                 CALT    ($0082)
00005BF6: 9F                 CALT    ($00BE)
00005BF7: 01 01              LDAW    VV:01
00005BF9: 01 41              LDAW    VV:41
00005BFB: 01 01              LDAW    VV:01
00005BFD: 01 00              LDAW    VV:00
00005BFF: 20 20              INRW    VV:20
00005C01: A0                 POP     VA
00005C02: 20 20              INRW    VV:20
00005C04: 20 3E              INRW    VV:3E
00005C06: 00                 NOP     
00005C07: 80                 CALT    ($0080)
00005C08: 00                 NOP     
00005C09: 00                 NOP     
00005C0A: 00                 NOP     
00005C0B: 00                 NOP     
00005C0C: 00                 NOP     
00005C0D: 8E                 CALT    ($009C)
00005C0E: 89                 CALT    ($0092)
00005C0F: 8A                 CALT    ($0094)
00005C10: 22                 INX     DE
00005C11: 0C                 MOV     A,D
00005C12: 52                 DCR     B
00005C13: 12                 INX     BC
00005C14: 92                 CALT    ($00A4)
00005C15: 92                 CALT    ($00A4)
00005C16: 92                 CALT    ($00A4)
00005C17: 12                 INX     BC
00005C18: 52                 DCR     B
00005C19: 0C                 MOV     A,D
00005C1A: 8B                 CALT    ($0096)
00005C1B: 00                 NOP     
00005C1C: 04 0A 02           LXI     SP,$020A
00005C1F: 52                 DCR     B
00005C20: 12                 INX     BC
00005C21: 92                 CALT    ($00A4)
00005C22: 90                 CALT    ($00A0)
00005C23: 94                 CALT    ($00A8)
00005C24: 48 04              illegal 
00005C26: 0A                 MOV     A,B
00005C27: 52                 DCR     B
00005C28: 12                 INX     BC
00005C29: 92                 CALT    ($00A4)
00005C2A: 92                 CALT    ($00A4)
00005C2B: 94                 CALT    ($00A8)
00005C2C: 48 03              SLRC    C
00005C2E: 11                 EXX     
00005C2F: 80                 CALT    ($0080)
00005C30: 30 01              DCRW    VV:01
00005C32: 0C                 MOV     A,D
00005C33: 02                 INX     SP
00005C34: 10                 EXA     
00005C35: 40 01 01           CALL    $0101
00005C38: 01 81              LDAW    VV:81
00005C3A: 81                 CALT    ($0082)
00005C3B: 81                 CALT    ($0082)
00005C3C: 01 01              LDAW    VV:01
00005C3E: 01 40              LDAW    VV:40
00005C40: 10                 EXA     
00005C41: 02                 INX     SP
00005C42: 0C                 MOV     A,D
00005C43: 0C                 MOV     A,D
00005C44: 10                 EXA     
00005C45: 02                 INX     SP
00005C46: 00                 NOP     
00005C47: 20 A0              INRW    VV:A0
00005C49: 20 20              INRW    VV:20
00005C4B: 20 20              INRW    VV:20
00005C4D: 20 A0              INRW    VV:A0
00005C4F: 20 00              INRW    VV:00
00005C51: 02                 INX     SP
00005C52: 10                 EXA     
00005C53: 0C                 MOV     A,D
00005C54: 8A                 CALT    ($0094)
00005C55: 8A                 CALT    ($0094)
00005C56: 8B                 CALT    ($0096)
00005C57: 18                 MOV     EAH,A
00005C58: 5C 02              BIT     4,VV:02
00005C5A: 82                 CALT    ($0084)
00005C5B: 82                 CALT    ($0084)
00005C5C: 82                 CALT    ($0084)
00005C5D: 82                 CALT    ($0084)
00005C5E: 80                 CALT    ($0080)
00005C5F: 1C                 MOV     D,A
00005C60: 42                 INR     B
00005C61: 8A                 CALT    ($0094)
00005C62: 00                 NOP     
00005C63: 0C                 MOV     A,D
00005C64: 12                 INX     BC
00005C65: 42                 INR     B
00005C66: 02                 INX     SP
00005C67: 82                 CALT    ($0084)
00005C68: 82                 CALT    ($0084)
00005C69: 8C                 CALT    ($0098)
00005C6A: 52                 DCR     B
00005C6B: 00                 NOP     
00005C6C: 01 15              LDAW    VV:15
00005C6E: 40 30 01           CALL    $0130
00005C71: 00                 NOP     
00005C72: 00                 NOP     
00005C73: 00                 NOP     
00005C74: 00                 NOP     
00005C75: 1E                 MOV     H,A
00005C76: 40 01 01           CALL    $0101
00005C79: 01 81              LDAW    VV:81
00005C7B: 81                 CALT    ($0082)
00005C7C: 81                 CALT    ($0082)
00005C7D: 01 00              LDAW    VV:00
00005C7F: 00                 NOP     
00005C80: 42                 INR     B
00005C81: 00                 NOP     
00005C82: 1E                 MOV     H,A
00005C83: 01 01              LDAW    VV:01
00005C85: 01 20              LDAW    VV:20
00005C87: 20 20              INRW    VV:20
00005C89: 20 3C              INRW    VV:3C
00005C8B: 02                 INX     SP
00005C8C: 00                 NOP     
00005C8D: 80                 CALT    ($0080)
00005C8E: 00                 NOP     
00005C8F: 00                 NOP     
00005C90: 00                 NOP     
00005C91: 00                 NOP     
00005C92: 00                 NOP     
00005C93: A0                 POP     VA
00005C94: 22                 INX     DE
00005C95: 20 20              INRW    VV:20
00005C97: 3E                 STAX    (DE-)
00005C98: 00                 NOP     
00005C99: 00                 NOP     
00005C9A: 00                 NOP     
00005C9B: AB 0B              LDAX    (DE+$0B)
00005C9D: 0A                 MOV     A,B
00005C9E: 00                 NOP     
00005C9F: 20 10              INRW    VV:10
00005CA1: 89                 CALT    ($0092)
00005CA2: 02                 INX     SP
00005CA3: 04 88 10           LXI     SP,$1088
00005CA6: 20 00              INRW    VV:00
00005CA8: 20 11              INRW    VV:11
00005CAA: 8A                 CALT    ($0094)
00005CAB: 04 08 90           LXI     SP,$9008
00005CAE: 20 00              INRW    VV:00
00005CB0: 00                 NOP     
00005CB1: 0A                 MOV     A,B
00005CB2: 08                 MOV     A,EAH
00005CB3: 20 11              INRW    VV:11
00005CB5: 8A                 CALT    ($0094)
00005CB6: 04 00 08           LXI     SP,$0800
00005CB9: 90                 CALT    ($00A0)
00005CBA: 20 00              INRW    VV:00
00005CBC: C2                 JR      $5CBF
00005CBD: 14 00 EF           LXI     BC,$EF00
00005CC0: 5C 70              BIT     4,VV:70
00005CC2: 80                 CALT    ($0080)
00005CC3: 00                 NOP     
00005CC4: 00                 NOP     
00005CC5: 00                 NOP     
00005CC6: 00                 NOP     
00005CC7: 50                 EXH     
00005CC8: 40 48 04           CALL    $0448
00005CCB: 02                 INX     SP
00005CCC: 00                 NOP     
00005CCD: 00                 NOP     
00005CCE: 01 02              LDAW    VV:02
00005CD0: 00                 NOP     
00005CD1: 44 48 40           LXI     EA,$4048
00005CD4: 10                 EXA     
00005CD5: 00                 NOP     
00005CD6: 00                 NOP     
00005CD7: 00                 NOP     
00005CD8: 1F                 MOV     L,A
00005CD9: 00                 NOP     
00005CDA: 00                 NOP     
00005CDB: 20 20              INRW    VV:20
00005CDD: 21                 JB      
00005CDE: A0                 POP     VA
00005CDF: B0                 PUSH    VA
00005CE0: A8                 INX     EA
00005CE1: 20 04              INRW    VV:04
00005CE3: 02                 INX     SP
00005CE4: 01 02              LDAW    VV:02
00005CE6: 00                 NOP     
00005CE7: 04 A0 A8           LXI     SP,$A8A0
00005CEA: B0                 PUSH    VA
00005CEB: 20 20              INRW    VV:20
00005CED: 20 20              INRW    VV:20
00005CEF: 80                 CALT    ($0080)
00005CF0: 13                 DCX     BC
00005CF1: 29                 LDAX    (BC)
00005CF2: 00                 NOP     
00005CF3: 00                 NOP     
00005CF4: 00                 NOP     
00005CF5: 00                 NOP     
00005CF6: 00                 NOP     
00005CF7: 10                 EXA     
00005CF8: 40 48 44           CALL    $4448
00005CFB: 00                 NOP     
00005CFC: 02                 INX     SP
00005CFD: 01 02              LDAW    VV:02
00005CFF: 00                 NOP     
00005D00: 44 40 48           LXI     EA,$4840
00005D03: 10                 EXA     
00005D04: 00                 NOP     
00005D05: 00                 NOP     
00005D06: 00                 NOP     
00005D07: 14 00 00           LXI     BC,$0000
00005D0A: 20 20              INRW    VV:20
00005D0C: 20 21              INRW    VV:21
00005D0E: B0                 PUSH    VA
00005D0F: A0                 POP     VA
00005D10: A8                 INX     EA
00005D11: 04 01 00           LXI     SP,$0001
00005D14: 02                 INX     SP
00005D15: 04 A0 A8           LXI     SP,$A8A0
00005D18: B0                 PUSH    VA
00005D19: 20 20              INRW    VV:20
00005D1B: 20 20              INRW    VV:20
00005D1D: 8A                 CALT    ($0094)
00005D1E: 1B                 MOV     C,A
00005D1F: 0B                 MOV     A,C
00005D20: 0A                 MOV     A,B
00005D21: 00                 NOP     
00005D22: 38                 illegal 
00005D23: 44 44 44           LXI     EA,$4444
00005D26: FF                 JR      $5D26
00005D27: 44 44 44           LXI     EA,$4444
00005D2A: 0A                 MOV     A,B
00005D2B: 80                 CALT    ($0080)
00005D2C: 00                 NOP     
00005D2D: 18                 MOV     EAH,A
00005D2E: 20 04              INRW    VV:04
00005D30: 47 5C              ONI     A,$5C
00005D32: E4                 JR      $5D17
00005D33: 44 40 83           LXI     EA,$8340
00005D36: 11                 EXX     
00005D37: 80                 CALT    ($0080)
00005D38: 28                 illegal 
00005D39: 01 00              LDAW    VV:00
00005D3B: 80                 CALT    ($0080)
00005D3C: 00                 NOP     
00005D3D: 0C                 MOV     A,D
00005D3E: 02                 INX     SP
00005D3F: 10                 EXA     
00005D40: 00                 NOP     
00005D41: 01 01              LDAW    VV:01
00005D43: 01 01              LDAW    VV:01
00005D45: 7F 01              CALF    $0F01
00005D47: 01 01              LDAW    VV:01
00005D49: 01 00              LDAW    VV:00
00005D4B: 10                 EXA     
00005D4C: 08                 MOV     A,EAH
00005D4D: 02                 INX     SP
00005D4E: 00                 NOP     
00005D4F: 80                 CALT    ($0080)
00005D50: 00                 NOP     
00005D51: 0C                 MOV     A,D
00005D52: 10                 EXA     
00005D53: 02                 INX     SP
00005D54: 00                 NOP     
00005D55: 20 20              INRW    VV:20
00005D57: 20 20              INRW    VV:20
00005D59: 7F 20              CALF    $0F20
00005D5B: 20 20              INRW    VV:20
00005D5D: 20 00              INRW    VV:00
00005D5F: 12                 INX     BC
00005D60: 00                 NOP     
00005D61: 10                 EXA     
00005D62: 8E                 CALT    ($009C)
00005D63: 9B                 CALT    ($00B6)
00005D64: 8B                 CALT    ($0096)
00005D65: 80                 CALT    ($0080)
00005D66: 00                 NOP     
00005D67: 21                 JB      
00005D68: 21                 JB      
00005D69: 21                 JB      
00005D6A: 7E A0              CALF    $0EA0
00005D6C: A0                 POP     VA
00005D6D: A0                 POP     VA
00005D6E: 00                 NOP     
00005D6F: 8B                 CALT    ($0096)
00005D70: 00                 NOP     
00005D71: 01 21              LDAW    VV:21
00005D73: 21                 JB      
00005D74: 26 38              ADINC   A,$38
00005D76: 60 A0              ADDNC   A,V
00005D78: A0                 POP     VA
00005D79: 80                 CALT    ($0080)
00005D7A: 01 21              LDAW    VV:21
00005D7C: 21                 JB      
00005D7D: 26 78              ADINC   A,$78
00005D7F: A0                 POP     VA
00005D80: A0                 POP     VA
00005D81: A0                 POP     VA
00005D82: 84                 CALT    ($0088)
00005D83: 0F                 MOV     A,L
00005D84: C0                 JR      $5D85
00005D85: 00                 NOP     
00005D86: 03                 DCX     SP
00005D87: 38                 illegal 
00005D88: 00                 NOP     
00005D89: 00                 NOP     
00005D8A: 00                 NOP     
00005D8B: 00                 NOP     
00005D8C: 00                 NOP     
00005D8D: 00                 NOP     
00005D8E: 00                 NOP     
00005D8F: 00                 NOP     
00005D90: 00                 NOP     
00005D91: 7F 00              CALF    $0F00
00005D93: 00                 NOP     
00005D94: 80                 CALT    ($0080)
00005D95: 80                 CALT    ($0080)
00005D96: 80                 CALT    ($0080)
00005D97: 00                 NOP     
00005D98: 00                 NOP     
00005D99: 00                 NOP     
00005D9A: 00                 NOP     
00005D9B: 00                 NOP     
00005D9C: 01 20              LDAW    VV:20
00005D9E: 20 20              INRW    VV:20
00005DA0: 20 20              INRW    VV:20
00005DA2: 21                 JB      
00005DA3: 7E A0              CALF    $0EA0
00005DA5: 20 20              INRW    VV:20
00005DA7: 20 20              INRW    VV:20
00005DA9: 20 80              INRW    VV:80
00005DAB: 8A                 CALT    ($0094)
00005DAC: 8B                 CALT    ($0096)
00005DAD: 8B                 CALT    ($0096)
00005DAE: 12                 INX     BC
00005DAF: 04 0A 2A           LXI     SP,$2A0A
00005DB2: 2A                 LDAX    (DE)
00005DB3: 6A AA              MVI     B,$AA
00005DB5: 28                 illegal 
00005DB6: 1C                 MOV     D,A
00005DB7: 02                 INX     SP
00005DB8: 8A                 CALT    ($0094)
00005DB9: 00                 NOP     
00005DBA: 04 0A 2A           LXI     SP,$2A0A
00005DBD: 2A                 LDAX    (DE)
00005DBE: 2A                 LDAX    (DE)
00005DBF: 6A 2C              MVI     B,$2C
00005DC1: 9A                 CALT    ($00B4)
00005DC2: 00                 NOP     
00005DC3: 02                 INX     SP
00005DC4: 14 80 C0           LXI     BC,$C080
00005DC7: 01 00              LDAW    VV:00
00005DC9: 02                 INX     SP
00005DCA: 04 10 11           LXI     SP,$1110
00005DCD: 11                 EXX     
00005DCE: 01 01              LDAW    VV:01
00005DD0: 01 41              LDAW    VV:41
00005DD2: 01 01              LDAW    VV:01
00005DD4: 01 80              LDAW    VV:80
00005DD6: 90                 CALT    ($00A0)
00005DD7: 8E                 CALT    ($009C)
00005DD8: 00                 NOP     
00005DD9: 01 01              LDAW    VV:01
00005DDB: 01 00              LDAW    VV:00
00005DDD: 04 02 08           LXI     SP,$0802
00005DE0: 28                 illegal 
00005DE1: 28                 illegal 
00005DE2: 28                 illegal 
00005DE3: 28                 illegal 
00005DE4: 28                 illegal 
00005DE5: 28                 illegal 
00005DE6: 28                 illegal 
00005DE7: A8                 INX     EA
00005DE8: A8                 INX     EA
00005DE9: 88                 CALT    ($0090)
00005DEA: 0A                 MOV     A,B
00005DEB: 1C                 MOV     D,A
00005DEC: 02                 INX     SP
00005DED: 00                 NOP     
00005DEE: 00                 NOP     
00005DEF: 00                 NOP     
00005DF0: 8A                 CALT    ($0094)
00005DF1: 98                 CALT    ($00B0)
00005DF2: 8B                 CALT    ($0096)
00005DF3: 41                 INR     A
00005DF4: 00                 NOP     
00005DF5: 02                 INX     SP
00005DF6: 12                 INX     BC
00005DF7: 12                 INX     BC
00005DF8: 5E 82              BIT     6,VV:82
00005DFA: 02                 INX     SP
00005DFB: 02                 INX     SP
00005DFC: 00                 NOP     
00005DFD: 9A                 CALT    ($00B4)
00005DFE: 00                 NOP     
00005DFF: 00                 NOP     
00005E00: 02                 INX     SP
00005E01: 02                 INX     SP
00005E02: 16 1A              XRI     A,$1A
00005E04: 52                 DCR     B
00005E05: 00                 NOP     
00005E06: 80                 CALT    ($0080)
00005E07: 00                 NOP     
00005E08: 25 0F 84           GTIW    VV:0F,$84
00005E0B: 00                 NOP     
00005E0C: 11                 EXX     
00005E0D: 01 01              LDAW    VV:01
00005E0F: 01 01              LDAW    VV:01
00005E11: 41                 INR     A
00005E12: 01 01              LDAW    VV:01
00005E14: 1F                 MOV     L,A
00005E15: 81                 CALT    ($0082)
00005E16: 81                 CALT    ($0082)
00005E17: 81                 CALT    ($0082)
00005E18: 01 01              LDAW    VV:01
00005E1A: 01 01              LDAW    VV:01
00005E1C: 00                 NOP     
00005E1D: 20 20              INRW    VV:20
00005E1F: 20 20              INRW    VV:20
00005E21: 20 A0              INRW    VV:A0
00005E23: BE                 STAX    (HL+EA)
00005E24: 80                 CALT    ($0080)
00005E25: 00                 NOP     
00005E26: 00                 NOP     
00005E27: 00                 NOP     
00005E28: 00                 NOP     
00005E29: 00                 NOP     
00005E2A: 00                 NOP     
00005E2B: 8E                 CALT    ($009C)
00005E2C: 89                 CALT    ($0092)
00005E2D: 8B                 CALT    ($0096)
00005E2E: 12                 INX     BC
00005E2F: 1C                 MOV     D,A
00005E30: 22                 INX     DE
00005E31: 22                 INX     DE
00005E32: 22                 INX     DE
00005E33: 62                 RETI    
00005E34: A2                 POP     DE
00005E35: 22                 INX     DE
00005E36: 22                 INX     DE
00005E37: 1C                 MOV     D,A
00005E38: 8B                 CALT    ($0096)
00005E39: 00                 NOP     
00005E3A: 04 0A 02           LXI     SP,$020A
00005E3D: 12                 INX     BC
00005E3E: 12                 INX     BC
00005E3F: 52                 DCR     B
00005E40: 10                 EXA     
00005E41: 94                 CALT    ($00A8)
00005E42: 08                 MOV     A,EAH
00005E43: 04 0A 12           LXI     SP,$120A
00005E46: 12                 INX     BC
00005E47: 12                 INX     BC
00005E48: 52                 DCR     B
00005E49: 14 88 03           LXI     BC,$0388
00005E4C: 11                 EXX     
00005E4D: 80                 CALT    ($0080)
00005E4E: 80                 CALT    ($0080)
00005E4F: 81                 CALT    ($0082)
00005E50: 0C                 MOV     A,D
00005E51: 02                 INX     SP
00005E52: 10                 EXA     
00005E53: 00                 NOP     
00005E54: 01 01              LDAW    VV:01
00005E56: 41                 INR     A
00005E57: 01 01              LDAW    VV:01
00005E59: 01 81              LDAW    VV:81
00005E5B: 81                 CALT    ($0082)
00005E5C: 81                 CALT    ($0082)
00005E5D: 00                 NOP     
00005E5E: 10                 EXA     
00005E5F: 02                 INX     SP
00005E60: 0C                 MOV     A,D
00005E61: 0C                 MOV     A,D
00005E62: 10                 EXA     
00005E63: 02                 INX     SP
00005E64: 00                 NOP     
00005E65: 20 20              INRW    VV:20
00005E67: 20 20              INRW    VV:20
00005E69: A0                 POP     VA
00005E6A: A0                 POP     VA
00005E6B: A0                 POP     VA
00005E6C: 20 20              INRW    VV:20
00005E6E: 00                 NOP     
00005E6F: 02                 INX     SP
00005E70: 10                 EXA     
00005E71: 0C                 MOV     A,D
00005E72: 8A                 CALT    ($0094)
00005E73: 8A                 CALT    ($0094)
00005E74: 8B                 CALT    ($0096)
00005E75: 30 3C              DCRW    VV:3C
00005E77: 02                 INX     SP
00005E78: 02                 INX     SP
00005E79: 02                 INX     SP
00005E7A: 42                 INR     B
00005E7B: 82                 CALT    ($0084)
00005E7C: 00                 NOP     
00005E7D: 3C                 STAX    (DE+)
00005E7E: 02                 INX     SP
00005E7F: 8A                 CALT    ($0094)
00005E80: 00                 NOP     
00005E81: 0C                 MOV     A,D
00005E82: 12                 INX     BC
00005E83: 02                 INX     SP
00005E84: 02                 INX     SP
00005E85: 42                 INR     B
00005E86: 02                 INX     SP
00005E87: 8C                 CALT    ($0098)
00005E88: 12                 INX     BC
00005E89: 00                 NOP     
00005E8A: 01 15              LDAW    VV:15
00005E8C: C1                 JR      $5E8E
00005E8D: 00                 NOP     
00005E8E: 01 00              LDAW    VV:00
00005E90: 00                 NOP     
00005E91: 00                 NOP     
00005E92: 00                 NOP     
00005E93: 1E                 MOV     H,A
00005E94: 00                 NOP     
00005E95: 01 01              LDAW    VV:01
00005E97: 41                 INR     A
00005E98: 01 01              LDAW    VV:01
00005E9A: 01 81              LDAW    VV:81
00005E9C: 80                 CALT    ($0080)
00005E9D: 80                 CALT    ($0080)
00005E9E: 02                 INX     SP
00005E9F: 00                 NOP     
00005EA0: 1E                 MOV     H,A
00005EA1: 01 01              LDAW    VV:01
00005EA3: 01 20              LDAW    VV:20
00005EA5: 20 20              INRW    VV:20
00005EA7: 20 3C              INRW    VV:3C
00005EA9: 02                 INX     SP
00005EAA: 00                 NOP     
00005EAB: 00                 NOP     
00005EAC: 00                 NOP     
00005EAD: 00                 NOP     
00005EAE: 80                 CALT    ($0080)
00005EAF: 80                 CALT    ($0080)
00005EB0: 80                 CALT    ($0080)
00005EB1: 20 22              INRW    VV:22
00005EB3: 20 20              INRW    VV:20
00005EB5: 3E                 STAX    (DE-)
00005EB6: 00                 NOP     
00005EB7: 00                 NOP     
00005EB8: 00                 NOP     
00005EB9: 8A                 CALT    ($0094)
00005EBA: 8B                 CALT    ($0096)
00005EBB: 8B                 CALT    ($0096)
00005EBC: 18                 MOV     EAH,A
00005EBD: 12                 INX     BC
00005EBE: 2A                 LDAX    (DE)
00005EBF: AA                 EI      
00005EC0: AA                 EI      
00005EC1: AA                 EI      
00005EC2: AA                 EI      
00005EC3: A2                 POP     DE
00005EC4: 72                 SOFTI   
00005EC5: 0A                 MOV     A,B
00005EC6: 8A                 CALT    ($0094)
00005EC7: 00                 NOP     
00005EC8: 12                 INX     BC
00005EC9: 2A                 LDAX    (DE)
00005ECA: AA                 EI      
00005ECB: AA                 EI      
00005ECC: AA                 EI      
00005ECD: AA                 EI      
00005ECE: B2                 PUSH    DE
00005ECF: 68 00              MVI     V,$00
00005ED1: 02                 INX     SP
00005ED2: 14 80 30           LXI     BC,$3080
00005ED5: 01 00              LDAW    VV:00
00005ED7: 09                 MOV     A,EAL
00005ED8: 11                 EXX     
00005ED9: 41                 INR     A
00005EDA: 45 45 05           ONIW    VV:45,$05
00005EDD: 05 05 05           ANIW    VV:05,$05
00005EE0: 05 05 05           ANIW    VV:05,$05
00005EE3: 01 41              LDAW    VV:41
00005EE5: 39                 STAX    (BC)
00005EE6: 01 05              LDAW    VV:05
00005EE8: 05 05 00           ANIW    VV:05,$00
00005EEB: 10                 EXA     
00005EEC: 08                 MOV     A,EAH
00005EED: 20 A0              INRW    VV:A0
00005EEF: A0                 POP     VA
00005EF0: A0                 POP     VA
00005EF1: A0                 POP     VA
00005EF2: A0                 POP     VA
00005EF3: A0                 POP     VA
00005EF4: A0                 POP     VA
00005EF5: A0                 POP     VA
00005EF6: A0                 POP     VA
00005EF7: 20 28              INRW    VV:28
00005EF9: 70 08              illegal 
00005EFB: 00                 NOP     
00005EFC: 00                 NOP     
00005EFD: 00                 NOP     
00005EFE: 8E                 CALT    ($009C)
00005EFF: 8B                 CALT    ($0096)
00005F00: 8B                 CALT    ($0096)
00005F01: 18                 MOV     EAH,A
00005F02: 72                 SOFTI   
00005F03: 8A                 CALT    ($0094)
00005F04: 8A                 CALT    ($0094)
00005F05: 8A                 CALT    ($0094)
00005F06: 8A                 CALT    ($0094)
00005F07: 8A                 CALT    ($0094)
00005F08: 8A                 CALT    ($0094)
00005F09: 8A                 CALT    ($0094)
00005F0A: 72                 SOFTI   
00005F0B: 8B                 CALT    ($0096)
00005F0C: 00                 NOP     
00005F0D: 02                 INX     SP
00005F0E: 32                 INX     HL
00005F0F: 4A 0A              MVIX    DE,$0A
00005F11: 82                 CALT    ($0084)
00005F12: 8A                 CALT    ($0094)
00005F13: 02                 INX     SP
00005F14: 90                 CALT    ($00A0)
00005F15: 60 02              illegal 
00005F17: 32                 INX     HL
00005F18: 4A 0A              MVIX    DE,$0A
00005F1A: 8A                 CALT    ($0094)
00005F1B: 82                 CALT    ($0084)
00005F1C: 92                 CALT    ($00A4)
00005F1D: 60 03              illegal 
00005F1F: 11                 EXX     
00005F20: 80                 CALT    ($0080)
00005F21: 30 01              DCRW    VV:01
00005F23: 31                 BLOCK   
00005F24: 09                 MOV     A,EAL
00005F25: 41                 INR     A
00005F26: 01 05              LDAW    VV:05
00005F28: 05 05 05           ANIW    VV:05,$05
00005F2B: 05 05 05           ANIW    VV:05,$05
00005F2E: 05 05 01           ANIW    VV:05,$01
00005F31: 41                 INR     A
00005F32: 09                 MOV     A,EAL
00005F33: 31                 BLOCK   
00005F34: 30 40              DCRW    VV:40
00005F36: 08                 MOV     A,EAH
00005F37: 00                 NOP     
00005F38: 80                 CALT    ($0080)
00005F39: 80                 CALT    ($0080)
00005F3A: 80                 CALT    ($0080)
00005F3B: 80                 CALT    ($0080)
00005F3C: 80                 CALT    ($0080)
00005F3D: 80                 CALT    ($0080)
00005F3E: 80                 CALT    ($0080)
00005F3F: 80                 CALT    ($0080)
00005F40: 80                 CALT    ($0080)
00005F41: 00                 NOP     
00005F42: 08                 MOV     A,EAH
00005F43: 40 30 8A           CALL    $8A30
00005F46: 8B                 CALT    ($0096)
00005F47: 8B                 CALT    ($0096)
00005F48: 18                 MOV     EAH,A
00005F49: 1C                 MOV     D,A
00005F4A: 10                 EXA     
00005F4B: 10                 EXA     
00005F4C: 10                 EXA     
00005F4D: 10                 EXA     
00005F4E: 10                 EXA     
00005F4F: 10                 EXA     
00005F50: 10                 EXA     
00005F51: 10                 EXA     
00005F52: 8B                 CALT    ($0096)
00005F53: 01 04              LDAW    VV:04
00005F55: 08                 MOV     A,EAH
00005F56: 10                 EXA     
00005F57: 10                 EXA     
00005F58: 10                 EXA     
00005F59: 10                 EXA     
00005F5A: 10                 EXA     
00005F5B: 10                 EXA     
00005F5C: 10                 EXA     
00005F5D: 03                 DCX     SP
00005F5E: 12                 INX     BC
00005F5F: 80                 CALT    ($0080)
00005F60: 30 01              DCRW    VV:01
00005F62: 00                 NOP     
00005F63: 1C                 MOV     D,A
00005F64: 10                 EXA     
00005F65: 10                 EXA     
00005F66: 10                 EXA     
00005F67: 10                 EXA     
00005F68: 10                 EXA     
00005F69: 10                 EXA     
00005F6A: 10                 EXA     
00005F6B: 10                 EXA     
00005F6C: 10                 EXA     
00005F6D: 10                 EXA     
00005F6E: 10                 EXA     
00005F6F: 10                 EXA     
00005F70: 10                 EXA     
00005F71: 10                 EXA     
00005F72: 10                 EXA     
00005F73: 10                 EXA     
00005F74: 00                 NOP     
00005F75: 1C                 MOV     D,A
00005F76: 00                 NOP     
00005F77: 00                 NOP     
00005F78: 00                 NOP     
00005F79: 00                 NOP     
00005F7A: 00                 NOP     
00005F7B: 00                 NOP     
00005F7C: 00                 NOP     
00005F7D: 00                 NOP     
00005F7E: 00                 NOP     
00005F7F: 00                 NOP     
00005F80: 00                 NOP     
00005F81: 00                 NOP     
00005F82: 00                 NOP     
00005F83: 00                 NOP     
00005F84: 00                 NOP     
00005F85: 00                 NOP     
00005F86: 8A                 CALT    ($0094)
00005F87: 8B                 CALT    ($0096)
00005F88: 8B                 CALT    ($0096)
00005F89: 18                 MOV     EAH,A
00005F8A: 10                 EXA     
00005F8B: 10                 EXA     
00005F8C: 10                 EXA     
00005F8D: 10                 EXA     
00005F8E: 10                 EXA     
00005F8F: 10                 EXA     
00005F90: 10                 EXA     
00005F91: 10                 EXA     
00005F92: 1C                 MOV     D,A
00005F93: 8B                 CALT    ($0096)
00005F94: C0                 JR      $5F95
00005F95: 10                 EXA     
00005F96: 10                 EXA     
00005F97: 10                 EXA     
00005F98: 10                 EXA     
00005F99: 10                 EXA     
00005F9A: 10                 EXA     
00005F9B: 14 18 10           LXI     BC,$1018
00005F9E: 03                 DCX     SP
00005F9F: 11                 EXX     
00005FA0: 80                 CALT    ($0080)
00005FA1: 30 01              DCRW    VV:01
00005FA3: 10                 EXA     
00005FA4: 10                 EXA     
00005FA5: 10                 EXA     
00005FA6: 10                 EXA     
00005FA7: 10                 EXA     
00005FA8: 10                 EXA     
00005FA9: 10                 EXA     
00005FAA: 10                 EXA     
00005FAB: 10                 EXA     
00005FAC: 10                 EXA     
00005FAD: 10                 EXA     
00005FAE: 10                 EXA     
00005FAF: 10                 EXA     
00005FB0: 10                 EXA     
00005FB1: 10                 EXA     
00005FB2: 10                 EXA     
00005FB3: 1C                 MOV     D,A
00005FB4: 00                 NOP     
00005FB5: 00                 NOP     
00005FB6: 00                 NOP     
00005FB7: 00                 NOP     
00005FB8: 00                 NOP     
00005FB9: 00                 NOP     
00005FBA: 00                 NOP     
00005FBB: 00                 NOP     
00005FBC: 00                 NOP     
00005FBD: 00                 NOP     
00005FBE: 00                 NOP     
00005FBF: 00                 NOP     
00005FC0: 00                 NOP     
00005FC1: 00                 NOP     
00005FC2: 00                 NOP     
00005FC3: 00                 NOP     
00005FC4: 1C                 MOV     D,A
00005FC5: 9F                 CALT    ($00BE)
00005FC6: 8B                 CALT    ($0096)
00005FC7: 8B                 CALT    ($0096)
00005FC8: 00                 NOP     
00005FC9: E0                 JR      $5FAA
00005FCA: 04 08 10           LXI     SP,$1008
00005FCD: 33                 DCX     HL
00005FCE: 55 95 15           OFFIW   VV:95,$15
00005FD1: 09                 MOV     A,EAL
00005FD2: E4                 JR      $5FB7
00005FD3: 08                 MOV     A,EAH
00005FD4: 10                 EXA     
00005FD5: 33                 DCX     HL
00005FD6: 55 95 15           OFFIW   VV:95,$15
00005FD9: 09                 MOV     A,EAL
00005FDA: 8B                 CALT    ($0096)
00005FDB: 00                 NOP     
00005FDC: 28                 illegal 
00005FDD: 40 90 01           CALL    $0190
00005FE0: 23                 DCX     DE
00005FE1: 11                 EXX     
00005FE2: 55 11 08           OFFIW   VV:11,$08
00005FE5: 20 50              INRW    VV:50
00005FE7: 81                 CALT    ($0082)
00005FE8: 29                 LDAX    (BC)
00005FE9: 13                 DCX     BC
00005FEA: 51                 DCR     A
00005FEB: 15 88 C1           ORIW    VV:88,$C1
00005FEE: 15 00 22           ORIW    VV:00,$22
00005FF1: 60 00              illegal 
00005FF3: 3F                 STAX    (HL-)
00005FF4: F8                 JR      $5FED
00005FF5: 02                 INX     SP
00005FF6: 00                 NOP     
00005FF7: 00                 NOP     
00005FF8: 00                 NOP     
00005FF9: 04 F0 00           LXI     SP,$00F0
00005FFC: 00                 NOP     
00005FFD: 08                 MOV     A,EAH
00005FFE: 00                 NOP     
00005FFF: 04 00 10           LXI     SP,$1000
00006002: 01 00              LDAW    VV:00
00006004: 00                 NOP     
00006005: 20 00              INRW    VV:00
00006007: 00                 NOP     
00006008: 02                 INX     SP
00006009: 44 00 00           LXI     EA,$0000
0000600C: 00                 NOP     
0000600D: 10                 EXA     
0000600E: 90                 CALT    ($00A0)
0000600F: 94                 CALT    ($00A8)
00006010: 90                 CALT    ($00A0)
00006011: 90                 CALT    ($00A0)
00006012: F0                 JR      $6003
00006013: 18                 MOV     EAH,A
00006014: 10                 EXA     
00006015: 10                 EXA     
00006016: 00                 NOP     
00006017: 14 05 0C           LXI     BC,$0C05
0000601A: 08                 MOV     A,EAH
0000601B: 28                 illegal 
0000601C: 0A                 MOV     A,B
0000601D: 0A                 MOV     A,B
0000601E: 0A                 MOV     A,B
0000601F: 48 00              illegal 
00006021: 05 80 13           ANIW    VV:80,$13
00006024: 00                 NOP     
00006025: 3F                 STAX    (HL-)
00006026: E0                 JR      $6007
00006027: 02                 INX     SP
00006028: 00                 NOP     
00006029: 00                 NOP     
0000602A: 00                 NOP     
0000602B: F4                 JR      $6020
0000602C: 00                 NOP     
0000602D: 00                 NOP     
0000602E: 00                 NOP     
0000602F: 08                 MOV     A,EAH
00006030: 00                 NOP     
00006031: 04 00 10           LXI     SP,$1000
00006034: 01 00              LDAW    VV:00
00006036: 00                 NOP     
00006037: 20 02              INRW    VV:02
00006039: 04 00 00           LXI     SP,$0000
0000603C: 00                 NOP     
0000603D: 90                 CALT    ($00A0)
0000603E: 90                 CALT    ($00A0)
0000603F: 94                 CALT    ($00A8)
00006040: 90                 CALT    ($00A0)
00006041: F0                 JR      $6032
00006042: 10                 EXA     
00006043: 18                 MOV     EAH,A
00006044: 10                 EXA     
00006045: 10                 EXA     
00006046: 00                 NOP     
00006047: 14 0D 0C           LXI     BC,$0C0D
0000604A: 08                 MOV     A,EAH
0000604B: 28                 illegal 
0000604C: 0A                 MOV     A,B
0000604D: 08                 MOV     A,EAH
0000604E: 08                 MOV     A,EAH
0000604F: 45 9F 8B           ONIW    VV:9F,$8B
00006052: 8B                 CALT    ($0096)
00006053: 00                 NOP     
00006054: E0                 JR      $6035
00006055: 04 08 10           LXI     SP,$1008
00006058: 22                 INX     DE
00006059: 46 8A              ADI     A,$8A
0000605B: 02                 INX     SP
0000605C: 1F                 MOV     L,A
0000605D: E0                 JR      $603E
0000605E: 04 08 12           LXI     SP,$1208
00006061: 26 4A              ADINC   A,$4A
00006063: 82                 CALT    ($0084)
00006064: 1F                 MOV     L,A
00006065: 8B                 CALT    ($0096)
00006066: 00                 NOP     
00006067: 28                 illegal 
00006068: 40 92 06           CALL    $0692
0000606B: 2A                 LDAX    (DE)
0000606C: 13                 DCX     BC
0000606D: 46 02              ADI     A,$02
0000606F: 02                 INX     SP
00006070: 28                 illegal 
00006071: 42                 INR     B
00006072: 96                 CALT    ($00AC)
00006073: 0A                 MOV     A,B
00006074: 33                 DCX     HL
00006075: 06                 illegal 
00006076: 42                 INR     B
00006077: 02                 INX     SP
00006078: C1                 JR      $607A
00006079: 15 00 AD           ORIW    VV:00,$AD
0000607C: 60 00              illegal 
0000607E: 03                 DCX     SP
0000607F: F8                 JR      $6078
00006080: 02                 INX     SP
00006081: 00                 NOP     
00006082: 00                 NOP     
00006083: 00                 NOP     
00006084: 04 F0 00           LXI     SP,$00F0
00006087: 00                 NOP     
00006088: 08                 MOV     A,EAH
00006089: 02                 INX     SP
0000608A: 00                 NOP     
0000608B: 00                 NOP     
0000608C: 14 00 00           LXI     BC,$0000
0000608F: 08                 MOV     A,EAH
00006090: 28                 illegal 
00006091: 0F                 MOV     A,L
00006092: 00                 NOP     
00006093: 00                 NOP     
00006094: 40 00 00           CALL    $0000
00006097: 00                 NOP     
00006098: 10                 EXA     
00006099: 90                 CALT    ($00A0)
0000609A: 94                 CALT    ($00A8)
0000609B: 90                 CALT    ($00A0)
0000609C: 90                 CALT    ($00A0)
0000609D: F0                 JR      $608E
0000609E: 18                 MOV     EAH,A
0000609F: 12                 INX     BC
000060A0: 12                 INX     BC
000060A1: 02                 INX     SP
000060A2: 16 02              XRI     A,$02
000060A4: 02                 INX     SP
000060A5: 02                 INX     SP
000060A6: 2A                 LDAX    (DE)
000060A7: 02                 INX     SP
000060A8: 00                 NOP     
000060A9: 0D                 MOV     A,E
000060AA: 42                 INR     B
000060AB: 02                 INX     SP
000060AC: 02                 INX     SP
000060AD: 80                 CALT    ($0080)
000060AE: 13                 DCX     BC
000060AF: 00                 NOP     
000060B0: 0F                 MOV     A,L
000060B1: E0                 JR      $6092
000060B2: 02                 INX     SP
000060B3: 00                 NOP     
000060B4: 00                 NOP     
000060B5: 00                 NOP     
000060B6: F4                 JR      $60AB
000060B7: 00                 NOP     
000060B8: 00                 NOP     
000060B9: 00                 NOP     
000060BA: 08                 MOV     A,EAH
000060BB: 00                 NOP     
000060BC: 02                 INX     SP
000060BD: 00                 NOP     
000060BE: 14 00 08           LXI     BC,$0800
000060C1: 08                 MOV     A,EAH
000060C2: 2F                 LDAX    (HL-)
000060C3: 00                 NOP     
000060C4: 00                 NOP     
000060C5: 00                 NOP     
000060C6: 00                 NOP     
000060C7: 00                 NOP     
000060C8: 90                 CALT    ($00A0)
000060C9: 90                 CALT    ($00A0)
000060CA: 94                 CALT    ($00A8)
000060CB: 90                 CALT    ($00A0)
000060CC: F0                 JR      $60BD
000060CD: 10                 EXA     
000060CE: 18                 MOV     EAH,A
000060CF: 10                 EXA     
000060D0: 10                 EXA     
000060D1: 02                 INX     SP
000060D2: 12                 INX     BC
000060D3: 06                 illegal 
000060D4: 02                 INX     SP
000060D5: 0A                 MOV     A,B
000060D6: 22                 INX     DE
000060D7: 02                 INX     SP
000060D8: 0D                 MOV     A,E
000060D9: 00                 NOP     
000060DA: 42                 INR     B
000060DB: 8E                 CALT    ($009C)
000060DC: 8B                 CALT    ($0096)
000060DD: 8B                 CALT    ($0096)
000060DE: 80                 CALT    ($0080)
000060DF: 00                 NOP     
000060E0: 10                 EXA     
000060E1: 28                 illegal 
000060E2: 44 00 10           LXI     EA,$1000
000060E5: 28                 illegal 
000060E6: 44 00 8B           LXI     EA,$8B00
000060E9: 00                 NOP     
000060EA: 10                 EXA     
000060EB: 08                 MOV     A,EAH
000060EC: 24 00 50           LXI     DE,$5000
000060EF: 08                 MOV     A,EAH
000060F0: 24 00 40           LXI     DE,$4000
000060F3: 10                 EXA     
000060F4: 08                 MOV     A,EAH
000060F5: 24 10 48           LXI     DE,$4810
000060F8: 24 00 40           LXI     DE,$4000
000060FB: 02                 INX     SP
000060FC: 13                 DCX     BC
000060FD: C0                 JR      $60FE
000060FE: 00                 NOP     
000060FF: 03                 DCX     SP
00006100: 08                 MOV     A,EAH
00006101: 00                 NOP     
00006102: 00                 NOP     
00006103: 00                 NOP     
00006104: 14 00 00           LXI     BC,$0000
00006107: 00                 NOP     
00006108: 2A                 LDAX    (DE)
00006109: 00                 NOP     
0000610A: 00                 NOP     
0000610B: 00                 NOP     
0000610C: 14 00 00           LXI     BC,$0000
0000610F: 00                 NOP     
00006110: 22                 INX     DE
00006111: 00                 NOP     
00006112: 00                 NOP     
00006113: 00                 NOP     
00006114: 00                 NOP     
00006115: 18                 MOV     EAH,A
00006116: 00                 NOP     
00006117: 00                 NOP     
00006118: 00                 NOP     
00006119: 24 00 00           LXI     DE,$0000
0000611C: 00                 NOP     
0000611D: 5A 00              BIT     2,VV:00
0000611F: 00                 NOP     
00006120: 00                 NOP     
00006121: 24 00 00           LXI     DE,$0000
00006124: 00                 NOP     
00006125: 42                 INR     B
00006126: 8E                 CALT    ($009C)
00006127: 8B                 CALT    ($0096)
00006128: 8B                 CALT    ($0096)
00006129: 80                 CALT    ($0080)
0000612A: 00                 NOP     
0000612B: 44 28 10           LXI     EA,$1028
0000612E: 00                 NOP     
0000612F: 44 28 10           LXI     EA,$1028
00006132: 00                 NOP     
00006133: 8B                 CALT    ($0096)
00006134: 00                 NOP     
00006135: 04 00 48           LXI     SP,$4800
00006138: 20 14              INRW    VV:14
0000613A: 00                 NOP     
0000613B: 48 20              illegal 
0000613D: 10                 EXA     
0000613E: 04 00 48           LXI     SP,$4800
00006141: 24 10 48           LXI     DE,$4810
00006144: 20 10              INRW    VV:10
00006146: 03                 DCX     SP
00006147: 13                 DCX     BC
00006148: E0                 JR      $6129
00006149: 00                 NOP     
0000614A: 01 00              LDAW    VV:00
0000614C: 00                 NOP     
0000614D: 22                 INX     DE
0000614E: 00                 NOP     
0000614F: 00                 NOP     
00006150: 00                 NOP     
00006151: 14 00 00           LXI     BC,$0000
00006154: 00                 NOP     
00006155: 2A                 LDAX    (DE)
00006156: 00                 NOP     
00006157: 00                 NOP     
00006158: 00                 NOP     
00006159: 14 00 00           LXI     BC,$0000
0000615C: 00                 NOP     
0000615D: 08                 MOV     A,EAH
0000615E: 42                 INR     B
0000615F: 00                 NOP     
00006160: 00                 NOP     
00006161: 00                 NOP     
00006162: 24 00 00           LXI     DE,$0000
00006165: 00                 NOP     
00006166: 5A 00              BIT     2,VV:00
00006168: 00                 NOP     
00006169: 00                 NOP     
0000616A: 24 00 00           LXI     DE,$0000
0000616D: 00                 NOP     
0000616E: 18                 MOV     EAH,A
0000616F: 00                 NOP     
00006170: 00                 NOP     
00006171: 40 8B 11           CALL    $118B
00006174: AA                 EI      
00006175: 00                 NOP     
00006176: 00                 NOP     
00006177: 00                 NOP     
00006178: AA                 EI      
00006179: 00                 NOP     
0000617A: 00                 NOP     
0000617B: 00                 NOP     
0000617C: AA                 EI      
0000617D: 00                 NOP     
0000617E: 00                 NOP     
0000617F: 40 8B 0E           CALL    $0E8B
00006182: AA                 EI      
00006183: 00                 NOP     
00006184: 55 00 AA           OFFIW   VV:00,$AA
00006187: 00                 NOP     
00006188: 55 00 AA           OFFIW   VV:00,$AA
0000618B: 00                 NOP     
0000618C: 55 40 8B           OFFIW   VV:40,$8B
0000618F: E0                 JR      $6170
00006190: AA                 EI      
00006191: 55 00 AA           OFFIW   VV:00,$AA
00006194: 55 00 AA           OFFIW   VV:00,$AA
00006197: 55 00 AA           OFFIW   VV:00,$AA
0000619A: 55 40 8B           OFFIW   VV:40,$8B
0000619D: 03                 DCX     SP
0000619E: 00                 NOP     
0000619F: 00                 NOP     
000061A0: 00                 NOP     
000061A1: 00                 NOP     
000061A2: FF                 JR      $61A2
000061A3: 00                 NOP     
000061A4: 00                 NOP     
000061A5: 00                 NOP     
000061A6: 00                 NOP     
000061A7: 00                 NOP     
000061A8: 00                 NOP     
000061A9: 40 8B 03           CALL    $038B
000061AC: 04 04 04           LXI     SP,$0404
000061AF: 04 FF 00           LXI     SP,$00FF
000061B2: 00                 NOP     
000061B3: 00                 NOP     
000061B4: 00                 NOP     
000061B5: 00                 NOP     
000061B6: 00                 NOP     
000061B7: 40 8B 03           CALL    $038B
000061BA: 0A                 MOV     A,B
000061BB: 0A                 MOV     A,B
000061BC: 0A                 MOV     A,B
000061BD: 0A                 MOV     A,B
000061BE: FF                 JR      $61BE
000061BF: 00                 NOP     
000061C0: 00                 NOP     
000061C1: 00                 NOP     
000061C2: 00                 NOP     
000061C3: 00                 NOP     
000061C4: 00                 NOP     
000061C5: 40 8B 18           CALL    $188B
000061C8: 04 04 FF           LXI     SP,$FF04
000061CB: 00                 NOP     
000061CC: 00                 NOP     
000061CD: 00                 NOP     
000061CE: FF                 JR      $61CE
000061CF: 00                 NOP     
000061D0: 00                 NOP     
000061D1: 00                 NOP     
000061D2: 00                 NOP     
000061D3: 40 8B 18           CALL    $188B
000061D6: 04 04 07           LXI     SP,$0704
000061D9: 04 04 04           LXI     SP,$0404
000061DC: 07 00              ANI     A,$00
000061DE: 00                 NOP     
000061DF: 00                 NOP     
000061E0: 00                 NOP     
000061E1: 40 8B 03           CALL    $038B
000061E4: 0A                 MOV     A,B
000061E5: 0A                 MOV     A,B
000061E6: 0A                 MOV     A,B
000061E7: 0A                 MOV     A,B
000061E8: 0F                 MOV     A,L
000061E9: 00                 NOP     
000061EA: 00                 NOP     
000061EB: 00                 NOP     
000061EC: 00                 NOP     
000061ED: 00                 NOP     
000061EE: 00                 NOP     
000061EF: 40 8B 18           CALL    $188B
000061F2: 0A                 MOV     A,B
000061F3: 0A                 MOV     A,B
000061F4: FB                 JR      $61F0
000061F5: 00                 NOP     
000061F6: 00                 NOP     
000061F7: 00                 NOP     
000061F8: FF                 JR      $61F8
000061F9: 00                 NOP     
000061FA: 00                 NOP     
000061FB: 00                 NOP     
000061FC: 00                 NOP     
000061FD: 40 8B 18           CALL    $188B
00006200: 00                 NOP     
00006201: 00                 NOP     
00006202: FF                 JR      $6202
00006203: 00                 NOP     
00006204: 00                 NOP     
00006205: 00                 NOP     
00006206: FF                 JR      $6206
00006207: 00                 NOP     
00006208: 00                 NOP     
00006209: 00                 NOP     
0000620A: 00                 NOP     
0000620B: 40 8B 18           CALL    $188B
0000620E: 0A                 MOV     A,B
0000620F: 0A                 MOV     A,B
00006210: 0B                 MOV     A,C
00006211: 08                 MOV     A,EAH
00006212: 08                 MOV     A,EAH
00006213: 08                 MOV     A,EAH
00006214: 0F                 MOV     A,L
00006215: 00                 NOP     
00006216: 00                 NOP     
00006217: 00                 NOP     
00006218: 00                 NOP     
00006219: 40 8B 18           CALL    $188B
0000621C: 0A                 MOV     A,B
0000621D: 0A                 MOV     A,B
0000621E: FA                 JR      $6219
0000621F: 02                 INX     SP
00006220: 02                 INX     SP
00006221: 02                 INX     SP
00006222: FE                 JR      $6221
00006223: 00                 NOP     
00006224: 00                 NOP     
00006225: 00                 NOP     
00006226: 00                 NOP     
00006227: 40 8B 18           CALL    $188B
0000622A: 04 04 FC           LXI     SP,$FC04
0000622D: 04 04 04           LXI     SP,$0404
00006230: FC                 JR      $622D
00006231: 00                 NOP     
00006232: 00                 NOP     
00006233: 00                 NOP     
00006234: 00                 NOP     
00006235: 40 8B 03           CALL    $038B
00006238: 0A                 MOV     A,B
00006239: 0A                 MOV     A,B
0000623A: 0A                 MOV     A,B
0000623B: 0A                 MOV     A,B
0000623C: FE                 JR      $623B
0000623D: 00                 NOP     
0000623E: 00                 NOP     
0000623F: 00                 NOP     
00006240: 00                 NOP     
00006241: 00                 NOP     
00006242: 00                 NOP     
00006243: 40 8B 03           CALL    $038B
00006246: 04 04 04           LXI     SP,$0404
00006249: 04 07 00           LXI     SP,$0007
0000624C: 00                 NOP     
0000624D: 00                 NOP     
0000624E: 00                 NOP     
0000624F: 00                 NOP     
00006250: 00                 NOP     
00006251: 40 8B 03           CALL    $038B
00006254: 00                 NOP     
00006255: 00                 NOP     
00006256: 00                 NOP     
00006257: 00                 NOP     
00006258: FC                 JR      $6255
00006259: 04 04 04           LXI     SP,$0404
0000625C: 04 04 04           LXI     SP,$0404
0000625F: 40 8B 03           CALL    $038B
00006262: 04 04 04           LXI     SP,$0404
00006265: 04 FC 04           LXI     SP,$04FC
00006268: 04 04 04           LXI     SP,$0404
0000626B: 04 04 40           LXI     SP,$4004
0000626E: 8B                 CALT    ($0096)
0000626F: 03                 DCX     SP
00006270: 04 04 04           LXI     SP,$0404
00006273: 04 07 04           LXI     SP,$0407
00006276: 04 04 04           LXI     SP,$0404
00006279: 04 04 40           LXI     SP,$4004
0000627C: 8B                 CALT    ($0096)
0000627D: 03                 DCX     SP
0000627E: 00                 NOP     
0000627F: 00                 NOP     
00006280: 00                 NOP     
00006281: 00                 NOP     
00006282: FF                 JR      $6282
00006283: 04 04 04           LXI     SP,$0404
00006286: 04 04 04           LXI     SP,$0404
00006289: 40 8B 03           CALL    $038B
0000628C: 04 04 04           LXI     SP,$0404
0000628F: 04 04 04           LXI     SP,$0404
00006292: 04 04 04           LXI     SP,$0404
00006295: 04 04 40           LXI     SP,$4004
00006298: 8B                 CALT    ($0096)
00006299: 03                 DCX     SP
0000629A: 04 04 04           LXI     SP,$0404
0000629D: 04 FF 04           LXI     SP,$04FF
000062A0: 04 04 04           LXI     SP,$0404
000062A3: 04 04 40           LXI     SP,$4004
000062A6: 8B                 CALT    ($0096)
000062A7: 03                 DCX     SP
000062A8: 00                 NOP     
000062A9: 00                 NOP     
000062AA: 00                 NOP     
000062AB: 00                 NOP     
000062AC: FF                 JR      $62AC
000062AD: 0A                 MOV     A,B
000062AE: 0A                 MOV     A,B
000062AF: 0A                 MOV     A,B
000062B0: 0A                 MOV     A,B
000062B1: 0A                 MOV     A,B
000062B2: 0A                 MOV     A,B
000062B3: 40 8B 18           CALL    $188B
000062B6: 00                 NOP     
000062B7: 00                 NOP     
000062B8: FF                 JR      $62B8
000062B9: 00                 NOP     
000062BA: 00                 NOP     
000062BB: 00                 NOP     
000062BC: FF                 JR      $62BC
000062BD: 04 04 04           LXI     SP,$0404
000062C0: 04 40 8B           LXI     SP,$8B40
000062C3: 18                 MOV     EAH,A
000062C4: 00                 NOP     
000062C5: 00                 NOP     
000062C6: FE                 JR      $62C5
000062C7: 02                 INX     SP
000062C8: 02                 INX     SP
000062C9: 02                 INX     SP
000062CA: FA                 JR      $62C5
000062CB: 0A                 MOV     A,B
000062CC: 0A                 MOV     A,B
000062CD: 0A                 MOV     A,B
000062CE: 0A                 MOV     A,B
000062CF: 40 8B 18           CALL    $188B
000062D2: 00                 NOP     
000062D3: 00                 NOP     
000062D4: 0F                 MOV     A,L
000062D5: 08                 MOV     A,EAH
000062D6: 08                 MOV     A,EAH
000062D7: 08                 MOV     A,EAH
000062D8: 0B                 MOV     A,C
000062D9: 0A                 MOV     A,B
000062DA: 0A                 MOV     A,B
000062DB: 0A                 MOV     A,B
000062DC: 0A                 MOV     A,B
000062DD: 40 8B 18           CALL    $188B
000062E0: 0A                 MOV     A,B
000062E1: 0A                 MOV     A,B
000062E2: FA                 JR      $62DD
000062E3: 02                 INX     SP
000062E4: 02                 INX     SP
000062E5: 02                 INX     SP
000062E6: FA                 JR      $62E1
000062E7: 0A                 MOV     A,B
000062E8: 0A                 MOV     A,B
000062E9: 0A                 MOV     A,B
000062EA: 0A                 MOV     A,B
000062EB: 40 8B 18           CALL    $188B
000062EE: 0A                 MOV     A,B
000062EF: 0A                 MOV     A,B
000062F0: 0B                 MOV     A,C
000062F1: 08                 MOV     A,EAH
000062F2: 08                 MOV     A,EAH
000062F3: 08                 MOV     A,EAH
000062F4: 0B                 MOV     A,C
000062F5: 0A                 MOV     A,B
000062F6: 0A                 MOV     A,B
000062F7: 0A                 MOV     A,B
000062F8: 0A                 MOV     A,B
000062F9: 40 8B 18           CALL    $188B
000062FC: 00                 NOP     
000062FD: 00                 NOP     
000062FE: FF                 JR      $62FE
000062FF: 00                 NOP     
00006300: 00                 NOP     
00006301: 00                 NOP     
00006302: FB                 JR      $62FE
00006303: 0A                 MOV     A,B
00006304: 0A                 MOV     A,B
00006305: 0A                 MOV     A,B
00006306: 0A                 MOV     A,B
00006307: 40 8B 03           CALL    $038B
0000630A: 0A                 MOV     A,B
0000630B: 0A                 MOV     A,B
0000630C: 0A                 MOV     A,B
0000630D: 0A                 MOV     A,B
0000630E: 0A                 MOV     A,B
0000630F: 0A                 MOV     A,B
00006310: 0A                 MOV     A,B
00006311: 0A                 MOV     A,B
00006312: 0A                 MOV     A,B
00006313: 0A                 MOV     A,B
00006314: 0A                 MOV     A,B
00006315: 40 8B 18           CALL    $188B
00006318: 0A                 MOV     A,B
00006319: 0A                 MOV     A,B
0000631A: FB                 JR      $6316
0000631B: 00                 NOP     
0000631C: 00                 NOP     
0000631D: 00                 NOP     
0000631E: FB                 JR      $631A
0000631F: 0A                 MOV     A,B
00006320: 0A                 MOV     A,B
00006321: 0A                 MOV     A,B
00006322: 0A                 MOV     A,B
00006323: 40 8B 03           CALL    $038B
00006326: 0A                 MOV     A,B
00006327: 0A                 MOV     A,B
00006328: 0A                 MOV     A,B
00006329: 0A                 MOV     A,B
0000632A: FA                 JR      $6325
0000632B: 0A                 MOV     A,B
0000632C: 0A                 MOV     A,B
0000632D: 0A                 MOV     A,B
0000632E: 0A                 MOV     A,B
0000632F: 0A                 MOV     A,B
00006330: 0A                 MOV     A,B
00006331: 40 8B 18           CALL    $188B
00006334: 04 04 FC           LXI     SP,$FC04
00006337: 04 04 04           LXI     SP,$0404
0000633A: FC                 JR      $6337
0000633B: 04 04 04           LXI     SP,$0404
0000633E: 04 40 8B           LXI     SP,$8B40
00006341: 03                 DCX     SP
00006342: 0A                 MOV     A,B
00006343: 0A                 MOV     A,B
00006344: 0A                 MOV     A,B
00006345: 0A                 MOV     A,B
00006346: 0B                 MOV     A,C
00006347: 0A                 MOV     A,B
00006348: 0A                 MOV     A,B
00006349: 0A                 MOV     A,B
0000634A: 0A                 MOV     A,B
0000634B: 0A                 MOV     A,B
0000634C: 0A                 MOV     A,B
0000634D: 40 8B 18           CALL    $188B
00006350: 04 04 07           LXI     SP,$0704
00006353: 04 04 04           LXI     SP,$0404
00006356: 07 04              ANI     A,$04
00006358: 04 04 04           LXI     SP,$0404
0000635B: 40 8B 18           CALL    $188B
0000635E: 00                 NOP     
0000635F: 00                 NOP     
00006360: FC                 JR      $635D
00006361: 04 04 04           LXI     SP,$0404
00006364: FC                 JR      $6361
00006365: 04 04 04           LXI     SP,$0404
00006368: 04 40 8B           LXI     SP,$8B40
0000636B: 03                 DCX     SP
0000636C: 00                 NOP     
0000636D: 00                 NOP     
0000636E: 00                 NOP     
0000636F: 00                 NOP     
00006370: FE                 JR      $636F
00006371: 0A                 MOV     A,B
00006372: 0A                 MOV     A,B
00006373: 0A                 MOV     A,B
00006374: 0A                 MOV     A,B
00006375: 0A                 MOV     A,B
00006376: 0A                 MOV     A,B
00006377: 40 8B 03           CALL    $038B
0000637A: 00                 NOP     
0000637B: 00                 NOP     
0000637C: 00                 NOP     
0000637D: 00                 NOP     
0000637E: 0F                 MOV     A,L
0000637F: 0A                 MOV     A,B
00006380: 0A                 MOV     A,B
00006381: 0A                 MOV     A,B
00006382: 0A                 MOV     A,B
00006383: 0A                 MOV     A,B
00006384: 0A                 MOV     A,B
00006385: 40 8B 18           CALL    $188B
00006388: 00                 NOP     
00006389: 00                 NOP     
0000638A: 07 04              ANI     A,$04
0000638C: 04 04 07           LXI     SP,$0704
0000638F: 04 04 04           LXI     SP,$0404
00006392: 04 40 8B           LXI     SP,$8B40
00006395: 18                 MOV     EAH,A
00006396: 04 04 FF           LXI     SP,$FF04
00006399: 04 04 04           LXI     SP,$0404
0000639C: FF                 JR      $639C
0000639D: 04 04 04           LXI     SP,$0404
000063A0: 04 40 8B           LXI     SP,$8B40
000063A3: 03                 DCX     SP
000063A4: 0A                 MOV     A,B
000063A5: 0A                 MOV     A,B
000063A6: 0A                 MOV     A,B
000063A7: 0A                 MOV     A,B
000063A8: FF                 JR      $63A8
000063A9: 0A                 MOV     A,B
000063AA: 0A                 MOV     A,B
000063AB: 0A                 MOV     A,B
000063AC: 0A                 MOV     A,B
000063AD: 0A                 MOV     A,B
000063AE: 0A                 MOV     A,B
000063AF: 40 8B 03           CALL    $038B
000063B2: 04 04 04           LXI     SP,$0404
000063B5: 04 FC 00           LXI     SP,$00FC
000063B8: 00                 NOP     
000063B9: 00                 NOP     
000063BA: 00                 NOP     
000063BB: 00                 NOP     
000063BC: 00                 NOP     
000063BD: 40 8B 03           CALL    $038B
000063C0: 00                 NOP     
000063C1: 00                 NOP     
000063C2: 00                 NOP     
000063C3: 00                 NOP     
000063C4: 07 04              ANI     A,$04
000063C6: 04 04 04           LXI     SP,$0404
000063C9: 04 04 40           LXI     SP,$4004
000063CC: 8B                 CALT    ($0096)
000063CD: 03                 DCX     SP
000063CE: FF                 JR      $63CE
000063CF: FF                 JR      $63CF
000063D0: FF                 JR      $63D0
000063D1: FF                 JR      $63D1
000063D2: FF                 JR      $63D2
000063D3: FF                 JR      $63D3
000063D4: FF                 JR      $63D4
000063D5: FF                 JR      $63D5
000063D6: FF                 JR      $63D6
000063D7: FF                 JR      $63D7
000063D8: FF                 JR      $63D8
000063D9: 40 8B 03           CALL    $038B
000063DC: 03                 DCX     SP
000063DD: 03                 DCX     SP
000063DE: 03                 DCX     SP
000063DF: 03                 DCX     SP
000063E0: 03                 DCX     SP
000063E1: 03                 DCX     SP
000063E2: 03                 DCX     SP
000063E3: 03                 DCX     SP
000063E4: 03                 DCX     SP
000063E5: 03                 DCX     SP
000063E6: 03                 DCX     SP
000063E7: 40 8B 0C           CALL    $0C8B
000063EA: FF                 JR      $63EA
000063EB: FF                 JR      $63EB
000063EC: FF                 JR      $63EC
000063ED: FF                 JR      $63ED
000063EE: FF                 JR      $63EE
000063EF: FF                 JR      $63EF
000063F0: 00                 NOP     
000063F1: 00                 NOP     
000063F2: 00                 NOP     
000063F3: 00                 NOP     
000063F4: 00                 NOP     
000063F5: 40 8B 0C           CALL    $0C8B
000063F8: 00                 NOP     
000063F9: 00                 NOP     
000063FA: 00                 NOP     
000063FB: 00                 NOP     
000063FC: 00                 NOP     
000063FD: 00                 NOP     
000063FE: FF                 JR      $63FE
000063FF: FF                 JR      $63FF
00006400: FF                 JR      $6400
00006401: FF                 JR      $6401
00006402: FF                 JR      $6402
00006403: 40 8B 03           CALL    $038B
00006406: FC                 JR      $6403
00006407: FC                 JR      $6404
00006408: FC                 JR      $6405
00006409: FC                 JR      $6406
0000640A: FC                 JR      $6407
0000640B: FC                 JR      $6408
0000640C: FC                 JR      $6409
0000640D: FC                 JR      $640A
0000640E: FC                 JR      $640B
0000640F: FC                 JR      $640C
00006410: FC                 JR      $640D
00006411: 8A                 CALT    ($0094)
00006412: 8B                 CALT    ($0096)
00006413: 8B                 CALT    ($0096)
00006414: 22                 INX     DE
00006415: 0C                 MOV     A,D
00006416: 10                 EXA     
00006417: 02                 INX     SP
00006418: 22                 INX     DE
00006419: 22                 INX     DE
0000641A: 24 00 1C           LXI     DE,$1C00
0000641D: 22                 INX     DE
0000641E: 8B                 CALT    ($0096)
0000641F: 20 0C              INRW    VV:0C
00006421: 12                 INX     BC
00006422: 02                 INX     SP
00006423: 22                 INX     DE
00006424: 22                 INX     DE
00006425: 24 18 02           LXI     DE,$0218
00006428: 20 23              INRW    VV:23
0000642A: 14 C0 30           LXI     BC,$30C0
0000642D: 00                 NOP     
0000642E: 04 0A 00           LXI     SP,$000A
00006431: 10                 EXA     
00006432: 01 01              LDAW    VV:01
00006434: 01 01              LDAW    VV:01
00006436: 01 01              LDAW    VV:01
00006438: 01 00              LDAW    VV:00
0000643A: 00                 NOP     
0000643B: 12                 INX     BC
0000643C: 00                 NOP     
0000643D: 0E                 MOV     A,H
0000643E: 10                 EXA     
0000643F: 01 01              LDAW    VV:01
00006441: 01 0C              LDAW    VV:0C
00006443: 10                 EXA     
00006444: 02                 INX     SP
00006445: 00                 NOP     
00006446: 00                 NOP     
00006447: 20 20              INRW    VV:20
00006449: 20 20              INRW    VV:20
0000644B: 20 20              INRW    VV:20
0000644D: 20 02              INRW    VV:02
0000644F: 00                 NOP     
00006450: 10                 EXA     
00006451: 0C                 MOV     A,D
00006452: 12                 INX     BC
00006453: 20 00              INRW    VV:00
00006455: 00                 NOP     
00006456: 8A                 CALT    ($0094)
00006457: 89                 CALT    ($0092)
00006458: 8A                 CALT    ($0094)
00006459: 50                 EXH     
0000645A: 82                 CALT    ($0084)
0000645B: 82                 CALT    ($0084)
0000645C: FE                 JR      $645B
0000645D: 82                 CALT    ($0084)
0000645E: 82                 CALT    ($0084)
0000645F: 80                 CALT    ($0080)
00006460: 80                 CALT    ($0080)
00006461: 80                 CALT    ($0080)
00006462: C0                 JR      $6463
00006463: 8B                 CALT    ($0096)
00006464: 80                 CALT    ($0080)
00006465: 02                 INX     SP
00006466: 06                 illegal 
00006467: 9A                 CALT    ($00B4)
00006468: E2                 JR      $644B
00006469: 80                 CALT    ($0080)
0000646A: 80                 CALT    ($0080)
0000646B: 80                 CALT    ($0080)
0000646C: 80                 CALT    ($0080)
0000646D: C0                 JR      $646E
0000646E: 02                 INX     SP
0000646F: 14 82 80           LXI     BC,$8082
00006472: 01 00              LDAW    VV:00
00006474: 81                 CALT    ($0082)
00006475: 81                 CALT    ($0082)
00006476: 81                 CALT    ($0082)
00006477: 81                 CALT    ($0082)
00006478: FF                 JR      $6478
00006479: 81                 CALT    ($0082)
0000647A: 81                 CALT    ($0082)
0000647B: 81                 CALT    ($0082)
0000647C: 81                 CALT    ($0082)
0000647D: 81                 CALT    ($0082)
0000647E: 81                 CALT    ($0082)
0000647F: 80                 CALT    ($0080)
00006480: 80                 CALT    ($0080)
00006481: 80                 CALT    ($0080)
00006482: 80                 CALT    ($0080)
00006483: 80                 CALT    ($0080)
00006484: 80                 CALT    ($0080)
00006485: 80                 CALT    ($0080)
00006486: C0                 JR      $6487
00006487: 00                 NOP     
00006488: 00                 NOP     
00006489: 00                 NOP     
0000648A: 00                 NOP     
0000648B: 00                 NOP     
0000648C: FE                 JR      $648B
0000648D: 00                 NOP     
0000648E: 00                 NOP     
0000648F: 00                 NOP     
00006490: 00                 NOP     
00006491: 00                 NOP     
00006492: 00                 NOP     
00006493: 00                 NOP     
00006494: 00                 NOP     
00006495: 00                 NOP     
00006496: 00                 NOP     
00006497: 00                 NOP     
00006498: 00                 NOP     
00006499: 00                 NOP     
0000649A: C0                 JR      $649B
0000649B: 8A                 CALT    ($0094)
0000649C: 8B                 CALT    ($0096)
0000649D: 8B                 CALT    ($0096)
0000649E: 50                 EXH     
0000649F: 20 20              INRW    VV:20
000064A1: 3E                 STAX    (DE-)
000064A2: 20 20              INRW    VV:20
000064A4: 20 3E              INRW    VV:3E
000064A6: 22                 INX     DE
000064A7: 22                 INX     DE
000064A8: 8B                 CALT    ($0096)
000064A9: 80                 CALT    ($0080)
000064AA: 20 26              INRW    VV:26
000064AC: 38                 illegal 
000064AD: 20 20              INRW    VV:20
000064AF: 26 3A              ADINC   A,$3A
000064B1: 22                 INX     DE
000064B2: 20 02              INRW    VV:02
000064B4: 13                 DCX     BC
000064B5: 80                 CALT    ($0080)
000064B6: 05 01 00           ANIW    VV:01,$00
000064B9: 00                 NOP     
000064BA: 00                 NOP     
000064BB: 00                 NOP     
000064BC: 1F                 MOV     L,A
000064BD: 00                 NOP     
000064BE: 00                 NOP     
000064BF: 00                 NOP     
000064C0: 00                 NOP     
000064C1: 00                 NOP     
000064C2: 00                 NOP     
000064C3: 00                 NOP     
000064C4: 1E                 MOV     H,A
000064C5: 00                 NOP     
000064C6: 01 01              LDAW    VV:01
000064C8: 01 00              LDAW    VV:00
000064CA: 00                 NOP     
000064CB: 20 20              INRW    VV:20
000064CD: 20 20              INRW    VV:20
000064CF: 3E                 STAX    (DE-)
000064D0: 20 20              INRW    VV:20
000064D2: 20 20              INRW    VV:20
000064D4: 20 20              INRW    VV:20
000064D6: 20 3E              INRW    VV:3E
000064D8: 20 20              INRW    VV:20
000064DA: 20 20              INRW    VV:20
000064DC: 20 22              INRW    VV:22
000064DE: 8E                 CALT    ($009C)
000064DF: 89                 CALT    ($0092)
000064E0: 8B                 CALT    ($0096)
000064E1: 28                 illegal 
000064E2: 82                 CALT    ($0084)
000064E3: C6                 JR      $64EA
000064E4: 82                 CALT    ($0084)
000064E5: AA                 EI      
000064E6: 82                 CALT    ($0084)
000064E7: 92                 CALT    ($00A4)
000064E8: 82                 CALT    ($0084)
000064E9: 82                 CALT    ($0084)
000064EA: C6                 JR      $64F1
000064EB: 8B                 CALT    ($0096)
000064EC: 00                 NOP     
000064ED: 02                 INX     SP
000064EE: 02                 INX     SP
000064EF: 86                 CALT    ($008C)
000064F0: C2                 JR      $64F3
000064F1: AA                 EI      
000064F2: 92                 CALT    ($00A4)
000064F3: 82                 CALT    ($0084)
000064F4: 84                 CALT    ($0088)
000064F5: C0                 JR      $64F6
000064F6: 02                 INX     SP
000064F7: 86                 CALT    ($008C)
000064F8: C2                 JR      $64FB
000064F9: AA                 EI      
000064FA: 92                 CALT    ($00A4)
000064FB: 82                 CALT    ($0084)
000064FC: 82                 CALT    ($0084)
000064FD: C4                 JR      $6502
000064FE: 03                 DCX     SP
000064FF: 11                 EXX     
00006500: 08                 MOV     A,EAH
00006501: A2                 POP     DE
00006502: 00                 NOP     
00006503: 81                 CALT    ($0082)
00006504: 81                 CALT    ($0082)
00006505: C3                 JR      $6509
00006506: 81                 CALT    ($0082)
00006507: 81                 CALT    ($0082)
00006508: 81                 CALT    ($0082)
00006509: A5                 DMOV    EA,BC
0000650A: 81                 CALT    ($0082)
0000650B: 81                 CALT    ($0082)
0000650C: 81                 CALT    ($0082)
0000650D: 99                 CALT    ($00B2)
0000650E: 81                 CALT    ($0082)
0000650F: 81                 CALT    ($0082)
00006510: 81                 CALT    ($0082)
00006511: 81                 CALT    ($0082)
00006512: 81                 CALT    ($0082)
00006513: C3                 JR      $6517
00006514: 82                 CALT    ($0084)
00006515: 00                 NOP     
00006516: 00                 NOP     
00006517: 00                 NOP     
00006518: 44 00 00           LXI     EA,$0000
0000651B: 00                 NOP     
0000651C: 28                 illegal 
0000651D: 00                 NOP     
0000651E: 00                 NOP     
0000651F: 00                 NOP     
00006520: 10                 EXA     
00006521: 00                 NOP     
00006522: 00                 NOP     
00006523: 00                 NOP     
00006524: 82                 CALT    ($0084)
00006525: 8E                 CALT    ($009C)
00006526: 9B                 CALT    ($00B6)
00006527: 8B                 CALT    ($0096)
00006528: 80                 CALT    ($0080)
00006529: 00                 NOP     
0000652A: 1C                 MOV     D,A
0000652B: 22                 INX     DE
0000652C: 22                 INX     DE
0000652D: 22                 INX     DE
0000652E: 20 3C              INRW    VV:3C
00006530: 20 20              INRW    VV:20
00006532: 8B                 CALT    ($0096)
00006533: 00                 NOP     
00006534: 0C                 MOV     A,D
00006535: 12                 INX     BC
00006536: 22                 INX     DE
00006537: 22                 INX     DE
00006538: 20 24              INRW    VV:24
0000653A: 38                 illegal 
0000653B: 20 20              INRW    VV:20
0000653D: 0C                 MOV     A,D
0000653E: 12                 INX     BC
0000653F: 02                 INX     SP
00006540: 22                 INX     DE
00006541: 20 24              INRW    VV:24
00006543: 38                 illegal 
00006544: 20 01              INRW    VV:01
00006546: 16 00              XRI     A,$00
00006548: 30 03              DCRW    VV:03
0000654A: 00                 NOP     
0000654B: 0C                 MOV     A,D
0000654C: 02                 INX     SP
0000654D: 10                 EXA     
0000654E: 00                 NOP     
0000654F: 01 01              LDAW    VV:01
00006551: 01 01              LDAW    VV:01
00006553: 01 01              LDAW    VV:01
00006555: 01 01              LDAW    VV:01
00006557: 01 00              LDAW    VV:00
00006559: 10                 EXA     
0000655A: 02                 INX     SP
0000655B: 0C                 MOV     A,D
0000655C: 00                 NOP     
0000655D: 00                 NOP     
0000655E: 00                 NOP     
0000655F: 00                 NOP     
00006560: 00                 NOP     
00006561: 0C                 MOV     A,D
00006562: 10                 EXA     
00006563: 02                 INX     SP
00006564: 00                 NOP     
00006565: 20 20              INRW    VV:20
00006567: 20 20              INRW    VV:20
00006569: 20 20              INRW    VV:20
0000656B: 20 20              INRW    VV:20
0000656D: 20 20              INRW    VV:20
0000656F: 22                 INX     DE
00006570: 30 2C              DCRW    VV:2C
00006572: 20 20              INRW    VV:20
00006574: 20 20              INRW    VV:20
00006576: 8A                 CALT    ($0094)
00006577: 0A                 MOV     A,B
00006578: 0B                 MOV     A,C
00006579: 82                 CALT    ($0084)
0000657A: 00                 NOP     
0000657B: 7F 04              CALF    $0F04
0000657D: 04 04 04           LXI     SP,$0404
00006580: 00                 NOP     
00006581: 78 04              CALF    $0804
00006583: 0B                 MOV     A,C
00006584: 02                 INX     SP
00006585: 03                 DCX     SP
00006586: 1C                 MOV     D,A
00006587: 64 04              illegal 
00006589: 04 04 00           LXI     SP,$0004
0000658C: 18                 MOV     EAH,A
0000658D: 64 82              illegal 
0000658F: 14 80 30           LXI     BC,$3080
00006592: 01 20              LDAW    VV:20
00006594: 00                 NOP     
00006595: 00                 NOP     
00006596: 00                 NOP     
00006597: 00                 NOP     
00006598: 1F                 MOV     L,A
00006599: 00                 NOP     
0000659A: 00                 NOP     
0000659B: 00                 NOP     
0000659C: 01 01              LDAW    VV:01
0000659E: 01 01              LDAW    VV:01
000065A0: 01 01              LDAW    VV:01
000065A2: 01 00              LDAW    VV:00
000065A4: 00                 NOP     
000065A5: 00                 NOP     
000065A6: 1E                 MOV     H,A
000065A7: 01 01              LDAW    VV:01
000065A9: 01 20              LDAW    VV:20
000065AB: 00                 NOP     
000065AC: 00                 NOP     
000065AD: 00                 NOP     
000065AE: 00                 NOP     
000065AF: 3F                 STAX    (HL-)
000065B0: 00                 NOP     
000065B1: 02                 INX     SP
000065B2: 00                 NOP     
000065B3: 00                 NOP     
000065B4: 00                 NOP     
000065B5: 00                 NOP     
000065B6: 00                 NOP     
000065B7: 00                 NOP     
000065B8: 00                 NOP     
000065B9: 00                 NOP     
000065BA: 00                 NOP     
000065BB: 02                 INX     SP
000065BC: 00                 NOP     
000065BD: 3E                 STAX    (DE-)
000065BE: 00                 NOP     
000065BF: 00                 NOP     
000065C0: 00                 NOP     
000065C1: 8A                 CALT    ($0094)
000065C2: 8B                 CALT    ($0096)
000065C3: 8A                 CALT    ($0094)
000065C4: 80                 CALT    ($0080)
000065C5: 00                 NOP     
000065C6: 10                 EXA     
000065C7: 20 20              INRW    VV:20
000065C9: 20 3E              INRW    VV:3E
000065CB: 20 20              INRW    VV:20
000065CD: 20 8B              INRW    VV:8B
000065CF: 40 10 00           CALL    $0010
000065D2: 20 26              INRW    VV:26
000065D4: 38                 illegal 
000065D5: 20 20              INRW    VV:20
000065D7: 20 20              INRW    VV:20
000065D9: 02                 INX     SP
000065DA: 13                 DCX     BC
000065DB: 80                 CALT    ($0080)
000065DC: 28                 illegal 
000065DD: 01 10              LDAW    VV:10
000065DF: 00                 NOP     
000065E0: 00                 NOP     
000065E1: 00                 NOP     
000065E2: 00                 NOP     
000065E3: 00                 NOP     
000065E4: 00                 NOP     
000065E5: 00                 NOP     
000065E6: 00                 NOP     
000065E7: 1F                 MOV     L,A
000065E8: 00                 NOP     
000065E9: 00                 NOP     
000065EA: 00                 NOP     
000065EB: 00                 NOP     
000065EC: 00                 NOP     
000065ED: 00                 NOP     
000065EE: 00                 NOP     
000065EF: 00                 NOP     
000065F0: 00                 NOP     
000065F1: 00                 NOP     
000065F2: 00                 NOP     
000065F3: 20 20              INRW    VV:20
000065F5: 20 20              INRW    VV:20
000065F7: 20 20              INRW    VV:20
000065F9: 20 3E              INRW    VV:3E
000065FB: 20 20              INRW    VV:20
000065FD: 20 20              INRW    VV:20
000065FF: 20 20              INRW    VV:20
00006601: 20 20              INRW    VV:20
00006603: 20 8E              INRW    VV:8E
00006605: 89                 CALT    ($0092)
00006606: 8B                 CALT    ($0096)
00006607: 41                 INR     A
00006608: 18                 MOV     EAH,A
00006609: 24 A5 A5           LXI     DE,$A5A5
0000660C: FF                 JR      $660C
0000660D: A5                 DMOV    EA,BC
0000660E: A5                 DMOV    EA,BC
0000660F: 24 18 8B           LXI     DE,$8B18
00006612: 00                 NOP     
00006613: 10                 EXA     
00006614: 02                 INX     SP
00006615: 2A                 LDAX    (DE)
00006616: AE                 LDAX    (HL+EA)
00006617: BA                 DI      
00006618: EA                 JR      $6603
00006619: A8                 INX     EA
0000661A: 80                 CALT    ($0080)
0000661B: 10                 EXA     
0000661C: 00                 NOP     
0000661D: 12                 INX     BC
0000661E: 2A                 LDAX    (DE)
0000661F: AE                 LDAX    (HL+EA)
00006620: BA                 DI      
00006621: EA                 JR      $660C
00006622: A8                 INX     EA
00006623: 90                 CALT    ($00A0)
00006624: 02                 INX     SP
00006625: 13                 DCX     BC
00006626: 88                 CALT    ($0090)
00006627: 00                 NOP     
00006628: 21                 JB      
00006629: 18                 MOV     EAH,A
0000662A: 00                 NOP     
0000662B: 00                 NOP     
0000662C: A5                 DMOV    EA,BC
0000662D: 81                 CALT    ($0082)
0000662E: 81                 CALT    ($0082)
0000662F: 81                 CALT    ($0082)
00006630: 81                 CALT    ($0082)
00006631: 81                 CALT    ($0082)
00006632: FF                 JR      $6632
00006633: 81                 CALT    ($0082)
00006634: 81                 CALT    ($0082)
00006635: 81                 CALT    ($0082)
00006636: 81                 CALT    ($0082)
00006637: 81                 CALT    ($0082)
00006638: A5                 DMOV    EA,BC
00006639: 00                 NOP     
0000663A: 00                 NOP     
0000663B: 18                 MOV     EAH,A
0000663C: 10                 EXA     
0000663D: 28                 illegal 
0000663E: 00                 NOP     
0000663F: 00                 NOP     
00006640: 00                 NOP     
00006641: 44 44 44           LXI     EA,$4444
00006644: 44 FE 44           LXI     EA,$44FE
00006647: 44 44 44           LXI     EA,$4444
0000664A: 00                 NOP     
0000664B: 00                 NOP     
0000664C: 00                 NOP     
0000664D: 28                 illegal 
0000664E: 10                 EXA     
0000664F: 8E                 CALT    ($009C)
00006650: 8B                 CALT    ($0096)
00006651: 8B                 CALT    ($0096)
00006652: 22                 INX     DE
00006653: 38                 illegal 
00006654: 54 10 92           JMP     $9210
00006657: 92                 CALT    ($00A4)
00006658: 92                 CALT    ($00A4)
00006659: 10                 EXA     
0000665A: 54 38 8B           JMP     $8B38
0000665D: 00                 NOP     
0000665E: 1C                 MOV     D,A
0000665F: 30 52              DCRW    VV:52
00006661: 12                 INX     BC
00006662: 92                 CALT    ($00A4)
00006663: 90                 CALT    ($00A0)
00006664: 94                 CALT    ($00A8)
00006665: 18                 MOV     EAH,A
00006666: 70 1C              illegal 
00006668: 32                 INX     HL
00006669: 52                 DCR     B
0000666A: 12                 INX     BC
0000666B: 90                 CALT    ($00A0)
0000666C: 94                 CALT    ($00A8)
0000666D: 98                 CALT    ($00B0)
0000666E: 70 03              illegal 
00006670: 11                 EXX     
00006671: 82                 CALT    ($0084)
00006672: 00                 NOP     
00006673: 81                 CALT    ($0082)
00006674: 3C                 STAX    (DE+)
00006675: 00                 NOP     
00006676: 42                 INR     B
00006677: 00                 NOP     
00006678: 00                 NOP     
00006679: 00                 NOP     
0000667A: 81                 CALT    ($0082)
0000667B: 81                 CALT    ($0082)
0000667C: 81                 CALT    ($0082)
0000667D: 81                 CALT    ($0082)
0000667E: 81                 CALT    ($0082)
0000667F: 00                 NOP     
00006680: 00                 NOP     
00006681: 00                 NOP     
00006682: 42                 INR     B
00006683: 00                 NOP     
00006684: 3C                 STAX    (DE+)
00006685: 38                 illegal 
00006686: 54 10 10           JMP     $1010
00006689: 92                 CALT    ($00A4)
0000668A: 10                 EXA     
0000668B: 10                 EXA     
0000668C: 10                 EXA     
0000668D: 10                 EXA     
0000668E: 10                 EXA     
0000668F: 10                 EXA     
00006690: 10                 EXA     
00006691: 92                 CALT    ($00A4)
00006692: 10                 EXA     
00006693: 10                 EXA     
00006694: 54 38 9E           JMP     $9E38
00006697: 8B                 CALT    ($0096)
00006698: 8B                 CALT    ($0096)
00006699: 00                 NOP     
0000669A: 32                 INX     HL
0000669B: 4A 86              MVIX    DE,$86
0000669D: 80                 CALT    ($0080)
0000669E: 80                 CALT    ($0080)
0000669F: 80                 CALT    ($0080)
000066A0: 86                 CALT    ($008C)
000066A1: 4A 32              MVIX    DE,$32
000066A3: 32                 INX     HL
000066A4: 4A 86              MVIX    DE,$86
000066A6: 80                 CALT    ($0080)
000066A7: 80                 CALT    ($0080)
000066A8: 86                 CALT    ($008C)
000066A9: 4A 32              MVIX    DE,$32
000066AB: 8B                 CALT    ($0096)
000066AC: 00                 NOP     
000066AD: 02                 INX     SP
000066AE: 3A                 STAX    (DE)
000066AF: 46 00              ADI     A,$00
000066B1: 80                 CALT    ($0080)
000066B2: 82                 CALT    ($0084)
000066B3: 86                 CALT    ($008C)
000066B4: 0A                 MOV     A,B
000066B5: 70 02              illegal 
000066B7: 3A                 STAX    (DE)
000066B8: 46 00              ADI     A,$00
000066BA: 80                 CALT    ($0080)
000066BB: 86                 CALT    ($008C)
000066BC: 8A                 CALT    ($0094)
000066BD: 72                 SOFTI   
000066BE: 02                 INX     SP
000066BF: 13                 DCX     BC
000066C0: 80                 CALT    ($0080)
000066C1: 30 01              DCRW    VV:01
000066C3: 31                 BLOCK   
000066C4: 09                 MOV     A,EAL
000066C5: 41                 INR     A
000066C6: 05 01 01           ANIW    VV:01,$01
000066C9: 83                 CALT    ($0086)
000066CA: 80                 CALT    ($0080)
000066CB: 80                 CALT    ($0080)
000066CC: 80                 CALT    ($0080)
000066CD: 80                 CALT    ($0080)
000066CE: 80                 CALT    ($0080)
000066CF: 83                 CALT    ($0086)
000066D0: 01 01              LDAW    VV:01
000066D2: 05 41 09           ANIW    VV:41,$09
000066D5: 31                 BLOCK   
000066D6: 32                 INX     HL
000066D7: 40 08 00           CALL    $0008
000066DA: 80                 CALT    ($0080)
000066DB: 04 02 00           LXI     SP,$0002
000066DE: 00                 NOP     
000066DF: 00                 NOP     
000066E0: 00                 NOP     
000066E1: 00                 NOP     
000066E2: 02                 INX     SP
000066E3: 04 80 00           LXI     SP,$0080
000066E6: 08                 MOV     A,EAH
000066E7: 40 32 8A           CALL    $8A32
000066EA: 8B                 CALT    ($0096)
000066EB: 8B                 CALT    ($0096)
000066EC: 80                 CALT    ($0080)
000066ED: 00                 NOP     
000066EE: 0C                 MOV     A,D
000066EF: 50                 EXH     
000066F0: A2                 POP     DE
000066F1: 82                 CALT    ($0084)
000066F2: 92                 CALT    ($00A4)
000066F3: 00                 NOP     
000066F4: 4C 00              illegal 
000066F6: 8A                 CALT    ($0094)
000066F7: 00                 NOP     
000066F8: 0C                 MOV     A,D
000066F9: 02                 INX     SP
000066FA: 52                 DCR     B
000066FB: B2                 PUSH    DE
000066FC: 92                 CALT    ($00A4)
000066FD: 92                 CALT    ($00A4)
000066FE: 10                 EXA     
000066FF: 4C 00              illegal 
00006701: 03                 DCX     SP
00006702: 11                 EXX     
00006703: 80                 CALT    ($0080)
00006704: 30 01              DCRW    VV:01
00006706: 0C                 MOV     A,D
00006707: 02                 INX     SP
00006708: 40 10 00           CALL    $0010
0000670B: A1                 POP     BC
0000670C: 81                 CALT    ($0082)
0000670D: 81                 CALT    ($0082)
0000670E: 81                 CALT    ($0082)
0000670F: 81                 CALT    ($0082)
00006710: 81                 CALT    ($0082)
00006711: 81                 CALT    ($0082)
00006712: 00                 NOP     
00006713: 10                 EXA     
00006714: 40 02 0C           CALL    $0C02
00006717: 0C                 MOV     A,D
00006718: 10                 EXA     
00006719: 00                 NOP     
0000671A: C2                 JR      $671D
0000671B: 00                 NOP     
0000671C: 20 20              INRW    VV:20
0000671E: 20 20              INRW    VV:20
00006720: 20 20              INRW    VV:20
00006722: 20 00              INRW    VV:00
00006724: 82                 CALT    ($0084)
00006725: 00                 NOP     
00006726: 10                 EXA     
00006727: 0C                 MOV     A,D
00006728: 9E                 CALT    ($00BC)
00006729: 8B                 CALT    ($0096)
0000672A: 8B                 CALT    ($0096)
0000672B: 00                 NOP     
0000672C: 18                 MOV     EAH,A
0000672D: 24 24 24           LXI     DE,$2424
00006730: 18                 MOV     EAH,A
00006731: 24 24 24           LXI     DE,$2424
00006734: 18                 MOV     EAH,A
00006735: 18                 MOV     EAH,A
00006736: 24 20 28           LXI     DE,$2820
00006739: 14 04 24           LXI     BC,$2404
0000673C: 18                 MOV     EAH,A
0000673D: 8B                 CALT    ($0096)
0000673E: 00                 NOP     
0000673F: 0C                 MOV     A,D
00006740: 12                 INX     BC
00006741: 20 24              INRW    VV:24
00006743: 2A                 LDAX    (DE)
00006744: 12                 INX     BC
00006745: 02                 INX     SP
00006746: 24 18 0C           LXI     DE,$0C18
00006749: 12                 INX     BC
0000674A: 20 2E              INRW    VV:2E
0000674C: 32                 INX     HL
0000674D: 02                 INX     SP
0000674E: 24 18 01           LXI     DE,$0118
00006751: 15 10 44           ORIW    VV:10,$44
00006754: 10                 EXA     
00006755: 18                 MOV     EAH,A
00006756: 04 00 20           LXI     SP,$2000
00006759: 20 20              INRW    VV:20
0000675B: 20 20              INRW    VV:20
0000675D: 00                 NOP     
0000675E: 04 18 04           LXI     SP,$0418
00006761: 00                 NOP     
00006762: 20 20              INRW    VV:20
00006764: 20 20              INRW    VV:20
00006766: 20 00              INRW    VV:00
00006768: 04 18 18           LXI     SP,$1818
0000676B: 20 00              INRW    VV:00
0000676D: 04 04 04           LXI     SP,$0404
00006770: 04 04 00           LXI     SP,$0004
00006773: 20 18              INRW    VV:18
00006775: 20 00              INRW    VV:00
00006777: 04 04 04           LXI     SP,$0404
0000677A: 04 04 00           LXI     SP,$0004
0000677D: 20 18              INRW    VV:18
0000677F: AA                 EI      
00006780: 0B                 MOV     A,C
00006781: 0B                 MOV     A,C
00006782: 00                 NOP     
00006783: 39                 STAX    (BC)
00006784: 02                 INX     SP
00006785: 44 4C 54           LXI     EA,$544C
00006788: 64 44              illegal 
0000678A: 80                 CALT    ($0080)
0000678B: 38                 illegal 
0000678C: 39                 STAX    (BC)
0000678D: 4E 4C              JRE     $67DB
0000678F: 54 64 64           JMP     $6464
00006792: B8                 RET     
00006793: 00                 NOP     
00006794: 00                 NOP     
00006795: 0A                 MOV     A,B
00006796: 00                 NOP     
00006797: 19                 MOV     EAL,A
00006798: 22                 INX     DE
00006799: 04 4C 54           LXI     SP,$544C
0000679C: 20 48              INRW    VV:48
0000679E: B0                 PUSH    VA
0000679F: 00                 NOP     
000067A0: 83                 CALT    ($0086)
000067A1: 11                 EXX     
000067A2: 82                 CALT    ($0084)
000067A3: 10                 EXA     
000067A4: 01 40              LDAW    VV:40
000067A6: 00                 NOP     
000067A7: 00                 NOP     
000067A8: 0C                 MOV     A,D
000067A9: 02                 INX     SP
000067AA: 10                 EXA     
000067AB: 01 00              LDAW    VV:00
000067AD: 03                 DCX     SP
000067AE: 01 05              LDAW    VV:05
000067B0: 01 01              LDAW    VV:01
000067B2: 09                 MOV     A,EAL
000067B3: 01 11              LDAW    VV:11
000067B5: 01 30              LDAW    VV:30
000067B7: 02                 INX     SP
000067B8: 4C 80              illegal 
000067BA: 00                 NOP     
000067BB: 00                 NOP     
000067BC: 0C                 MOV     A,D
000067BD: 10                 EXA     
000067BE: 03                 DCX     SP
000067BF: 00                 NOP     
000067C0: 22                 INX     DE
000067C1: 20 24              INRW    VV:24
000067C3: 20 20              INRW    VV:20
000067C5: 28                 illegal 
000067C6: 20 30              INRW    VV:30
000067C8: 20 20              INRW    VV:20
000067CA: 02                 INX     SP
000067CB: 50                 EXH     
000067CC: 0C                 MOV     A,D
000067CD: 8A                 CALT    ($0094)
000067CE: 9A                 CALT    ($00B4)
000067CF: 9A                 CALT    ($00B4)
000067D0: 80                 CALT    ($0080)
000067D1: 00                 NOP     
000067D2: 38                 illegal 
000067D3: 10                 EXA     
000067D4: 54 54 54           JMP     $5454
000067D7: 54 54 00           JMP     $0054
000067DA: 89                 CALT    ($0092)
000067DB: 00                 NOP     
000067DC: 18                 MOV     EAH,A
000067DD: 34 14 54           LXI     HL,$5414
000067E0: 54 54 50           JMP     $5054
000067E3: 40 00 04           CALL    $0400
000067E6: 10                 EXA     
000067E7: 80                 CALT    ($0080)
000067E8: 30 01              DCRW    VV:01
000067EA: 1C                 MOV     D,A
000067EB: 08                 MOV     A,EAH
000067EC: 08                 MOV     A,EAH
000067ED: 2A                 LDAX    (DE)
000067EE: 08                 MOV     A,EAH
000067EF: 08                 MOV     A,EAH
000067F0: 08                 MOV     A,EAH
000067F1: 08                 MOV     A,EAH
000067F2: 08                 MOV     A,EAH
000067F3: 08                 MOV     A,EAH
000067F4: 08                 MOV     A,EAH
000067F5: 08                 MOV     A,EAH
000067F6: 08                 MOV     A,EAH
000067F7: 08                 MOV     A,EAH
000067F8: 08                 MOV     A,EAH
000067F9: 00                 NOP     
000067FA: 18                 MOV     EAH,A
000067FB: 24 00 00           LXI     DE,$0000
000067FE: 00                 NOP     
000067FF: 42                 INR     B
00006800: 42                 INR     B
00006801: 42                 INR     B
00006802: 42                 INR     B
00006803: 42                 INR     B
00006804: 42                 INR     B
00006805: 42                 INR     B
00006806: 42                 INR     B
00006807: 42                 INR     B
00006808: 42                 INR     B
00006809: 42                 INR     B
0000680A: 8E                 CALT    ($009C)
0000680B: 9A                 CALT    ($00B4)
0000680C: 8B                 CALT    ($0096)
0000680D: 80                 CALT    ($0080)
0000680E: 00                 NOP     
0000680F: 7E 80              CALF    $0E80
00006811: 80                 CALT    ($0080)
00006812: 80                 CALT    ($0080)
00006813: 80                 CALT    ($0080)
00006814: 80                 CALT    ($0080)
00006815: 7E 00              CALF    $0E00
00006817: 8B                 CALT    ($0096)
00006818: 00                 NOP     
00006819: 06                 illegal 
0000681A: 38                 illegal 
0000681B: 40 00 80           CALL    $8000
0000681E: 80                 CALT    ($0080)
0000681F: 80                 CALT    ($0080)
00006820: 06                 illegal 
00006821: 78 06              CALF    $0806
00006823: 38                 illegal 
00006824: 40 00 80           CALL    $8000
00006827: 80                 CALT    ($0080)
00006828: 86                 CALT    ($008C)
00006829: 78 03              CALF    $0803
0000682B: 11                 EXX     
0000682C: 84                 CALT    ($0088)
0000682D: 00                 NOP     
0000682E: 41                 INR     A
0000682F: 1F                 MOV     L,A
00006830: 20 00              INRW    VV:00
00006832: 40 00 00           CALL    $0000
00006835: 00                 NOP     
00006836: 00                 NOP     
00006837: 00                 NOP     
00006838: 00                 NOP     
00006839: 00                 NOP     
0000683A: 00                 NOP     
0000683B: 00                 NOP     
0000683C: 40 00 20           CALL    $2000
0000683F: 1F                 MOV     L,A
00006840: 3E                 STAX    (DE-)
00006841: 40 00 00           CALL    $0000
00006844: 00                 NOP     
00006845: 80                 CALT    ($0080)
00006846: 80                 CALT    ($0080)
00006847: 80                 CALT    ($0080)
00006848: 80                 CALT    ($0080)
00006849: 80                 CALT    ($0080)
0000684A: 80                 CALT    ($0080)
0000684B: 80                 CALT    ($0080)
0000684C: 00                 NOP     
0000684D: 00                 NOP     
0000684E: 00                 NOP     
0000684F: 40 3E 8A           CALL    $8A3E
00006852: 8B                 CALT    ($0096)
00006853: 8B                 CALT    ($0096)
00006854: 81                 CALT    ($0082)
00006855: 54 54 54           JMP     $5454
00006858: 54 54 54           JMP     $5454
0000685B: 54 54 54           JMP     $5454
0000685E: 8B                 CALT    ($0096)
0000685F: 0C                 MOV     A,D
00006860: 04 14 54           LXI     SP,$5414
00006863: 54 54 54           JMP     $5454
00006866: 54 50 40           JMP     $4050
00006869: 03                 DCX     SP
0000686A: 11                 EXX     
0000686B: 80                 CALT    ($0080)
0000686C: 30 01              DCRW    VV:01
0000686E: 2A                 LDAX    (DE)
0000686F: 2A                 LDAX    (DE)
00006870: 2A                 LDAX    (DE)
00006871: 2A                 LDAX    (DE)
00006872: 2A                 LDAX    (DE)
00006873: 2A                 LDAX    (DE)
00006874: 2A                 LDAX    (DE)
00006875: 2A                 LDAX    (DE)
00006876: 2A                 LDAX    (DE)
00006877: 2A                 LDAX    (DE)
00006878: 2A                 LDAX    (DE)
00006879: 2A                 LDAX    (DE)
0000687A: 2A                 LDAX    (DE)
0000687B: 2A                 LDAX    (DE)
0000687C: 2A                 LDAX    (DE)
0000687D: 2A                 LDAX    (DE)
0000687E: 2A                 LDAX    (DE)
0000687F: 00                 NOP     
00006880: 00                 NOP     
00006881: 00                 NOP     
00006882: 00                 NOP     
00006883: 00                 NOP     
00006884: 00                 NOP     
00006885: 00                 NOP     
00006886: 00                 NOP     
00006887: 00                 NOP     
00006888: 00                 NOP     
00006889: 00                 NOP     
0000688A: 00                 NOP     
0000688B: 00                 NOP     
0000688C: 00                 NOP     
0000688D: 00                 NOP     
0000688E: 00                 NOP     
0000688F: 00                 NOP     
00006890: 8E                 CALT    ($009C)
00006891: 8B                 CALT    ($0096)
00006892: 8B                 CALT    ($0096)
00006893: 84                 CALT    ($0088)
00006894: 22                 INX     DE
00006895: 22                 INX     DE
00006896: 22                 INX     DE
00006897: 22                 INX     DE
00006898: FA                 JR      $6893
00006899: 22                 INX     DE
0000689A: 22                 INX     DE
0000689B: 22                 INX     DE
0000689C: 22                 INX     DE
0000689D: 8B                 CALT    ($0096)
0000689E: 00                 NOP     
0000689F: 22                 INX     DE
000068A0: 22                 INX     DE
000068A1: 2A                 LDAX    (DE)
000068A2: 32                 INX     HL
000068A3: 22                 INX     DE
000068A4: 62                 RETI    
000068A5: A2                 POP     DE
000068A6: 20 20              INRW    VV:20
000068A8: 02                 INX     SP
000068A9: 22                 INX     DE
000068AA: 2A                 LDAX    (DE)
000068AB: 32                 INX     HL
000068AC: 22                 INX     DE
000068AD: 60 A0              ADDNC   A,V
000068AF: 20 22              INRW    VV:22
000068B1: 13                 DCX     BC
000068B2: 80                 CALT    ($0080)
000068B3: 28                 illegal 
000068B4: 01 00              LDAW    VV:00
000068B6: 00                 NOP     
000068B7: 00                 NOP     
000068B8: 00                 NOP     
000068B9: 00                 NOP     
000068BA: 00                 NOP     
000068BB: 00                 NOP     
000068BC: 00                 NOP     
000068BD: 00                 NOP     
000068BE: FC                 JR      $68BB
000068BF: 00                 NOP     
000068C0: 00                 NOP     
000068C1: 00                 NOP     
000068C2: 00                 NOP     
000068C3: 00                 NOP     
000068C4: 00                 NOP     
000068C5: 00                 NOP     
000068C6: 00                 NOP     
000068C7: 00                 NOP     
000068C8: 22                 INX     DE
000068C9: 22                 INX     DE
000068CA: 22                 INX     DE
000068CB: 22                 INX     DE
000068CC: 22                 INX     DE
000068CD: 22                 INX     DE
000068CE: 22                 INX     DE
000068CF: 22                 INX     DE
000068D0: 22                 INX     DE
000068D1: FA                 JR      $68CC
000068D2: 22                 INX     DE
000068D3: 22                 INX     DE
000068D4: 22                 INX     DE
000068D5: 22                 INX     DE
000068D6: 22                 INX     DE
000068D7: 22                 INX     DE
000068D8: 22                 INX     DE
000068D9: 22                 INX     DE
000068DA: 22                 INX     DE
000068DB: 8A                 CALT    ($0094)
000068DC: 9A                 CALT    ($00B4)
000068DD: 9A                 CALT    ($00B4)
000068DE: 80                 CALT    ($0080)
000068DF: 00                 NOP     
000068E0: 02                 INX     SP
000068E1: 8A                 CALT    ($0094)
000068E2: 02                 INX     SP
000068E3: 52                 DCR     B
000068E4: 02                 INX     SP
000068E5: 22                 INX     DE
000068E6: 02                 INX     SP
000068E7: 00                 NOP     
000068E8: 8B                 CALT    ($0096)
000068E9: 00                 NOP     
000068EA: 02                 INX     SP
000068EB: 02                 INX     SP
000068EC: 02                 INX     SP
000068ED: 0A                 MOV     A,B
000068EE: 02                 INX     SP
000068EF: 92                 CALT    ($00A4)
000068F0: 42                 INR     B
000068F1: 20 00              INRW    VV:00
000068F3: 23                 DCX     DE
000068F4: 13                 DCX     BC
000068F5: 00                 NOP     
000068F6: C0                 JR      $68F7
000068F7: C0                 JR      $68F8
000068F8: 00                 NOP     
000068F9: 00                 NOP     
000068FA: 00                 NOP     
000068FB: 00                 NOP     
000068FC: 48 48              SKIT    FAD
000068FE: 48 00              illegal 
00006900: 00                 NOP     
00006901: 00                 NOP     
00006902: 00                 NOP     
00006903: 00                 NOP     
00006904: 30 30              DCRW    VV:30
00006906: 30 00              DCRW    VV:00
00006908: 00                 NOP     
00006909: 00                 NOP     
0000690A: 00                 NOP     
0000690B: 8A                 CALT    ($0094)
0000690C: 8A                 CALT    ($0094)
0000690D: 8A                 CALT    ($0094)
0000690E: 02                 INX     SP
0000690F: 02                 INX     SP
00006910: 02                 INX     SP
00006911: 02                 INX     SP
00006912: 02                 INX     SP
00006913: 52                 DCR     B
00006914: 52                 DCR     B
00006915: 52                 DCR     B
00006916: 02                 INX     SP
00006917: 02                 INX     SP
00006918: 02                 INX     SP
00006919: 02                 INX     SP
0000691A: 02                 INX     SP
0000691B: 22                 INX     DE
0000691C: 22                 INX     DE
0000691D: 22                 INX     DE
0000691E: 8A                 CALT    ($0094)
0000691F: 9A                 CALT    ($00B4)
00006920: 9A                 CALT    ($00B4)
00006921: 80                 CALT    ($0080)
00006922: 00                 NOP     
00006923: 02                 INX     SP
00006924: 22                 INX     DE
00006925: 02                 INX     SP
00006926: 52                 DCR     B
00006927: 02                 INX     SP
00006928: 8A                 CALT    ($0094)
00006929: 02                 INX     SP
0000692A: 00                 NOP     
0000692B: 8B                 CALT    ($0096)
0000692C: 00                 NOP     
0000692D: 02                 INX     SP
0000692E: 02                 INX     SP
0000692F: 22                 INX     DE
00006930: 12                 INX     BC
00006931: 4A 02              MVIX    DE,$02
00006933: 82                 CALT    ($0084)
00006934: 00                 NOP     
00006935: 00                 NOP     
00006936: 22                 INX     DE
00006937: 13                 DCX     BC
00006938: 03                 DCX     SP
00006939: 01 80              LDAW    VV:80
0000693B: 00                 NOP     
0000693C: 00                 NOP     
0000693D: 00                 NOP     
0000693E: 00                 NOP     
0000693F: 30 30              DCRW    VV:30
00006941: 30 00              DCRW    VV:00
00006943: 00                 NOP     
00006944: 00                 NOP     
00006945: 00                 NOP     
00006946: 00                 NOP     
00006947: 48 48              SKIT    FAD
00006949: 48 00              illegal 
0000694B: 00                 NOP     
0000694C: 00                 NOP     
0000694D: 00                 NOP     
0000694E: 22                 INX     DE
0000694F: 22                 INX     DE
00006950: 22                 INX     DE
00006951: 02                 INX     SP
00006952: 02                 INX     SP
00006953: 02                 INX     SP
00006954: 02                 INX     SP
00006955: 02                 INX     SP
00006956: 52                 DCR     B
00006957: 52                 DCR     B
00006958: 52                 DCR     B
00006959: 02                 INX     SP
0000695A: 02                 INX     SP
0000695B: 02                 INX     SP
0000695C: 02                 INX     SP
0000695D: 02                 INX     SP
0000695E: 8A                 CALT    ($0094)
0000695F: 8A                 CALT    ($0094)
00006960: 8A                 CALT    ($0094)
00006961: 50                 EXH     
00006962: 8B                 CALT    ($0096)
00006963: 00                 NOP     
00006964: 00                 NOP     
00006965: 00                 NOP     
00006966: 00                 NOP     
00006967: 00                 NOP     
00006968: 7F 80              CALF    $0F80
0000696A: 80                 CALT    ($0080)
0000696B: 80                 CALT    ($0080)
0000696C: 40 00 00           CALL    $0000
0000696F: 00                 NOP     
00006970: 00                 NOP     
00006971: 00                 NOP     
00006972: 00                 NOP     
00006973: 7F 80              CALF    $0F80
00006975: 80                 CALT    ($0080)
00006976: C0                 JR      $6977
00006977: 50                 EXH     
00006978: 8B                 CALT    ($0096)
00006979: 03                 DCX     SP
0000697A: 02                 INX     SP
0000697B: 01 01              LDAW    VV:01
0000697D: 01 FE              LDAW    VV:FE
0000697F: 00                 NOP     
00006980: 00                 NOP     
00006981: 00                 NOP     
00006982: 00                 NOP     
00006983: 00                 NOP     
00006984: 00                 NOP     
00006985: 00                 NOP     
00006986: 03                 DCX     SP
00006987: 01 01              LDAW    VV:01
00006989: FE                 JR      $6988
0000698A: 00                 NOP     
0000698B: 00                 NOP     
0000698C: 00                 NOP     
0000698D: 8A                 CALT    ($0094)
0000698E: 8B                 CALT    ($0096)
0000698F: 8B                 CALT    ($0096)
00006990: 22                 INX     DE
00006991: 10                 EXA     
00006992: 10                 EXA     
00006993: 10                 EXA     
00006994: D6                 JR      $69AB
00006995: D6                 JR      $69AC
00006996: D6                 JR      $69AD
00006997: 10                 EXA     
00006998: 10                 EXA     
00006999: 10                 EXA     
0000699A: 8B                 CALT    ($0096)
0000699B: 41                 INR     A
0000699C: 10                 EXA     
0000699D: 10                 EXA     
0000699E: 16 16              XRI     A,$16
000069A0: D6                 JR      $69B7
000069A1: D0                 JR      $69B2
000069A2: D0                 JR      $69B3
000069A3: 10                 EXA     
000069A4: 10                 EXA     
000069A5: 22                 INX     DE
000069A6: 13                 DCX     BC
000069A7: 80                 CALT    ($0080)
000069A8: 44 01 08           LXI     EA,$0801
000069AB: 08                 MOV     A,EAH
000069AC: 08                 MOV     A,EAH
000069AD: 08                 MOV     A,EAH
000069AE: 08                 MOV     A,EAH
000069AF: 08                 MOV     A,EAH
000069B0: 08                 MOV     A,EAH
000069B1: 08                 MOV     A,EAH
000069B2: 2A                 LDAX    (DE)
000069B3: 2A                 LDAX    (DE)
000069B4: 2A                 LDAX    (DE)
000069B5: 08                 MOV     A,EAH
000069B6: 08                 MOV     A,EAH
000069B7: 08                 MOV     A,EAH
000069B8: 08                 MOV     A,EAH
000069B9: 08                 MOV     A,EAH
000069BA: 08                 MOV     A,EAH
000069BB: 08                 MOV     A,EAH
000069BC: 08                 MOV     A,EAH
000069BD: 00                 NOP     
000069BE: 00                 NOP     
000069BF: 00                 NOP     
000069C0: 00                 NOP     
000069C1: 00                 NOP     
000069C2: 00                 NOP     
000069C3: 00                 NOP     
000069C4: 00                 NOP     
000069C5: 42                 INR     B
000069C6: 42                 INR     B
000069C7: 42                 INR     B
000069C8: 00                 NOP     
000069C9: 00                 NOP     
000069CA: 00                 NOP     
000069CB: 00                 NOP     
000069CC: 00                 NOP     
000069CD: 00                 NOP     
000069CE: 00                 NOP     
000069CF: 00                 NOP     
000069D0: 8E                 CALT    ($009C)
000069D1: 8B                 CALT    ($0096)
000069D2: 8A                 CALT    ($0094)
000069D3: 08                 MOV     A,EAH
000069D4: 24 48 48           LXI     DE,$4848
000069D7: 48 00              illegal 
000069D9: 24 24 24           LXI     DE,$2424
000069DC: 48 8B 00           LDEAX   (DE+$00)
000069DF: 04 28 48           LXI     SP,$4828
000069E2: 48 44              SKIT    F2
000069E4: 24 24 28           LXI     DE,$2824
000069E7: 40 04 20           CALL    $2004
000069EA: 08                 MOV     A,EAH
000069EB: 44 24 24           LXI     EA,$2424
000069EE: 28                 illegal 
000069EF: 40 03 11           CALL    $1103
000069F2: 80                 CALT    ($0080)
000069F3: 30 01              DCRW    VV:01
000069F5: 02                 INX     SP
000069F6: 10                 EXA     
000069F7: 00                 NOP     
000069F8: 04 04 04           LXI     SP,$0404
000069FB: 00                 NOP     
000069FC: 10                 EXA     
000069FD: 10                 EXA     
000069FE: 10                 EXA     
000069FF: 00                 NOP     
00006A00: 02                 INX     SP
00006A01: 02                 INX     SP
00006A02: 02                 INX     SP
00006A03: 00                 NOP     
00006A04: 10                 EXA     
00006A05: 04 10 04           LXI     SP,$0410
00006A08: 00                 NOP     
00006A09: 20 20              INRW    VV:20
00006A0B: 20 00              INRW    VV:00
00006A0D: 04 04 04           LXI     SP,$0404
00006A10: 00                 NOP     
00006A11: 10                 EXA     
00006A12: 10                 EXA     
00006A13: 10                 EXA     
00006A14: 00                 NOP     
00006A15: 04 20 8A           LXI     SP,$8A20
00006A18: A7                 DMOV    EA,HL
00006A19: A7                 DMOV    EA,HL
00006A1A: 80                 CALT    ($0080)
00006A1B: 00                 NOP     
00006A1C: 00                 NOP     
00006A1D: 10                 EXA     
00006A1E: 38                 illegal 
00006A1F: 38                 illegal 
00006A20: 38                 illegal 
00006A21: 10                 EXA     
00006A22: 00                 NOP     
00006A23: 00                 NOP     
00006A24: 8B                 CALT    ($0096)
00006A25: 80                 CALT    ($0080)
00006A26: 00                 NOP     
00006A27: 00                 NOP     
00006A28: 00                 NOP     
00006A29: 10                 EXA     
00006A2A: 38                 illegal 
00006A2B: 38                 illegal 
00006A2C: 38                 illegal 
00006A2D: 10                 EXA     
00006A2E: 00                 NOP     
00006A2F: 07 09              ANI     A,$09
00006A31: C0                 JR      $6A32
00006A32: 00                 NOP     
00006A33: 03                 DCX     SP
00006A34: 18                 MOV     EAH,A
00006A35: 18                 MOV     EAH,A
00006A36: 18                 MOV     EAH,A
00006A37: 18                 MOV     EAH,A
00006A38: 18                 MOV     EAH,A
00006A39: 18                 MOV     EAH,A
00006A3A: 18                 MOV     EAH,A
00006A3B: 18                 MOV     EAH,A
00006A3C: 18                 MOV     EAH,A
00006A3D: 10                 EXA     
00006A3E: 10                 EXA     
00006A3F: 38                 illegal 
00006A40: 38                 illegal 
00006A41: 38                 illegal 
00006A42: 38                 illegal 
00006A43: 38                 illegal 
00006A44: 10                 EXA     
00006A45: 10                 EXA     
00006A46: 8A                 CALT    ($0094)
00006A47: B8                 RET     
00006A48: B8                 RET     
00006A49: 80                 CALT    ($0080)
00006A4A: 00                 NOP     
00006A4B: 00                 NOP     
00006A4C: 00                 NOP     
00006A4D: 10                 EXA     
00006A4E: 38                 illegal 
00006A4F: 10                 EXA     
00006A50: 00                 NOP     
00006A51: 00                 NOP     
00006A52: 00                 NOP     
00006A53: 8B                 CALT    ($0096)
00006A54: 80                 CALT    ($0080)
00006A55: 00                 NOP     
00006A56: 00                 NOP     
00006A57: 00                 NOP     
00006A58: 00                 NOP     
00006A59: 10                 EXA     
00006A5A: 38                 illegal 
00006A5B: 10                 EXA     
00006A5C: 00                 NOP     
00006A5D: 00                 NOP     
00006A5E: 08                 MOV     A,EAH
00006A5F: 07 C0              ANI     A,$C0
00006A61: 00                 NOP     
00006A62: 03                 DCX     SP
00006A63: 00                 NOP     
00006A64: 18                 MOV     EAH,A
00006A65: 18                 MOV     EAH,A
00006A66: 18                 MOV     EAH,A
00006A67: 18                 MOV     EAH,A
00006A68: 18                 MOV     EAH,A
00006A69: 00                 NOP     
00006A6A: 00                 NOP     
00006A6B: 10                 EXA     
00006A6C: 10                 EXA     
00006A6D: 10                 EXA     
00006A6E: 10                 EXA     
00006A6F: 10                 EXA     
00006A70: 00                 NOP     
00006A71: 8A                 CALT    ($0094)
00006A72: 8B                 CALT    ($0096)
00006A73: 8B                 CALT    ($0096)
00006A74: 01 04              LDAW    VV:04
00006A76: 08                 MOV     A,EAH
00006A77: 04 00 FE           LXI     SP,$FE00
00006A7A: 80                 CALT    ($0080)
00006A7B: 80                 CALT    ($0080)
00006A7C: 80                 CALT    ($0080)
00006A7D: 80                 CALT    ($0080)
00006A7E: 8B                 CALT    ($0096)
00006A7F: 00                 NOP     
00006A80: 04 08 04           LXI     SP,$0408
00006A83: 00                 NOP     
00006A84: 0E                 MOV     A,H
00006A85: F0                 JR      $6A76
00006A86: 80                 CALT    ($0080)
00006A87: 80                 CALT    ($0080)
00006A88: 00                 NOP     
00006A89: 02                 INX     SP
00006A8A: 13                 DCX     BC
00006A8B: 80                 CALT    ($0080)
00006A8C: 01 81              LDAW    VV:81
00006A8E: 04 00 08           LXI     SP,$0800
00006A91: 00                 NOP     
00006A92: 08                 MOV     A,EAH
00006A93: 04 03 04           LXI     SP,$0403
00006A96: 18                 MOV     EAH,A
00006A97: 20 C0              INRW    VV:C0
00006A99: 80                 CALT    ($0080)
00006A9A: 80                 CALT    ($0080)
00006A9B: 80                 CALT    ($0080)
00006A9C: 80                 CALT    ($0080)
00006A9D: 80                 CALT    ($0080)
00006A9E: 80                 CALT    ($0080)
00006A9F: 80                 CALT    ($0080)
00006AA0: 80                 CALT    ($0080)
00006AA1: 00                 NOP     
00006AA2: 08                 MOV     A,EAH
00006AA3: 00                 NOP     
00006AA4: 10                 EXA     
00006AA5: 08                 MOV     A,EAH
00006AA6: 04 02 0C           LXI     SP,$0C02
00006AA9: 10                 EXA     
00006AAA: 60 80              illegal 
00006AAC: 00                 NOP     
00006AAD: 00                 NOP     
00006AAE: 00                 NOP     
00006AAF: 00                 NOP     
00006AB0: 00                 NOP     
00006AB1: 00                 NOP     
00006AB2: 00                 NOP     
00006AB3: 00                 NOP     
00006AB4: 8A                 CALT    ($0094)
00006AB5: 98                 CALT    ($00B0)
00006AB6: 9A                 CALT    ($00B4)
00006AB7: 80                 CALT    ($0080)
00006AB8: 00                 NOP     
00006AB9: 80                 CALT    ($0080)
00006ABA: 78 00              CALF    $0800
00006ABC: 80                 CALT    ($0080)
00006ABD: 80                 CALT    ($0080)
00006ABE: 80                 CALT    ($0080)
00006ABF: 78 00              CALF    $0800
00006AC1: 8B                 CALT    ($0096)
00006AC2: 10                 EXA     
00006AC3: 00                 NOP     
00006AC4: 98                 CALT    ($00B0)
00006AC5: 60 00              illegal 
00006AC7: 80                 CALT    ($0080)
00006AC8: 80                 CALT    ($0080)
00006AC9: 98                 CALT    ($00B0)
00006ACA: 60 00              illegal 
00006ACC: 02                 INX     SP
00006ACD: 11                 EXX     
00006ACE: 80                 CALT    ($0080)
00006ACF: 00                 NOP     
00006AD0: 07 80              ANI     A,$80
00006AD2: 80                 CALT    ($0080)
00006AD3: F0                 JR      $6AC4
00006AD4: 00                 NOP     
00006AD5: 00                 NOP     
00006AD6: 00                 NOP     
00006AD7: 80                 CALT    ($0080)
00006AD8: 80                 CALT    ($0080)
00006AD9: 80                 CALT    ($0080)
00006ADA: 80                 CALT    ($0080)
00006ADB: 80                 CALT    ($0080)
00006ADC: 00                 NOP     
00006ADD: 70 00              illegal 
00006ADF: 00                 NOP     
00006AE0: 00                 NOP     
00006AE1: 00                 NOP     
00006AE2: 00                 NOP     
00006AE3: 00                 NOP     
00006AE4: E0                 JR      $6AC5
00006AE5: 00                 NOP     
00006AE6: 80                 CALT    ($0080)
00006AE7: 00                 NOP     
00006AE8: 00                 NOP     
00006AE9: 00                 NOP     
00006AEA: 00                 NOP     
00006AEB: 00                 NOP     
00006AEC: 00                 NOP     
00006AED: 80                 CALT    ($0080)
00006AEE: 60 00              illegal 
00006AF0: 00                 NOP     
00006AF1: 00                 NOP     
00006AF2: 00                 NOP     
00006AF3: 8A                 CALT    ($0094)
00006AF4: 87                 CALT    ($008E)
00006AF5: 87                 CALT    ($008E)
00006AF6: 00                 NOP     
00006AF7: 48 98              illegal 
00006AF9: 88                 CALT    ($0090)
00006AFA: A8                 INX     EA
00006AFB: 48 00              illegal 
00006AFD: 00                 NOP     
00006AFE: 00                 NOP     
00006AFF: 00                 NOP     
00006B00: 8B                 CALT    ($0096)
00006B01: 00                 NOP     
00006B02: 00                 NOP     
00006B03: 08                 MOV     A,EAH
00006B04: 58 88              BIT     0,VV:88
00006B06: A8                 INX     EA
00006B07: 88                 CALT    ($0090)
00006B08: 40 00 00           CALL    $0000
00006B0B: 02                 INX     SP
00006B0C: 11                 EXX     
00006B0D: 80                 CALT    ($0080)
00006B0E: 00                 NOP     
00006B0F: 07 10              ANI     A,$10
00006B11: 10                 EXA     
00006B12: B0                 PUSH    VA
00006B13: B0                 PUSH    VA
00006B14: B0                 PUSH    VA
00006B15: 90                 CALT    ($00A0)
00006B16: 90                 CALT    ($00A0)
00006B17: 90                 CALT    ($00A0)
00006B18: 90                 CALT    ($00A0)
00006B19: 10                 EXA     
00006B1A: 50                 EXH     
00006B1B: 00                 NOP     
00006B1C: 00                 NOP     
00006B1D: 00                 NOP     
00006B1E: 00                 NOP     
00006B1F: 00                 NOP     
00006B20: 00                 NOP     
00006B21: A0                 POP     VA
00006B22: 00                 NOP     
00006B23: 00                 NOP     
00006B24: 00                 NOP     
00006B25: 00                 NOP     
00006B26: 00                 NOP     
00006B27: 40 40 40           CALL    $4040
00006B2A: 00                 NOP     
00006B2B: 80                 CALT    ($0080)
00006B2C: 00                 NOP     
00006B2D: 00                 NOP     
00006B2E: 00                 NOP     
00006B2F: 00                 NOP     
00006B30: 00                 NOP     
00006B31: 00                 NOP     
00006B32: 8A                 CALT    ($0094)
00006B33: A9                 DCX     EA
00006B34: A9                 DCX     EA
00006B35: 80                 CALT    ($0080)
00006B36: 00                 NOP     
00006B37: 00                 NOP     
00006B38: 3C                 STAX    (DE+)
00006B39: 3C                 STAX    (DE+)
00006B3A: 3C                 STAX    (DE+)
00006B3B: 3C                 STAX    (DE+)
00006B3C: 3C                 STAX    (DE+)
00006B3D: 00                 NOP     
00006B3E: 00                 NOP     
00006B3F: 8B                 CALT    ($0096)
00006B40: 80                 CALT    ($0080)
00006B41: 00                 NOP     
00006B42: 00                 NOP     
00006B43: 0C                 MOV     A,D
00006B44: 3C                 STAX    (DE+)
00006B45: 3C                 STAX    (DE+)
00006B46: 3C                 STAX    (DE+)
00006B47: 3C                 STAX    (DE+)
00006B48: 30 00              DCRW    VV:00
00006B4A: 06                 illegal 
00006B4B: 0B                 MOV     A,C
00006B4C: C0                 JR      $6B4D
00006B4D: 00                 NOP     
00006B4E: 03                 DCX     SP
00006B4F: 1E                 MOV     H,A
00006B50: 1E                 MOV     H,A
00006B51: 1E                 MOV     H,A
00006B52: 1E                 MOV     H,A
00006B53: 1E                 MOV     H,A
00006B54: 1E                 MOV     H,A
00006B55: 1E                 MOV     H,A
00006B56: 1E                 MOV     H,A
00006B57: 1E                 MOV     H,A
00006B58: 1E                 MOV     H,A
00006B59: 1E                 MOV     H,A
00006B5A: 1C                 MOV     D,A
00006B5B: 1C                 MOV     D,A
00006B5C: 1C                 MOV     D,A
00006B5D: 1C                 MOV     D,A
00006B5E: 1C                 MOV     D,A
00006B5F: 1C                 MOV     D,A
00006B60: 1C                 MOV     D,A
00006B61: 1C                 MOV     D,A
00006B62: 1C                 MOV     D,A
00006B63: 1C                 MOV     D,A
00006B64: 1C                 MOV     D,A
00006B65: 8A                 CALT    ($0094)
00006B66: 8B                 CALT    ($0096)
00006B67: 8B                 CALT    ($0096)
00006B68: 41                 INR     A
00006B69: 44 00 28           LXI     EA,$2800
00006B6C: 00                 NOP     
00006B6D: 10                 EXA     
00006B6E: 00                 NOP     
00006B6F: 28                 illegal 
00006B70: 00                 NOP     
00006B71: 44 8B 80           LXI     EA,$808B
00006B74: 00                 NOP     
00006B75: 04 48 20           LXI     SP,$2048
00006B78: 10                 EXA     
00006B79: 28                 illegal 
00006B7A: 04 40 00           LXI     SP,$0040
00006B7D: 04 0F C0           LXI     SP,$C00F
00006B80: 00                 NOP     
00006B81: 03                 DCX     SP
00006B82: 00                 NOP     
00006B83: 22                 INX     DE
00006B84: 00                 NOP     
00006B85: 00                 NOP     
00006B86: 14 00 00           LXI     BC,$0000
00006B89: 08                 MOV     A,EAH
00006B8A: 00                 NOP     
00006B8B: 00                 NOP     
00006B8C: 14 00 00           LXI     BC,$0000
00006B8F: 22                 INX     DE
00006B90: 00                 NOP     
00006B91: 42                 INR     B
00006B92: 00                 NOP     
00006B93: 00                 NOP     
00006B94: 24 00 00           LXI     DE,$0000
00006B97: 18                 MOV     EAH,A
00006B98: 00                 NOP     
00006B99: 18                 MOV     EAH,A
00006B9A: 00                 NOP     
00006B9B: 00                 NOP     
00006B9C: 24 00 00           LXI     DE,$0000
00006B9F: 42                 INR     B
00006BA0: 8A                 CALT    ($0094)
00006BA1: 8B                 CALT    ($0096)
00006BA2: 8B                 CALT    ($0096)
00006BA3: 40 78 00           CALL    $0078
00006BA6: 84                 CALT    ($0088)
00006BA7: FC                 JR      $6BA4
00006BA8: D4                 JR      $6BBD
00006BA9: D4                 JR      $6BBE
00006BAA: AC                 LDAX    (HL+A)
00006BAB: 00                 NOP     
00006BAC: 78 8B              CALF    $088B
00006BAE: 40 78 00           CALL    $0078
00006BB1: 84                 CALT    ($0088)
00006BB2: FC                 JR      $6BAF
00006BB3: D4                 JR      $6BC8
00006BB4: D4                 JR      $6BC9
00006BB5: AC                 LDAX    (HL+A)
00006BB6: 00                 NOP     
00006BB7: 78 03              CALF    $0803
00006BB9: 11                 EXX     
00006BBA: C0                 JR      $6BBB
00006BBB: 00                 NOP     
00006BBC: 03                 DCX     SP
00006BBD: 30 08              DCRW    VV:08
00006BBF: 40 00 3C           CALL    $3C00
00006BC2: 14 14 14           LXI     BC,$1414
00006BC5: 14 14 1C           LXI     BC,$1C14
00006BC8: 1C                 MOV     D,A
00006BC9: 2C                 LDAX    (DE+)
00006BCA: 00                 NOP     
00006BCB: 40 08 30           CALL    $3008
00006BCE: 30 40              DCRW    VV:40
00006BD0: 08                 MOV     A,EAH
00006BD1: 00                 NOP     
00006BD2: F0                 JR      $6BC3
00006BD3: C0                 JR      $6BD4
00006BD4: C0                 JR      $6BD5
00006BD5: C0                 JR      $6BD6
00006BD6: C0                 JR      $6BD7
00006BD7: D0                 JR      $6BE8
00006BD8: C0                 JR      $6BD9
00006BD9: C0                 JR      $6BDA
00006BDA: A0                 POP     VA
00006BDB: 00                 NOP     
00006BDC: 08                 MOV     A,EAH
00006BDD: 40 30 8E           CALL    $8E30
00006BE0: 8B                 CALT    ($0096)
00006BE1: 8B                 CALT    ($0096)
00006BE2: 12                 INX     BC
00006BE3: 0E                 MOV     A,H
00006BE4: 14 24 24           LXI     BC,$2424
00006BE7: 64 A4              illegal 
00006BE9: 24 14 0E           LXI     DE,$0E14
00006BEC: 8B                 CALT    ($0096)
00006BED: 00                 NOP     
00006BEE: 02                 INX     SP
00006BEF: 04 0C 14           LXI     SP,$140C
00006BF2: 04 24 64           LXI     SP,$6424
00006BF5: 3E                 STAX    (DE-)
00006BF6: 80                 CALT    ($0080)
00006BF7: 06                 illegal 
00006BF8: 0C                 MOV     A,D
00006BF9: 14 04 64           LXI     BC,$6404
00006BFC: 24 BE 00           LXI     DE,$00BE
00006BFF: 41                 INR     A
00006C00: 15 00 2E           ORIW    VV:00,$2E
00006C03: 6C 01              MVI     D,$01
00006C05: 01 01              LDAW    VV:01
00006C07: 03                 DCX     SP
00006C08: 05 05 0D           ANIW    VV:05,$0D
00006C0B: 14 44 24           LXI     BC,$2444
00006C0E: 24 24 84           LXI     DE,$8424
00006C11: 14 8D 05           LXI     BC,$058D
00006C14: 05 03 01           ANIW    VV:03,$01
00006C17: 01 01              LDAW    VV:01
00006C19: 00                 NOP     
00006C1A: 00                 NOP     
00006C1B: 02                 INX     SP
00006C1C: 04 00 08           LXI     SP,$0800
00006C1F: 10                 EXA     
00006C20: 00                 NOP     
00006C21: 20 00              INRW    VV:00
00006C23: 80                 CALT    ($0080)
00006C24: 00                 NOP     
00006C25: A0                 POP     VA
00006C26: 00                 NOP     
00006C27: 10                 EXA     
00006C28: 08                 MOV     A,EAH
00006C29: 00                 NOP     
00006C2A: 04 02 00           LXI     SP,$0002
00006C2D: 00                 NOP     
00006C2E: 00                 NOP     
00006C2F: 13                 DCX     BC
00006C30: 01 01              LDAW    VV:01
00006C32: 01 03              LDAW    VV:03
00006C34: 05 0D 05           ANIW    VV:0D,$05
00006C37: 54 24 24           JMP     $2424
00006C3A: 24 94 05           LXI     DE,$0594
00006C3D: 8D                 CALT    ($009A)
00006C3E: 05 03 01           ANIW    VV:03,$01
00006C41: 01 01              LDAW    VV:01
00006C43: 00                 NOP     
00006C44: 00                 NOP     
00006C45: 02                 INX     SP
00006C46: 04 00 08           LXI     SP,$0800
00006C49: 10                 EXA     
00006C4A: 20 00              INRW    VV:00
00006C4C: 80                 CALT    ($0080)
00006C4D: 00                 NOP     
00006C4E: A0                 POP     VA
00006C4F: 10                 EXA     
00006C50: 08                 MOV     A,EAH
00006C51: 00                 NOP     
00006C52: 04 02 00           LXI     SP,$0002
00006C55: 00                 NOP     
00006C56: AE                 LDAX    (HL+EA)
00006C57: 8B                 CALT    ($0096)
00006C58: 8B                 CALT    ($0096)
00006C59: 00                 NOP     
00006C5A: 46 0C              ADI     A,$0C
00006C5C: 94                 CALT    ($00A8)
00006C5D: A4                 POP     EA
00006C5E: A4                 POP     EA
00006C5F: A4                 POP     EA
00006C60: 94                 CALT    ($00A8)
00006C61: 0C                 MOV     A,D
00006C62: 46 4E              ADI     A,$4E
00006C64: 14 84 A4           LXI     BC,$A484
00006C67: 84                 CALT    ($0088)
00006C68: 14 4E 00           LXI     BC,$004E
00006C6B: 00                 NOP     
00006C6C: 8B                 CALT    ($0096)
00006C6D: 00                 NOP     
00006C6E: 02                 INX     SP
00006C6F: 04 0C 54           LXI     SP,$540C
00006C72: 04 A4 A4           LXI     SP,$A4A4
00006C75: BE                 STAX    (HL+EA)
00006C76: 40 06 0C           CALL    $0C06
00006C79: 54 04 A4           JMP     $A404
00006C7C: 24 BE 40           LXI     DE,$40BE
00006C7F: 01 15              LDAW    VV:15
00006C81: 80                 CALT    ($0080)
00006C82: 18                 MOV     EAH,A
00006C83: 01 01              LDAW    VV:01
00006C85: 01 01              LDAW    VV:01
00006C87: 03                 DCX     SP
00006C88: 05 45 0D           ANIW    VV:45,$0D
00006C8B: 14 24 84           LXI     BC,$8424
00006C8E: 84                 CALT    ($0088)
00006C8F: 84                 CALT    ($0088)
00006C90: 24 14 0D           LXI     DE,$0D14
00006C93: 45 05 03           ONIW    VV:05,$03
00006C96: 01 01              LDAW    VV:01
00006C98: 01 00              LDAW    VV:00
00006C9A: 00                 NOP     
00006C9B: 02                 INX     SP
00006C9C: 04 00 08           LXI     SP,$0800
00006C9F: 10                 EXA     
00006CA0: 80                 CALT    ($0080)
00006CA1: 20 40              INRW    VV:40
00006CA3: 40 40 20           CALL    $2040
00006CA6: 80                 CALT    ($0080)
00006CA7: 10                 EXA     
00006CA8: 08                 MOV     A,EAH
00006CA9: 00                 NOP     
00006CAA: 04 02 00           LXI     SP,$0002
00006CAD: 00                 NOP     
00006CAE: 8E                 CALT    ($009C)
00006CAF: 8B                 CALT    ($0096)
00006CB0: 8B                 CALT    ($0096)
00006CB1: 24 0E 14           LXI     DE,$140E
00006CB4: 24 A4 64           LXI     DE,$64A4
00006CB7: 24 24 14           LXI     DE,$1424
00006CBA: 0E                 MOV     A,H
00006CBB: 8B                 CALT    ($0096)
00006CBC: 00                 NOP     
00006CBD: 02                 INX     SP
00006CBE: 04 0C 14           LXI     SP,$140C
00006CC1: 04 A4 64           LXI     SP,$64A4
00006CC4: 3E                 STAX    (DE-)
00006CC5: 00                 NOP     
00006CC6: 06                 illegal 
00006CC7: 0C                 MOV     A,D
00006CC8: 14 04 A4           LXI     BC,$A404
00006CCB: 64 3E 00           LTI     MKH,$00
00006CCE: 41                 INR     A
00006CCF: 15 00 FD           ORIW    VV:00,$FD
00006CD2: 6C 01              MVI     D,$01
00006CD4: 01 01              LDAW    VV:01
00006CD6: 03                 DCX     SP
00006CD7: 05 05 8D           ANIW    VV:05,$8D
00006CDA: 14 84 24           LXI     BC,$2484
00006CDD: 24 24 44           LXI     DE,$4424
00006CE0: 14 0D 05           LXI     BC,$050D
00006CE3: 05 03 01           ANIW    VV:03,$01
00006CE6: 01 01              LDAW    VV:01
00006CE8: 00                 NOP     
00006CE9: 00                 NOP     
00006CEA: 02                 INX     SP
00006CEB: 04 00 08           LXI     SP,$0800
00006CEE: 10                 EXA     
00006CEF: 00                 NOP     
00006CF0: A0                 POP     VA
00006CF1: 00                 NOP     
00006CF2: 80                 CALT    ($0080)
00006CF3: 00                 NOP     
00006CF4: 20 00              INRW    VV:00
00006CF6: 10                 EXA     
00006CF7: 08                 MOV     A,EAH
00006CF8: 00                 NOP     
00006CF9: 04 02 00           LXI     SP,$0002
00006CFC: 00                 NOP     
00006CFD: 00                 NOP     
00006CFE: 13                 DCX     BC
00006CFF: 01 01              LDAW    VV:01
00006D01: 01 03              LDAW    VV:03
00006D03: 05 8D 05           ANIW    VV:8D,$05
00006D06: 94                 CALT    ($00A8)
00006D07: 24 24 24           LXI     DE,$2424
00006D0A: 54 05 0D           JMP     $0D05
00006D0D: 05 03 01           ANIW    VV:03,$01
00006D10: 01 01              LDAW    VV:01
00006D12: 00                 NOP     
00006D13: 00                 NOP     
00006D14: 02                 INX     SP
00006D15: 04 00 08           LXI     SP,$0800
00006D18: 10                 EXA     
00006D19: A0                 POP     VA
00006D1A: 00                 NOP     
00006D1B: 80                 CALT    ($0080)
00006D1C: 00                 NOP     
00006D1D: 20 10              INRW    VV:10
00006D1F: 08                 MOV     A,EAH
00006D20: 00                 NOP     
00006D21: 04 02 00           LXI     SP,$0002
00006D24: 00                 NOP     
00006D25: 8A                 CALT    ($0094)
00006D26: 8B                 CALT    ($0096)
00006D27: 8B                 CALT    ($0096)
00006D28: 01 78              LDAW    VV:78
00006D2A: 00                 NOP     
00006D2B: B4                 PUSH    EA
00006D2C: CC                 JR      $6D39
00006D2D: CC                 JR      $6D3A
00006D2E: CC                 JR      $6D3B
00006D2F: 84                 CALT    ($0088)
00006D30: 00                 NOP     
00006D31: 78 8B              CALF    $088B
00006D33: 01 78              LDAW    VV:78
00006D35: 00                 NOP     
00006D36: B4                 PUSH    EA
00006D37: CC                 JR      $6D44
00006D38: CC                 JR      $6D45
00006D39: CC                 JR      $6D46
00006D3A: 84                 CALT    ($0088)
00006D3B: 00                 NOP     
00006D3C: 78 03              CALF    $0803
00006D3E: 11                 EXX     
00006D3F: C0                 JR      $6D40
00006D40: 00                 NOP     
00006D41: 03                 DCX     SP
00006D42: 30 08              DCRW    VV:08
00006D44: 40 00 34           CALL    $3400
00006D47: 04 0C 0C           LXI     SP,$0C0C
00006D4A: 0C                 MOV     A,D
00006D4B: 0C                 MOV     A,D
00006D4C: 0C                 MOV     A,D
00006D4D: 0C                 MOV     A,D
00006D4E: 24 00 40           LXI     DE,$4000
00006D51: 08                 MOV     A,EAH
00006D52: 30 30              DCRW    VV:30
00006D54: 40 08 00           CALL    $0008
00006D57: B0                 PUSH    VA
00006D58: 80                 CALT    ($0080)
00006D59: C0                 JR      $6D5A
00006D5A: C0                 JR      $6D5B
00006D5B: C0                 JR      $6D5C
00006D5C: C0                 JR      $6D5D
00006D5D: C0                 JR      $6D5E
00006D5E: C0                 JR      $6D5F
00006D5F: 90                 CALT    ($00A0)
00006D60: 00                 NOP     
00006D61: 08                 MOV     A,EAH
00006D62: 40 30 AE           CALL    $AE30
00006D65: 8B                 CALT    ($0096)
00006D66: 8B                 CALT    ($0096)
00006D67: 00                 NOP     
00006D68: 44 80 8A           LXI     EA,$8A80
00006D6B: AA                 EI      
00006D6C: 6A 68              MVI     B,$68
00006D6E: 5C 82              BIT     4,VV:82
00006D70: 00                 NOP     
00006D71: 40 84 8A           CALL    $8A84
00006D74: AA                 EI      
00006D75: 6A 68              MVI     B,$68
00006D77: 5C 82              BIT     4,VV:82
00006D79: 00                 NOP     
00006D7A: 8B                 CALT    ($0096)
00006D7B: 00                 NOP     
00006D7C: 04 4A AA           LXI     SP,$AA4A
00006D7F: AA                 EI      
00006D80: AA                 EI      
00006D81: 6A 6C              MVI     B,$6C
00006D83: 5A 80              BIT     2,VV:80
00006D85: 44 AA AA           LXI     EA,$AAAA
00006D88: AA                 EI      
00006D89: 68 6C              MVI     V,$6C
00006D8B: 52                 DCR     B
00006D8C: 80                 CALT    ($0080)
00006D8D: 03                 DCX     SP
00006D8E: 13                 DCX     BC
00006D8F: 80                 CALT    ($0080)
00006D90: 60 01              illegal 
00006D92: 02                 INX     SP
00006D93: 04 50 11           LXI     SP,$1150
00006D96: 11                 EXX     
00006D97: 81                 CALT    ($0082)
00006D98: 81                 CALT    ($0082)
00006D99: 81                 CALT    ($0082)
00006D9A: 01 01              LDAW    VV:01
00006D9C: 01 41              LDAW    VV:41
00006D9E: 40 40 10           CALL    $1040
00006DA1: 0E                 MOV     A,H
00006DA2: 81                 CALT    ($0082)
00006DA3: 01 01              LDAW    VV:01
00006DA5: 04 02 00           LXI     SP,$0002
00006DA8: 88                 CALT    ($0090)
00006DA9: 28                 illegal 
00006DAA: 28                 illegal 
00006DAB: 28                 illegal 
00006DAC: 28                 illegal 
00006DAD: 28                 illegal 
00006DAE: A8                 INX     EA
00006DAF: 28                 illegal 
00006DB0: 28                 illegal 
00006DB1: 28                 illegal 
00006DB2: 0A                 MOV     A,B
00006DB3: 0A                 MOV     A,B
00006DB4: 9E                 CALT    ($00BC)
00006DB5: 00                 NOP     
00006DB6: 00                 NOP     
00006DB7: 00                 NOP     
00006DB8: AE                 LDAX    (HL+EA)
00006DB9: 8B                 CALT    ($0096)
00006DBA: 8B                 CALT    ($0096)
00006DBB: 00                 NOP     
00006DBC: 46 8C              ADI     A,$8C
00006DBE: 94                 CALT    ($00A8)
00006DBF: A4                 POP     EA
00006DC0: 24 64 54           LXI     DE,$5464
00006DC3: 4C 86              illegal 
00006DC5: 40 8E 94           CALL    $948E
00006DC8: A4                 POP     EA
00006DC9: 64 64              illegal 
00006DCB: 54 8E 00           JMP     $008E
00006DCE: 8B                 CALT    ($0096)
00006DCF: 00                 NOP     
00006DD0: 06                 illegal 
00006DD1: 4C 94              illegal 
00006DD3: 84                 CALT    ($0088)
00006DD4: A4                 POP     EA
00006DD5: 64 7E 40           EQI     MKH,$40
00006DD8: 80                 CALT    ($0080)
00006DD9: 06                 illegal 
00006DDA: 4C 94              illegal 
00006DDC: 04 64 64           LXI     SP,$6464
00006DDF: 7E 80              CALF    $0E80
00006DE1: 41                 INR     A
00006DE2: 15 00 10           ORIW    VV:00,$10
00006DE5: 6E 01              MVI     H,$01
00006DE7: 01 01              LDAW    VV:01
00006DE9: 43                 INR     C
00006DEA: 05 05 8D           ANIW    VV:05,$8D
00006DED: 94                 CALT    ($00A8)
00006DEE: 84                 CALT    ($0088)
00006DEF: 24 24 24           LXI     DE,$2424
00006DF2: 44 54 4D           LXI     EA,$4D54
00006DF5: 05 05 83           ANIW    VV:05,$83
00006DF8: 01 01              LDAW    VV:01
00006DFA: 01 00              LDAW    VV:00
00006DFC: 00                 NOP     
00006DFD: 02                 INX     SP
00006DFE: 04 80 08           LXI     SP,$0880
00006E01: 10                 EXA     
00006E02: 00                 NOP     
00006E03: 20 00              INRW    VV:00
00006E05: 80                 CALT    ($0080)
00006E06: 00                 NOP     
00006E07: 20 00              INRW    VV:00
00006E09: 10                 EXA     
00006E0A: 08                 MOV     A,EAH
00006E0B: 80                 CALT    ($0080)
00006E0C: 04 02 00           LXI     SP,$0002
00006E0F: 00                 NOP     
00006E10: 00                 NOP     
00006E11: 13                 DCX     BC
00006E12: 01 01              LDAW    VV:01
00006E14: 03                 DCX     SP
00006E15: 45 05 8D           ONIW    VV:05,$8D
00006E18: 95                 CALT    ($00AA)
00006E19: A4                 POP     EA
00006E1A: 04 04 04           LXI     SP,$0404
00006E1D: 64 55 4D           ACI     PF,$4D
00006E20: 05 85 03           ANIW    VV:85,$03
00006E23: 01 01              LDAW    VV:01
00006E25: 00                 NOP     
00006E26: 00                 NOP     
00006E27: 02                 INX     SP
00006E28: 04 88 10           LXI     SP,$1088
00006E2B: 00                 NOP     
00006E2C: 20 40              INRW    VV:40
00006E2E: C0                 JR      $6E2F
00006E2F: 40 20 00           CALL    $0020
00006E32: 10                 EXA     
00006E33: 88                 CALT    ($0090)
00006E34: 04 02 00           LXI     SP,$0002
00006E37: 00                 NOP     
00006E38: 8A                 CALT    ($0094)
00006E39: 8B                 CALT    ($0096)
00006E3A: 8B                 CALT    ($0096)
00006E3B: 80                 CALT    ($0080)
00006E3C: 00                 NOP     
00006E3D: 04 A2 0A           LXI     SP,$0AA2
00006E40: 4A 2A              MVIX    DE,$2A
00006E42: 9A                 CALT    ($00B4)
00006E43: 0C                 MOV     A,D
00006E44: 00                 NOP     
00006E45: 8B                 CALT    ($0096)
00006E46: 80                 CALT    ($0080)
00006E47: 00                 NOP     
00006E48: 04 02 2A           LXI     SP,$2A02
00006E4B: 8A                 CALT    ($0094)
00006E4C: 4A 2A              MVIX    DE,$2A
00006E4E: 9C                 CALT    ($00B8)
00006E4F: 00                 NOP     
00006E50: 03                 DCX     SP
00006E51: 10                 EXA     
00006E52: 80                 CALT    ($0080)
00006E53: 02                 INX     SP
00006E54: 03                 DCX     SP
00006E55: 24 2A A0           LXI     DE,$A02A
00006E58: 80                 CALT    ($0080)
00006E59: 91                 CALT    ($00A2)
00006E5A: 11                 EXX     
00006E5B: 11                 EXX     
00006E5C: 11                 EXX     
00006E5D: 51                 DCR     A
00006E5E: 51                 DCR     A
00006E5F: 51                 DCR     A
00006E60: 51                 DCR     A
00006E61: 10                 EXA     
00006E62: 20 12              INRW    VV:12
00006E64: 8C                 CALT    ($0098)
00006E65: 0C                 MOV     A,D
00006E66: 00                 NOP     
00006E67: 12                 INX     BC
00006E68: 00                 NOP     
00006E69: 40 40 C0           CALL    $C040
00006E6C: 80                 CALT    ($0080)
00006E6D: 80                 CALT    ($0080)
00006E6E: 80                 CALT    ($0080)
00006E6F: 00                 NOP     
00006E70: 00                 NOP     
00006E71: 40 92 20           CALL    $2092
00006E74: 1C                 MOV     D,A
00006E75: 8A                 CALT    ($0094)
00006E76: 8B                 CALT    ($0096)
00006E77: 8B                 CALT    ($0096)
00006E78: 30 92              DCRW    VV:92
00006E7A: FE                 JR      $6E79
00006E7B: 92                 CALT    ($00A4)
00006E7C: 92                 CALT    ($00A4)
00006E7D: 92                 CALT    ($00A4)
00006E7E: 82                 CALT    ($0084)
00006E7F: 82                 CALT    ($0084)
00006E80: 44 38 8B           LXI     EA,$8B38
00006E83: 04 16 9A           LXI     SP,$9A16
00006E86: F2                 JR      $6E79
00006E87: 92                 CALT    ($00A4)
00006E88: 92                 CALT    ($00A4)
00006E89: 80                 CALT    ($0080)
00006E8A: 84                 CALT    ($0088)
00006E8B: 88                 CALT    ($0090)
00006E8C: 70 02              illegal 
00006E8E: 14 05 00           LXI     BC,$0005
00006E91: 11                 EXX     
00006E92: 81                 CALT    ($0082)
00006E93: 81                 CALT    ($0082)
00006E94: 81                 CALT    ($0082)
00006E95: 81                 CALT    ($0082)
00006E96: FF                 JR      $6E96
00006E97: 81                 CALT    ($0082)
00006E98: 81                 CALT    ($0082)
00006E99: 81                 CALT    ($0082)
00006E9A: 81                 CALT    ($0082)
00006E9B: 81                 CALT    ($0082)
00006E9C: 81                 CALT    ($0082)
00006E9D: 81                 CALT    ($0082)
00006E9E: 81                 CALT    ($0082)
00006E9F: 00                 NOP     
00006EA0: 00                 NOP     
00006EA1: 00                 NOP     
00006EA2: 42                 INR     B
00006EA3: 00                 NOP     
00006EA4: 24 18 00           LXI     DE,$0018
00006EA7: 10                 EXA     
00006EA8: 10                 EXA     
00006EA9: 10                 EXA     
00006EAA: FE                 JR      $6EA9
00006EAB: 10                 EXA     
00006EAC: 10                 EXA     
00006EAD: 10                 EXA     
00006EAE: 10                 EXA     
00006EAF: 10                 EXA     
00006EB0: 00                 NOP     
00006EB1: 00                 NOP     
00006EB2: 00                 NOP     
00006EB3: 00                 NOP     
00006EB4: 82                 CALT    ($0084)
00006EB5: 00                 NOP     
00006EB6: 00                 NOP     
00006EB7: 00                 NOP     
00006EB8: 44 38 AA           LXI     EA,$AA38
00006EBB: 8B                 CALT    ($0096)
00006EBC: 8B                 CALT    ($0096)
00006EBD: 22                 INX     DE
00006EBE: 3E                 STAX    (DE-)
00006EBF: 2A                 LDAX    (DE)
00006EC0: 6A 2A              MVI     B,$2A
00006EC2: AA                 EI      
00006EC3: 2A                 LDAX    (DE)
00006EC4: 6A 22              MVI     B,$22
00006EC6: 22                 INX     DE
00006EC7: 3E                 STAX    (DE-)
00006EC8: 6A 2A              MVI     B,$2A
00006ECA: AA                 EI      
00006ECB: 2A                 LDAX    (DE)
00006ECC: 62                 RETI    
00006ECD: 22                 INX     DE
00006ECE: 00                 NOP     
00006ECF: 00                 NOP     
00006ED0: 8B                 CALT    ($0096)
00006ED1: 03                 DCX     SP
00006ED2: 06                 illegal 
00006ED3: 5A 2A              BIT     2,VV:2A
00006ED5: AA                 EI      
00006ED6: AA                 EI      
00006ED7: AA                 EI      
00006ED8: A2                 POP     DE
00006ED9: A0                 POP     VA
00006EDA: 60 02              illegal 
00006EDC: 13                 DCX     BC
00006EDD: 04 18 40           LXI     SP,$4018
00006EE0: 01 01              LDAW    VV:01
00006EE2: 01 01              LDAW    VV:01
00006EE4: 7F 09              CALF    $0F09
00006EE6: 09                 MOV     A,EAL
00006EE7: 09                 MOV     A,EAL
00006EE8: 89                 CALT    ($0092)
00006EE9: 89                 CALT    ($0092)
00006EEA: 89                 CALT    ($0092)
00006EEB: 09                 MOV     A,EAL
00006EEC: 09                 MOV     A,EAL
00006EED: 1D                 MOV     E,A
00006EEE: 41                 INR     A
00006EEF: 01 01              LDAW    VV:01
00006EF1: 01 33              LDAW    VV:33
00006EF3: 40 40 40           CALL    $4040
00006EF6: 40 7E 40           CALL    $407E
00006EF9: C0                 JR      $6EFA
00006EFA: 40 40 40           CALL    $4040
00006EFD: 40 40 C0           CALL    $C040
00006F00: 58 40              BIT     0,VV:40
00006F02: 40 40 40           CALL    $4040
00006F05: 66 8E              SUI     A,$8E
00006F07: 8B                 CALT    ($0096)
00006F08: 8B                 CALT    ($0096)
00006F09: 44 3E 2A           LXI     EA,$2A3E
00006F0C: AA                 EI      
00006F0D: 2A                 LDAX    (DE)
00006F0E: 2A                 LDAX    (DE)
00006F0F: 2A                 LDAX    (DE)
00006F10: AA                 EI      
00006F11: 22                 INX     DE
00006F12: 22                 INX     DE
00006F13: 8B                 CALT    ($0096)
00006F14: 00                 NOP     
00006F15: 06                 illegal 
00006F16: 1A                 MOV     B,A
00006F17: 2A                 LDAX    (DE)
00006F18: AA                 EI      
00006F19: 2A                 LDAX    (DE)
00006F1A: 2A                 LDAX    (DE)
00006F1B: 22                 INX     DE
00006F1C: A0                 POP     VA
00006F1D: 20 06              INRW    VV:06
00006F1F: 1A                 MOV     B,A
00006F20: AA                 EI      
00006F21: 2A                 LDAX    (DE)
00006F22: 2A                 LDAX    (DE)
00006F23: 28                 illegal 
00006F24: A0                 POP     VA
00006F25: 00                 NOP     
00006F26: 02                 INX     SP
00006F27: 13                 DCX     BC
00006F28: 04 38 00           LXI     SP,$0038
00006F2B: 01 01              LDAW    VV:01
00006F2D: 01 01              LDAW    VV:01
00006F2F: BF 89              STAX    (HL+$89)
00006F31: 89                 CALT    ($0092)
00006F32: 09                 MOV     A,EAL
00006F33: 09                 MOV     A,EAL
00006F34: 09                 MOV     A,EAL
00006F35: 09                 MOV     A,EAL
00006F36: 09                 MOV     A,EAL
00006F37: 09                 MOV     A,EAL
00006F38: 1D                 MOV     E,A
00006F39: 81                 CALT    ($0082)
00006F3A: 81                 CALT    ($0082)
00006F3B: 81                 CALT    ($0082)
00006F3C: 01 33              LDAW    VV:33
00006F3E: 40 40 40           CALL    $4040
00006F41: 40 7E 40           CALL    $407E
00006F44: 40 40 40           CALL    $4040
00006F47: 40 40 40           CALL    $4040
00006F4A: 40 58 40           CALL    $4058
00006F4D: 40 40 40           CALL    $4040
00006F50: 66 8E              SUI     A,$8E
00006F52: 8B                 CALT    ($0096)
00006F53: 8B                 CALT    ($0096)
00006F54: 24 3E 2A           LXI     DE,$2A3E
00006F57: 2A                 LDAX    (DE)
00006F58: AA                 EI      
00006F59: 6A 2A              MVI     B,$2A
00006F5B: 2A                 LDAX    (DE)
00006F5C: 22                 INX     DE
00006F5D: 22                 INX     DE
00006F5E: 8B                 CALT    ($0096)
00006F5F: 00                 NOP     
00006F60: 06                 illegal 
00006F61: 1A                 MOV     B,A
00006F62: 2A                 LDAX    (DE)
00006F63: 2A                 LDAX    (DE)
00006F64: AA                 EI      
00006F65: 6A 22              MVI     B,$22
00006F67: 20 20              INRW    VV:20
00006F69: 06                 illegal 
00006F6A: 1A                 MOV     B,A
00006F6B: 2A                 LDAX    (DE)
00006F6C: AA                 EI      
00006F6D: 6A 28              MVI     B,$28
00006F6F: 20 00              INRW    VV:00
00006F71: 02                 INX     SP
00006F72: 13                 DCX     BC
00006F73: 04 0A 80           LXI     SP,$800A
00006F76: 01 01              LDAW    VV:01
00006F78: 01 01              LDAW    VV:01
00006F7A: 3F                 STAX    (HL-)
00006F7B: 89                 CALT    ($0092)
00006F7C: 09                 MOV     A,EAL
00006F7D: 89                 CALT    ($0092)
00006F7E: 09                 MOV     A,EAL
00006F7F: 09                 MOV     A,EAL
00006F80: 09                 MOV     A,EAL
00006F81: 49 09              MVIX    BC,$09
00006F83: 1D                 MOV     E,A
00006F84: 01 01              LDAW    VV:01
00006F86: 01 01              LDAW    VV:01
00006F88: 33                 DCX     HL
00006F89: 40 40 40           CALL    $4040
00006F8C: 40 7E 40           CALL    $407E
00006F8F: 40 C0 40           CALL    $40C0
00006F92: C0                 JR      $6F93
00006F93: 40 40 40           CALL    $4040
00006F96: 58 40              BIT     0,VV:40
00006F98: 40 40 40           CALL    $4040
00006F9B: 66 8A              SUI     A,$8A
00006F9D: 8B                 CALT    ($0096)
00006F9E: 8B                 CALT    ($0096)
00006F9F: 41                 INR     A
00006FA0: 00                 NOP     
00006FA1: 02                 INX     SP
00006FA2: 22                 INX     DE
00006FA3: 22                 INX     DE
00006FA4: 3E                 STAX    (DE-)
00006FA5: 02                 INX     SP
00006FA6: 02                 INX     SP
00006FA7: 02                 INX     SP
00006FA8: 00                 NOP     
00006FA9: 8B                 CALT    ($0096)
00006FAA: 00                 NOP     
00006FAB: 00                 NOP     
00006FAC: 02                 INX     SP
00006FAD: 02                 INX     SP
00006FAE: 26 3A              ADINC   A,$3A
00006FB0: 22                 INX     DE
00006FB1: 00                 NOP     
00006FB2: 00                 NOP     
00006FB3: 00                 NOP     
00006FB4: 05 0F 84           ANIW    VV:0F,$84
00006FB7: 00                 NOP     
00006FB8: 11                 EXX     
00006FB9: 01 01              LDAW    VV:01
00006FBB: 01 01              LDAW    VV:01
00006FBD: 01 01              LDAW    VV:01
00006FBF: 01 1F              LDAW    VV:1F
00006FC1: 01 01              LDAW    VV:01
00006FC3: 01 01              LDAW    VV:01
00006FC5: 01 01              LDAW    VV:01
00006FC7: 01 00              LDAW    VV:00
00006FC9: 20 20              INRW    VV:20
00006FCB: 20 20              INRW    VV:20
00006FCD: 20 20              INRW    VV:20
00006FCF: 3E                 STAX    (DE-)
00006FD0: 00                 NOP     
00006FD1: 00                 NOP     
00006FD2: 00                 NOP     
00006FD3: 00                 NOP     
00006FD4: 00                 NOP     
00006FD5: 00                 NOP     
00006FD6: 00                 NOP     
00006FD7: 8A                 CALT    ($0094)
00006FD8: 8B                 CALT    ($0096)
00006FD9: 8B                 CALT    ($0096)
00006FDA: 80                 CALT    ($0080)
00006FDB: 00                 NOP     
00006FDC: 00                 NOP     
00006FDD: 12                 INX     BC
00006FDE: 12                 INX     BC
00006FDF: 5E 92              BIT     6,VV:92
00006FE1: 12                 INX     BC
00006FE2: 00                 NOP     
00006FE3: 00                 NOP     
00006FE4: 8B                 CALT    ($0096)
00006FE5: 80                 CALT    ($0080)
00006FE6: 00                 NOP     
00006FE7: 02                 INX     SP
00006FE8: 12                 INX     BC
00006FE9: 16 1A              XRI     A,$1A
00006FEB: 52                 DCR     B
00006FEC: 10                 EXA     
00006FED: 80                 CALT    ($0080)
00006FEE: 00                 NOP     
00006FEF: 05 0D 84           ANIW    VV:0D,$84
00006FF2: 00                 NOP     
00006FF3: 41                 INR     A
00006FF4: 21                 JB      
00006FF5: 21                 JB      
00006FF6: 21                 JB      
00006FF7: 21                 JB      
00006FF8: 61                 DAA     
00006FF9: 21                 JB      
00006FFA: 3F                 STAX    (HL-)
00006FFB: 21                 JB      
00006FFC: A1                 POP     BC
00006FFD: 21                 JB      
00006FFE: A1                 POP     BC
00006FFF: 21                 JB      
00007000: 21                 JB      
00007001: 00                 NOP     
00007002: 00                 NOP     
00007003: 00                 NOP     
00007004: 00                 NOP     
00007005: 00                 NOP     
00007006: 00                 NOP     
00007007: BE                 STAX    (HL+EA)
00007008: 00                 NOP     
00007009: 80                 CALT    ($0080)
0000700A: 00                 NOP     
0000700B: 00                 NOP     
0000700C: 00                 NOP     
0000700D: 00                 NOP     
0000700E: 8A                 CALT    ($0094)
0000700F: 8B                 CALT    ($0096)
00007010: 8B                 CALT    ($0096)
00007011: 80                 CALT    ($0080)
00007012: 00                 NOP     
00007013: 40 12 92           CALL    $9212
00007016: 9E                 CALT    ($00BC)
00007017: 92                 CALT    ($00A4)
00007018: 12                 INX     BC
00007019: 40 00 8B           CALL    $8B00
0000701C: 80                 CALT    ($0080)
0000701D: 00                 NOP     
0000701E: 42                 INR     B
0000701F: 22                 INX     DE
00007020: A6                 DMOV    EA,DE
00007021: BA                 DI      
00007022: A2                 POP     DE
00007023: A0                 POP     VA
00007024: 80                 CALT    ($0080)
00007025: 40 05 0D           CALL    $0D05
00007028: 84                 CALT    ($0088)
00007029: 00                 NOP     
0000702A: 41                 INR     A
0000702B: 21                 JB      
0000702C: 61                 DAA     
0000702D: 21                 JB      
0000702E: 21                 JB      
0000702F: 21                 JB      
00007030: A1                 POP     BC
00007031: BF A1              STAX    (HL+$A1)
00007033: 21                 JB      
00007034: 21                 JB      
00007035: 21                 JB      
00007036: 61                 DAA     
00007037: 21                 JB      
00007038: 00                 NOP     
00007039: 00                 NOP     
0000703A: 00                 NOP     
0000703B: 80                 CALT    ($0080)
0000703C: 00                 NOP     
0000703D: 00                 NOP     
0000703E: 3E                 STAX    (DE-)
0000703F: 00                 NOP     
00007040: 00                 NOP     
00007041: 80                 CALT    ($0080)
00007042: 00                 NOP     
00007043: 00                 NOP     
00007044: 00                 NOP     
00007045: 8A                 CALT    ($0094)
00007046: 8B                 CALT    ($0096)
00007047: 8B                 CALT    ($0096)
00007048: 80                 CALT    ($0080)
00007049: 00                 NOP     
0000704A: 00                 NOP     
0000704B: A2                 POP     DE
0000704C: 22                 INX     DE
0000704D: 3E                 STAX    (DE-)
0000704E: 22                 INX     DE
0000704F: A2                 POP     DE
00007050: 00                 NOP     
00007051: 00                 NOP     
00007052: 8B                 CALT    ($0096)
00007053: 80                 CALT    ($0080)
00007054: 00                 NOP     
00007055: 02                 INX     SP
00007056: 22                 INX     DE
00007057: A6                 DMOV    EA,DE
00007058: 3A                 STAX    (DE)
00007059: 22                 INX     DE
0000705A: 20 80              INRW    VV:80
0000705C: 00                 NOP     
0000705D: 05 0D 84           ANIW    VV:0D,$84
00007060: 00                 NOP     
00007061: 41                 INR     A
00007062: 01 81              LDAW    VV:81
00007064: 81                 CALT    ($0082)
00007065: 81                 CALT    ($0082)
00007066: 01 01              LDAW    VV:01
00007068: 3F                 STAX    (HL-)
00007069: 01 01              LDAW    VV:01
0000706B: 81                 CALT    ($0082)
0000706C: 81                 CALT    ($0082)
0000706D: 81                 CALT    ($0082)
0000706E: 01 40              LDAW    VV:40
00007070: 40 40 40           CALL    $4040
00007073: 40 40 7E           CALL    $7E40
00007076: 40 40 40           CALL    $4040
00007079: 40 40 40           CALL    $4040
0000707C: 8A                 CALT    ($0094)
0000707D: 8B                 CALT    ($0096)
0000707E: 8B                 CALT    ($0096)
0000707F: 80                 CALT    ($0080)
00007080: 00                 NOP     
00007081: 00                 NOP     
00007082: 12                 INX     BC
00007083: 92                 CALT    ($00A4)
00007084: 5E 12              BIT     6,VV:12
00007086: 12                 INX     BC
00007087: 00                 NOP     
00007088: 00                 NOP     
00007089: 8B                 CALT    ($0096)
0000708A: 80                 CALT    ($0080)
0000708B: 00                 NOP     
0000708C: 02                 INX     SP
0000708D: 12                 INX     BC
0000708E: 16 9A              XRI     A,$9A
00007090: 52                 DCR     B
00007091: 10                 EXA     
00007092: 00                 NOP     
00007093: 00                 NOP     
00007094: 05 0D 84           ANIW    VV:0D,$84
00007097: 00                 NOP     
00007098: 41                 INR     A
00007099: 21                 JB      
0000709A: 21                 JB      
0000709B: 21                 JB      
0000709C: A1                 POP     BC
0000709D: 21                 JB      
0000709E: A1                 POP     BC
0000709F: 3F                 STAX    (HL-)
000070A0: 21                 JB      
000070A1: 21                 JB      
000070A2: 61                 DAA     
000070A3: 21                 JB      
000070A4: 21                 JB      
000070A5: 21                 JB      
000070A6: 00                 NOP     
000070A7: 00                 NOP     
000070A8: 00                 NOP     
000070A9: 00                 NOP     
000070AA: 00                 NOP     
000070AB: 80                 CALT    ($0080)
000070AC: 3E                 STAX    (DE-)
000070AD: 80                 CALT    ($0080)
000070AE: 00                 NOP     
000070AF: 00                 NOP     
000070B0: 00                 NOP     
000070B1: 00                 NOP     
000070B2: 00                 NOP     
000070B3: AE                 LDAX    (HL+EA)
000070B4: 8B                 CALT    ($0096)
000070B5: 8B                 CALT    ($0096)
000070B6: 00                 NOP     
000070B7: 08                 MOV     A,EAH
000070B8: 14 00 22           LXI     BC,$2200
000070BB: 62                 RETI    
000070BC: A2                 POP     DE
000070BD: 00                 NOP     
000070BE: 14 08 1C           LXI     BC,$1C08
000070C1: 00                 NOP     
000070C2: 22                 INX     DE
000070C3: 62                 RETI    
000070C4: A2                 POP     DE
000070C5: 00                 NOP     
000070C6: 1C                 MOV     D,A
000070C7: 00                 NOP     
000070C8: 00                 NOP     
000070C9: 8B                 CALT    ($0096)
000070CA: 00                 NOP     
000070CB: 0C                 MOV     A,D
000070CC: 12                 INX     BC
000070CD: 02                 INX     SP
000070CE: 22                 INX     DE
000070CF: 22                 INX     DE
000070D0: 22                 INX     DE
000070D1: 60 24              ADDNC   D,A
000070D3: 98                 CALT    ($00B0)
000070D4: 0C                 MOV     A,D
000070D5: 12                 INX     BC
000070D6: 22                 INX     DE
000070D7: 22                 INX     DE
000070D8: 22                 INX     DE
000070D9: 62                 RETI    
000070DA: 24 98 02           LXI     DE,$0298
000070DD: 13                 DCX     BC
000070DE: 80                 CALT    ($0080)
000070DF: 50                 EXH     
000070E0: 01 0C              LDAW    VV:0C
000070E2: 10                 EXA     
000070E3: 02                 INX     SP
000070E4: 00                 NOP     
000070E5: 20 00              INRW    VV:00
000070E7: 01 01              LDAW    VV:01
000070E9: 41                 INR     A
000070EA: 01 01              LDAW    VV:01
000070EC: 01 81              LDAW    VV:81
000070EE: 00                 NOP     
000070EF: A0                 POP     VA
000070F0: 00                 NOP     
000070F1: 02                 INX     SP
000070F2: 10                 EXA     
000070F3: 0C                 MOV     A,D
000070F4: 18                 MOV     EAH,A
000070F5: 04 20 00           LXI     SP,$0020
000070F8: 02                 INX     SP
000070F9: 00                 NOP     
000070FA: 40 40 40           CALL    $4040
000070FD: 40 C0 40           CALL    $40C0
00007100: C0                 JR      $7101
00007101: 00                 NOP     
00007102: 02                 INX     SP
00007103: 00                 NOP     
00007104: 20 04              INRW    VV:04
00007106: 18                 MOV     EAH,A
00007107: 9E                 CALT    ($00BC)
00007108: 8B                 CALT    ($0096)
00007109: 8B                 CALT    ($0096)
0000710A: 00                 NOP     
0000710B: 48 14              illegal 
0000710D: 80                 CALT    ($0080)
0000710E: A2                 POP     DE
0000710F: A2                 POP     DE
00007110: A2                 POP     DE
00007111: 80                 CALT    ($0080)
00007112: 14 48 5C           LXI     BC,$5C48
00007115: 00                 NOP     
00007116: A2                 POP     DE
00007117: A2                 POP     DE
00007118: A2                 POP     DE
00007119: 00                 NOP     
0000711A: 5C 00              BIT     4,VV:00
0000711C: 8B                 CALT    ($0096)
0000711D: 00                 NOP     
0000711E: 0C                 MOV     A,D
0000711F: 52                 DCR     B
00007120: 02                 INX     SP
00007121: A2                 POP     DE
00007122: A2                 POP     DE
00007123: A2                 POP     DE
00007124: A0                 POP     VA
00007125: A4                 POP     EA
00007126: 58 0C              BIT     0,VV:0C
00007128: 12                 INX     BC
00007129: 42                 INR     B
0000712A: 22                 INX     DE
0000712B: A2                 POP     DE
0000712C: A2                 POP     DE
0000712D: 84                 CALT    ($0088)
0000712E: 58 02              BIT     0,VV:02
00007130: 13                 DCX     BC
00007131: 80                 CALT    ($0080)
00007132: 30 01              DCRW    VV:01
00007134: 0C                 MOV     A,D
00007135: 10                 EXA     
00007136: 42                 INR     B
00007137: 00                 NOP     
00007138: 20 00              INRW    VV:00
0000713A: 81                 CALT    ($0082)
0000713B: 81                 CALT    ($0082)
0000713C: 81                 CALT    ($0082)
0000713D: 81                 CALT    ($0082)
0000713E: 81                 CALT    ($0082)
0000713F: 81                 CALT    ($0082)
00007140: 81                 CALT    ($0082)
00007141: 00                 NOP     
00007142: 20 00              INRW    VV:00
00007144: 42                 INR     B
00007145: 10                 EXA     
00007146: 0C                 MOV     A,D
00007147: 18                 MOV     EAH,A
00007148: 04 20 00           LXI     SP,$0020
0000714B: 82                 CALT    ($0084)
0000714C: 00                 NOP     
0000714D: 40 40 40           CALL    $4040
00007150: 40 40 40           CALL    $4040
00007153: 40 00 82           CALL    $8200
00007156: 00                 NOP     
00007157: 20 04              INRW    VV:04
00007159: 18                 MOV     EAH,A
0000715A: AE                 LDAX    (HL+EA)
0000715B: 8B                 CALT    ($0096)
0000715C: 8B                 CALT    ($0096)
0000715D: 00                 NOP     
0000715E: 08                 MOV     A,EAH
0000715F: 14 00 A2           LXI     BC,$A200
00007162: 62                 RETI    
00007163: 22                 INX     DE
00007164: 00                 NOP     
00007165: 14 08 1C           LXI     BC,$1C08
00007168: 00                 NOP     
00007169: A2                 POP     DE
0000716A: 62                 RETI    
0000716B: 22                 INX     DE
0000716C: 00                 NOP     
0000716D: 1C                 MOV     D,A
0000716E: 00                 NOP     
0000716F: 00                 NOP     
00007170: 8B                 CALT    ($0096)
00007171: 00                 NOP     
00007172: 0C                 MOV     A,D
00007173: 12                 INX     BC
00007174: 02                 INX     SP
00007175: 22                 INX     DE
00007176: A2                 POP     DE
00007177: 62                 RETI    
00007178: 20 24              INRW    VV:24
0000717A: 18                 MOV     EAH,A
0000717B: 0C                 MOV     A,D
0000717C: 12                 INX     BC
0000717D: 22                 INX     DE
0000717E: A2                 POP     DE
0000717F: 62                 RETI    
00007180: 22                 INX     DE
00007181: 24 18 02           LXI     DE,$0218
00007184: 13                 DCX     BC
00007185: 80                 CALT    ($0080)
00007186: 14 01 0C           LXI     BC,$0C01
00007189: 10                 EXA     
0000718A: 02                 INX     SP
0000718B: 00                 NOP     
0000718C: A0                 POP     VA
0000718D: 00                 NOP     
0000718E: 81                 CALT    ($0082)
0000718F: 01 01              LDAW    VV:01
00007191: 01 41              LDAW    VV:41
00007193: 01 01              LDAW    VV:01
00007195: 00                 NOP     
00007196: 20 00              INRW    VV:00
00007198: 02                 INX     SP
00007199: 10                 EXA     
0000719A: 0C                 MOV     A,D
0000719B: 18                 MOV     EAH,A
0000719C: 04 20 00           LXI     SP,$0020
0000719F: 02                 INX     SP
000071A0: 00                 NOP     
000071A1: C0                 JR      $71A2
000071A2: 40 C0 40           CALL    $40C0
000071A5: 40 40 40           CALL    $4040
000071A8: 00                 NOP     
000071A9: 02                 INX     SP
000071AA: 00                 NOP     
000071AB: 20 04              INRW    VV:04
000071AD: 18                 MOV     EAH,A
000071AE: 8E                 CALT    ($009C)
000071AF: 8B                 CALT    ($0096)
000071B0: 8B                 CALT    ($0096)
000071B1: 18                 MOV     EAH,A
000071B2: 4C 92              illegal 
000071B4: 92                 CALT    ($00A4)
000071B5: 92                 CALT    ($00A4)
000071B6: 12                 INX     BC
000071B7: 52                 DCR     B
000071B8: 52                 DCR     B
000071B9: 52                 DCR     B
000071BA: 8C                 CALT    ($0098)
000071BB: 8B                 CALT    ($0096)
000071BC: 00                 NOP     
000071BD: 04 4A 82           LXI     SP,$824A
000071C0: 92                 CALT    ($00A4)
000071C1: 92                 CALT    ($00A4)
000071C2: 52                 DCR     B
000071C3: 50                 EXH     
000071C4: 54 88 04           JMP     $0488
000071C7: 4A 12              MVIX    DE,$12
000071C9: 92                 CALT    ($00A4)
000071CA: 52                 DCR     B
000071CB: 52                 DCR     B
000071CC: 54 88 03           JMP     $0388
000071CF: 11                 EXX     
000071D0: 80                 CALT    ($0080)
000071D1: C0                 JR      $71D2
000071D2: 01 0C              LDAW    VV:0C
000071D4: 42                 INR     B
000071D5: 10                 EXA     
000071D6: 00                 NOP     
000071D7: 81                 CALT    ($0082)
000071D8: 81                 CALT    ($0082)
000071D9: 81                 CALT    ($0082)
000071DA: 01 01              LDAW    VV:01
000071DC: 01 41              LDAW    VV:41
000071DE: 41                 INR     A
000071DF: 41                 INR     A
000071E0: 00                 NOP     
000071E1: 10                 EXA     
000071E2: 82                 CALT    ($0084)
000071E3: 0C                 MOV     A,D
000071E4: 0C                 MOV     A,D
000071E5: 10                 EXA     
000071E6: 82                 CALT    ($0084)
000071E7: 00                 NOP     
000071E8: 20 20              INRW    VV:20
000071EA: 20 20              INRW    VV:20
000071EC: A0                 POP     VA
000071ED: 20 20              INRW    VV:20
000071EF: 20 20              INRW    VV:20
000071F1: 00                 NOP     
000071F2: 82                 CALT    ($0084)
000071F3: 10                 EXA     
000071F4: 0C                 MOV     A,D
000071F5: AE                 LDAX    (HL+EA)
000071F6: 8B                 CALT    ($0096)
000071F7: 8B                 CALT    ($0096)
000071F8: 00                 NOP     
000071F9: 48 94              STEAX   (DE++)
000071FB: 80                 CALT    ($0080)
000071FC: A2                 POP     DE
000071FD: 22                 INX     DE
000071FE: 62                 RETI    
000071FF: 40 54 88           CALL    $8854
00007202: 40 9C 80           CALL    $809C
00007205: A2                 POP     DE
00007206: 62                 RETI    
00007207: 62                 RETI    
00007208: 40 9C 00           CALL    $009C
0000720B: 8B                 CALT    ($0096)
0000720C: 00                 NOP     
0000720D: 0C                 MOV     A,D
0000720E: 52                 DCR     B
0000720F: 82                 CALT    ($0084)
00007210: A2                 POP     DE
00007211: A2                 POP     DE
00007212: 62                 RETI    
00007213: 60 64              SUB     D,A
00007215: 98                 CALT    ($00B0)
00007216: 4C 92              illegal 
00007218: A2                 POP     DE
00007219: A2                 POP     DE
0000721A: 62                 RETI    
0000721B: 62                 RETI    
0000721C: 64 98 02           ORI     ANM,$02
0000721F: 13                 DCX     BC
00007220: 80                 CALT    ($0080)
00007221: C0                 JR      $7222
00007222: 01 0C              LDAW    VV:0C
00007224: 10                 EXA     
00007225: 42                 INR     B
00007226: 00                 NOP     
00007227: 20 80              INRW    VV:80
00007229: 81                 CALT    ($0082)
0000722A: 81                 CALT    ($0082)
0000722B: 01 01              LDAW    VV:01
0000722D: 01 41              LDAW    VV:41
0000722F: 41                 INR     A
00007230: 40 20 00           CALL    $0020
00007233: 82                 CALT    ($0084)
00007234: 10                 EXA     
00007235: 0C                 MOV     A,D
00007236: 18                 MOV     EAH,A
00007237: 04 20 80           LXI     SP,$8020
0000723A: 02                 INX     SP
0000723B: 00                 NOP     
0000723C: 40 40 40           CALL    $4040
0000723F: C0                 JR      $7240
00007240: 40 40 40           CALL    $4040
00007243: 00                 NOP     
00007244: 02                 INX     SP
00007245: 80                 CALT    ($0080)
00007246: 20 04              INRW    VV:04
00007248: 18                 MOV     EAH,A
00007249: 8A                 CALT    ($0094)
0000724A: 0B                 MOV     A,C
0000724B: 0B                 MOV     A,C
0000724C: 02                 INX     SP
0000724D: 00                 NOP     
0000724E: FF                 JR      $724E
0000724F: 44 44 44           LXI     EA,$4444
00007252: 44 00 38           LXI     EA,$3800
00007255: 00                 NOP     
00007256: 0B                 MOV     A,C
00007257: 80                 CALT    ($0080)
00007258: 00                 NOP     
00007259: 03                 DCX     SP
0000725A: 1C                 MOV     D,A
0000725B: E4                 JR      $7240
0000725C: 44 44 44           LXI     EA,$4444
0000725F: 48 30              illegal 
00007261: 82                 CALT    ($0084)
00007262: 14 84 00           LXI     BC,$0084
00007265: 11                 EXX     
00007266: 08                 MOV     A,EAH
00007267: 00                 NOP     
00007268: 00                 NOP     
00007269: 00                 NOP     
0000726A: 00                 NOP     
0000726B: 00                 NOP     
0000726C: 00                 NOP     
0000726D: 7F 00              CALF    $0F00
0000726F: 12                 INX     BC
00007270: 00                 NOP     
00007271: 00                 NOP     
00007272: 00                 NOP     
00007273: 00                 NOP     
00007274: 00                 NOP     
00007275: 00                 NOP     
00007276: 00                 NOP     
00007277: 00                 NOP     
00007278: 00                 NOP     
00007279: 12                 INX     BC
0000727A: 00                 NOP     
0000727B: 00                 NOP     
0000727C: 0C                 MOV     A,D
0000727D: FF                 JR      $727D
0000727E: E0                 JR      $725F
0000727F: 00                 NOP     
00007280: 80                 CALT    ($0080)
00007281: 80                 CALT    ($0080)
00007282: 80                 CALT    ($0080)
00007283: 80                 CALT    ($0080)
00007284: FF                 JR      $7284
00007285: 00                 NOP     
00007286: 00                 NOP     
00007287: 00                 NOP     
00007288: 22                 INX     DE
00007289: 22                 INX     DE
0000728A: 22                 INX     DE
0000728B: 22                 INX     DE
0000728C: 22                 INX     DE
0000728D: 22                 INX     DE
0000728E: 22                 INX     DE
0000728F: 00                 NOP     
00007290: 00                 NOP     
00007291: 00                 NOP     
00007292: 14 08 8A           LXI     BC,$8A08
00007295: 8B                 CALT    ($0096)
00007296: 8B                 CALT    ($0096)
00007297: 01 FE              LDAW    VV:FE
00007299: 48 48              SKIT    FAD
0000729B: 48 48              SKIT    FAD
0000729D: 48 48              SKIT    FAD
0000729F: 00                 NOP     
000072A0: 30 8B              DCRW    VV:8B
000072A2: 01 06              LDAW    VV:06
000072A4: 38                 illegal 
000072A5: C8                 JR      $72AE
000072A6: 48 48              SKIT    FAD
000072A8: 48 48              SKIT    FAD
000072AA: 08                 MOV     A,EAH
000072AB: 30 02              DCRW    VV:02
000072AD: 14 85 00           LXI     BC,$0085
000072B0: 01 81              LDAW    VV:81
000072B2: 81                 CALT    ($0082)
000072B3: 81                 CALT    ($0082)
000072B4: 81                 CALT    ($0082)
000072B5: FF                 JR      $72B5
000072B6: 81                 CALT    ($0082)
000072B7: 81                 CALT    ($0082)
000072B8: 81                 CALT    ($0082)
000072B9: 81                 CALT    ($0082)
000072BA: 81                 CALT    ($0082)
000072BB: 81                 CALT    ($0082)
000072BC: 00                 NOP     
000072BD: 00                 NOP     
000072BE: 00                 NOP     
000072BF: 00                 NOP     
000072C0: 00                 NOP     
000072C1: 00                 NOP     
000072C2: 00                 NOP     
000072C3: 28                 illegal 
000072C4: 10                 EXA     
000072C5: 00                 NOP     
000072C6: 00                 NOP     
000072C7: 00                 NOP     
000072C8: 00                 NOP     
000072C9: FE                 JR      $72C8
000072CA: 48 48              SKIT    FAD
000072CC: 48 48              SKIT    FAD
000072CE: 48 48              SKIT    FAD
000072D0: 48 48              SKIT    FAD
000072D2: 48 48              SKIT    FAD
000072D4: 48 48              SKIT    FAD
000072D6: 48 00              illegal 
000072D8: 30 8E              DCRW    VV:8E
000072DA: 8B                 CALT    ($0096)
000072DB: 8B                 CALT    ($0096)
000072DC: 12                 INX     BC
000072DD: 3C                 STAX    (DE+)
000072DE: 02                 INX     SP
000072DF: 02                 INX     SP
000072E0: 02                 INX     SP
000072E1: 42                 INR     B
000072E2: 82                 CALT    ($0084)
000072E3: 02                 INX     SP
000072E4: 02                 INX     SP
000072E5: 3C                 STAX    (DE+)
000072E6: 8B                 CALT    ($0096)
000072E7: 00                 NOP     
000072E8: 0C                 MOV     A,D
000072E9: 32                 INX     HL
000072EA: 02                 INX     SP
000072EB: 02                 INX     SP
000072EC: 02                 INX     SP
000072ED: 42                 INR     B
000072EE: 00                 NOP     
000072EF: 8C                 CALT    ($0098)
000072F0: 30 0C              DCRW    VV:0C
000072F2: 32                 INX     HL
000072F3: 02                 INX     SP
000072F4: 02                 INX     SP
000072F5: 42                 INR     B
000072F6: 02                 INX     SP
000072F7: 8C                 CALT    ($0098)
000072F8: 30 41              DCRW    VV:41
000072FA: 15 00 28           ORIW    VV:00,$28
000072FD: 73                 illegal 
000072FE: 00                 NOP     
000072FF: 00                 NOP     
00007300: 3C                 STAX    (DE+)
00007301: 02                 INX     SP
00007302: 00                 NOP     
00007303: 00                 NOP     
00007304: 01 01              LDAW    VV:01
00007306: 01 41              LDAW    VV:41
00007308: 01 01              LDAW    VV:01
0000730A: 01 81              LDAW    VV:81
0000730C: 01 80              LDAW    VV:80
0000730E: 00                 NOP     
0000730F: 02                 INX     SP
00007310: 3C                 STAX    (DE+)
00007311: 00                 NOP     
00007312: 00                 NOP     
00007313: 40 40 7C           CALL    $7C40
00007316: 40 42 40           CALL    $4042
00007319: 40 00 00           CALL    $0000
0000731C: 00                 NOP     
0000731D: 00                 NOP     
0000731E: 80                 CALT    ($0080)
0000731F: 00                 NOP     
00007320: 80                 CALT    ($0080)
00007321: 40 40 42           CALL    $4240
00007324: 40 7C 40           CALL    $407C
00007327: 40 01 11           CALL    $1101
0000732A: 00                 NOP     
0000732B: 00                 NOP     
0000732C: 3C                 STAX    (DE+)
0000732D: 02                 INX     SP
0000732E: 00                 NOP     
0000732F: 00                 NOP     
00007330: 01 01              LDAW    VV:01
00007332: 41                 INR     A
00007333: 01 01              LDAW    VV:01
00007335: 80                 CALT    ($0080)
00007336: 00                 NOP     
00007337: 82                 CALT    ($0084)
00007338: 3C                 STAX    (DE+)
00007339: 00                 NOP     
0000733A: 00                 NOP     
0000733B: 40 40 7C           CALL    $7C40
0000733E: 40 42 00           CALL    $0042
00007341: 00                 NOP     
00007342: 00                 NOP     
00007343: 00                 NOP     
00007344: 80                 CALT    ($0080)
00007345: 00                 NOP     
00007346: 80                 CALT    ($0080)
00007347: 42                 INR     B
00007348: 40 7C 40           CALL    $407C
0000734B: 40 8E 8B           CALL    $8B8E
0000734E: 8B                 CALT    ($0096)
0000734F: 06                 illegal 
00007350: 5C 02              BIT     4,VV:02
00007352: 82                 CALT    ($0084)
00007353: 82                 CALT    ($0084)
00007354: 82                 CALT    ($0084)
00007355: 82                 CALT    ($0084)
00007356: 82                 CALT    ($0084)
00007357: 02                 INX     SP
00007358: 5C 8B              BIT     4,VV:8B
0000735A: 00                 NOP     
0000735B: 0C                 MOV     A,D
0000735C: 52                 DCR     B
0000735D: 02                 INX     SP
0000735E: 82                 CALT    ($0084)
0000735F: 82                 CALT    ($0084)
00007360: 82                 CALT    ($0084)
00007361: 80                 CALT    ($0080)
00007362: 84                 CALT    ($0088)
00007363: 58 0C              BIT     0,VV:0C
00007365: 52                 DCR     B
00007366: 02                 INX     SP
00007367: 82                 CALT    ($0084)
00007368: 82                 CALT    ($0084)
00007369: 82                 CALT    ($0084)
0000736A: 04 58 41           LXI     SP,$4158
0000736D: 15 00 9B           ORIW    VV:00,$9B
00007370: 73                 illegal 
00007371: 20 20              INRW    VV:20
00007373: 3C                 STAX    (DE+)
00007374: 22                 INX     DE
00007375: 20 60              INRW    VV:60
00007377: 21                 JB      
00007378: 01 01              LDAW    VV:01
0000737A: 81                 CALT    ($0082)
0000737B: 81                 CALT    ($0082)
0000737C: 81                 CALT    ($0082)
0000737D: 01 01              LDAW    VV:01
0000737F: 21                 JB      
00007380: 60 20              ADDNC   V,A
00007382: 22                 INX     DE
00007383: 3C                 STAX    (DE+)
00007384: 20 20              INRW    VV:20
00007386: 00                 NOP     
00007387: 00                 NOP     
00007388: 3C                 STAX    (DE+)
00007389: 00                 NOP     
0000738A: 02                 INX     SP
0000738B: 00                 NOP     
0000738C: 00                 NOP     
0000738D: 80                 CALT    ($0080)
0000738E: 00                 NOP     
0000738F: 00                 NOP     
00007390: 00                 NOP     
00007391: 00                 NOP     
00007392: 00                 NOP     
00007393: 80                 CALT    ($0080)
00007394: 00                 NOP     
00007395: 00                 NOP     
00007396: 02                 INX     SP
00007397: 00                 NOP     
00007398: 3C                 STAX    (DE+)
00007399: 00                 NOP     
0000739A: 00                 NOP     
0000739B: 01 11              LDAW    VV:11
0000739D: 20 20              INRW    VV:20
0000739F: 3C                 STAX    (DE+)
000073A0: 62                 RETI    
000073A1: 20 00              INRW    VV:00
000073A3: 01 81              LDAW    VV:81
000073A5: 81                 CALT    ($0082)
000073A6: 81                 CALT    ($0082)
000073A7: 01 00              LDAW    VV:00
000073A9: 20 62              INRW    VV:62
000073AB: 3C                 STAX    (DE+)
000073AC: 20 20              INRW    VV:20
000073AE: 00                 NOP     
000073AF: 00                 NOP     
000073B0: 3C                 STAX    (DE+)
000073B1: 00                 NOP     
000073B2: 02                 INX     SP
000073B3: 80                 CALT    ($0080)
000073B4: 00                 NOP     
000073B5: 00                 NOP     
000073B6: 00                 NOP     
000073B7: 00                 NOP     
000073B8: 00                 NOP     
000073B9: 80                 CALT    ($0080)
000073BA: 02                 INX     SP
000073BB: 00                 NOP     
000073BC: 3C                 STAX    (DE+)
000073BD: 00                 NOP     
000073BE: 00                 NOP     
000073BF: 8E                 CALT    ($009C)
000073C0: 8B                 CALT    ($0096)
000073C1: 8B                 CALT    ($0096)
000073C2: 24 3C 02           LXI     DE,$023C
000073C5: 02                 INX     SP
000073C6: 82                 CALT    ($0084)
000073C7: 42                 INR     B
000073C8: 02                 INX     SP
000073C9: 02                 INX     SP
000073CA: 02                 INX     SP
000073CB: 3C                 STAX    (DE+)
000073CC: 8B                 CALT    ($0096)
000073CD: 00                 NOP     
000073CE: 0C                 MOV     A,D
000073CF: 32                 INX     HL
000073D0: 02                 INX     SP
000073D1: 02                 INX     SP
000073D2: 82                 CALT    ($0084)
000073D3: 42                 INR     B
000073D4: 00                 NOP     
000073D5: 0C                 MOV     A,D
000073D6: 30 0C              DCRW    VV:0C
000073D8: 32                 INX     HL
000073D9: 02                 INX     SP
000073DA: 82                 CALT    ($0084)
000073DB: 42                 INR     B
000073DC: 02                 INX     SP
000073DD: 0C                 MOV     A,D
000073DE: 30 41              DCRW    VV:41
000073E0: 15 00 0E           ORIW    VV:00,$0E
000073E3: 74 00              illegal 
000073E5: 00                 NOP     
000073E6: 3C                 STAX    (DE+)
000073E7: 02                 INX     SP
000073E8: 00                 NOP     
000073E9: 80                 CALT    ($0080)
000073EA: 01 81              LDAW    VV:81
000073EC: 01 01              LDAW    VV:01
000073EE: 01 41              LDAW    VV:41
000073F0: 01 01              LDAW    VV:01
000073F2: 01 00              LDAW    VV:00
000073F4: 00                 NOP     
000073F5: 02                 INX     SP
000073F6: 3C                 STAX    (DE+)
000073F7: 00                 NOP     
000073F8: 00                 NOP     
000073F9: 40 40 7C           CALL    $7C40
000073FC: 40 42 40           CALL    $4042
000073FF: 40 80 00           CALL    $0080
00007402: 80                 CALT    ($0080)
00007403: 00                 NOP     
00007404: 00                 NOP     
00007405: 00                 NOP     
00007406: 00                 NOP     
00007407: 40 40 42           CALL    $4240
0000740A: 40 7C 40           CALL    $407C
0000740D: 40 01 11           CALL    $1101
00007410: 00                 NOP     
00007411: 00                 NOP     
00007412: 3C                 STAX    (DE+)
00007413: 82                 CALT    ($0084)
00007414: 00                 NOP     
00007415: 80                 CALT    ($0080)
00007416: 01 01              LDAW    VV:01
00007418: 41                 INR     A
00007419: 01 01              LDAW    VV:01
0000741B: 00                 NOP     
0000741C: 00                 NOP     
0000741D: 02                 INX     SP
0000741E: 3C                 STAX    (DE+)
0000741F: 00                 NOP     
00007420: 00                 NOP     
00007421: 40 40 7C           CALL    $7C40
00007424: 40 42 80           CALL    $8042
00007427: 00                 NOP     
00007428: 80                 CALT    ($0080)
00007429: 00                 NOP     
0000742A: 00                 NOP     
0000742B: 00                 NOP     
0000742C: 00                 NOP     
0000742D: 42                 INR     B
0000742E: 40 7C 40           CALL    $407C
00007431: 40 AA 0B           CALL    $0BAA
00007434: 0B                 MOV     A,C
00007435: 00                 NOP     
00007436: 20 10              INRW    VV:10
00007438: 09                 MOV     A,EAL
00007439: 02                 INX     SP
0000743A: 44 80 08           LXI     EA,$0880
0000743D: 10                 EXA     
0000743E: 20 20              INRW    VV:20
00007440: 10                 EXA     
00007441: 09                 MOV     A,EAL
00007442: 02                 INX     SP
00007443: 44 88 10           LXI     EA,$1088
00007446: 20 00              INRW    VV:00
00007448: 0B                 MOV     A,C
00007449: 80                 CALT    ($0080)
0000744A: 00                 NOP     
0000744B: 21                 JB      
0000744C: 1A                 MOV     B,A
0000744D: 00                 NOP     
0000744E: 44 08 80           LXI     EA,$8008
00007451: 10                 EXA     
00007452: 20 C2              INRW    VV:C2
00007454: 14 00 86           LXI     BC,$8600
00007457: 74 70 80           SBI     V,$80
0000745A: 00                 NOP     
0000745B: 00                 NOP     
0000745C: 00                 NOP     
0000745D: 00                 NOP     
0000745E: 10                 EXA     
0000745F: 00                 NOP     
00007460: 08                 MOV     A,EAH
00007461: 04 02 40           LXI     SP,$4002
00007464: 00                 NOP     
00007465: 01 02              LDAW    VV:02
00007467: 80                 CALT    ($0080)
00007468: 04 88 00           LXI     SP,$0088
0000746B: 10                 EXA     
0000746C: 00                 NOP     
0000746D: 00                 NOP     
0000746E: 00                 NOP     
0000746F: 1F                 MOV     L,A
00007470: 00                 NOP     
00007471: 00                 NOP     
00007472: 20 20              INRW    VV:20
00007474: 21                 JB      
00007475: 20 30              INRW    VV:30
00007477: 28                 illegal 
00007478: 20 04              INRW    VV:04
0000747A: 02                 INX     SP
0000747B: 01 82              LDAW    VV:82
0000747D: 00                 NOP     
0000747E: 84                 CALT    ($0088)
0000747F: 20 28              INRW    VV:28
00007481: 30 20              DCRW    VV:20
00007483: 20 20              INRW    VV:20
00007485: 20 80              INRW    VV:80
00007487: 13                 DCX     BC
00007488: 39                 STAX    (BC)
00007489: 00                 NOP     
0000748A: 00                 NOP     
0000748B: 00                 NOP     
0000748C: 00                 NOP     
0000748D: 00                 NOP     
0000748E: 10                 EXA     
0000748F: 00                 NOP     
00007490: 08                 MOV     A,EAH
00007491: 04 40 02           LXI     SP,$0240
00007494: 01 02              LDAW    VV:02
00007496: 80                 CALT    ($0080)
00007497: 04 80 08           LXI     SP,$0880
0000749A: 10                 EXA     
0000749B: 00                 NOP     
0000749C: 00                 NOP     
0000749D: 00                 NOP     
0000749E: 1E                 MOV     H,A
0000749F: 00                 NOP     
000074A0: 00                 NOP     
000074A1: 20 20              INRW    VV:20
000074A3: 20 21              INRW    VV:21
000074A5: 30 20              DCRW    VV:20
000074A7: 28                 illegal 
000074A8: 04 01 80           LXI     SP,$8001
000074AB: 02                 INX     SP
000074AC: 84                 CALT    ($0088)
000074AD: 20 28              INRW    VV:28
000074AF: 30 20              DCRW    VV:20
000074B1: 20 20              INRW    VV:20
000074B3: 20 9E              INRW    VV:9E
000074B5: 8B                 CALT    ($0096)
000074B6: 8B                 CALT    ($0096)
000074B7: 00                 NOP     
000074B8: 40 20 00           CALL    $0020
000074BB: 10                 EXA     
000074BC: 4E 90              JRE     $754E
000074BE: 00                 NOP     
000074BF: 20 40              INRW    VV:40
000074C1: 40 20 10           CALL    $1020
000074C4: 4E 90              JRE     $7556
000074C6: 20 40              INRW    VV:40
000074C8: 00                 NOP     
000074C9: 8B                 CALT    ($0096)
000074CA: 00                 NOP     
000074CB: 40 20 16           CALL    $1620
000074CE: 08                 MOV     A,EAH
000074CF: 40 10 80           CALL    $8010
000074D2: 20 40              INRW    VV:40
000074D4: 40 20 16           CALL    $1620
000074D7: 48 10              illegal 
000074D9: 80                 CALT    ($0080)
000074DA: 20 40              INRW    VV:40
000074DC: 41                 INR     A
000074DD: 15 00 0B           ORIW    VV:00,$0B
000074E0: 75 00 00           EQIW    VV:00,$00
000074E3: 00                 NOP     
000074E4: 20 00              INRW    VV:00
000074E6: 11                 EXX     
000074E7: 01 01              LDAW    VV:01
000074E9: 09                 MOV     A,EAL
000074EA: 41                 INR     A
000074EB: 07 01              ANI     A,$01
000074ED: 09                 MOV     A,EAL
000074EE: 81                 CALT    ($0082)
000074EF: 01 91              LDAW    VV:91
000074F1: 00                 NOP     
000074F2: 20 00              INRW    VV:00
000074F4: 00                 NOP     
000074F5: 00                 NOP     
000074F6: 40 40 40           CALL    $4040
000074F9: 40 60 40           CALL    $4060
000074FC: 40 10 00           CALL    $0010
000074FF: 08                 MOV     A,EAH
00007500: 06                 illegal 
00007501: 88                 CALT    ($0090)
00007502: 00                 NOP     
00007503: 90                 CALT    ($00A0)
00007504: 40 40 60           CALL    $6040
00007507: 40 40 40           CALL    $4040
0000750A: 40 00 13           CALL    $1300
0000750D: 00                 NOP     
0000750E: 00                 NOP     
0000750F: 00                 NOP     
00007510: 20 01              INRW    VV:01
00007512: 11                 EXX     
00007513: 01 09              LDAW    VV:09
00007515: 41                 INR     A
00007516: 07 01              ANI     A,$01
00007518: 89                 CALT    ($0092)
00007519: 01 91              LDAW    VV:91
0000751B: 01 20              LDAW    VV:20
0000751D: 00                 NOP     
0000751E: 00                 NOP     
0000751F: 00                 NOP     
00007520: 40 40 40           CALL    $4040
00007523: 40 60 40           CALL    $4060
00007526: 50                 EXH     
00007527: 00                 NOP     
00007528: 08                 MOV     A,EAH
00007529: 86                 CALT    ($008C)
0000752A: 08                 MOV     A,EAH
0000752B: 80                 CALT    ($0080)
0000752C: 50                 EXH     
0000752D: 40 60 40           CALL    $4060
00007530: 40 40 40           CALL    $4040
00007533: 8A                 CALT    ($0094)
00007534: 8B                 CALT    ($0096)
00007535: 8B                 CALT    ($0096)
00007536: 01 80              LDAW    VV:80
00007538: 80                 CALT    ($0080)
00007539: 80                 CALT    ($0080)
0000753A: 80                 CALT    ($0080)
0000753B: 80                 CALT    ($0080)
0000753C: 80                 CALT    ($0080)
0000753D: 80                 CALT    ($0080)
0000753E: 80                 CALT    ($0080)
0000753F: 80                 CALT    ($0080)
00007540: 8B                 CALT    ($0096)
00007541: 01 80              LDAW    VV:80
00007543: 80                 CALT    ($0080)
00007544: 80                 CALT    ($0080)
00007545: 80                 CALT    ($0080)
00007546: 80                 CALT    ($0080)
00007547: 80                 CALT    ($0080)
00007548: 80                 CALT    ($0080)
00007549: 80                 CALT    ($0080)
0000754A: 80                 CALT    ($0080)
0000754B: 00                 NOP     
0000754C: 15 00 00           ORIW    VV:00,$00
0000754F: 2B                 LDAX    (HL)
00007550: 80                 CALT    ($0080)
00007551: 80                 CALT    ($0080)
00007552: 80                 CALT    ($0080)
00007553: 80                 CALT    ($0080)
00007554: 80                 CALT    ($0080)
00007555: 80                 CALT    ($0080)
00007556: 80                 CALT    ($0080)
00007557: 80                 CALT    ($0080)
00007558: 80                 CALT    ($0080)
00007559: 80                 CALT    ($0080)
0000755A: 80                 CALT    ($0080)
0000755B: 80                 CALT    ($0080)
0000755C: 80                 CALT    ($0080)
0000755D: 80                 CALT    ($0080)
0000755E: 80                 CALT    ($0080)
0000755F: 80                 CALT    ($0080)
00007560: 80                 CALT    ($0080)
00007561: 80                 CALT    ($0080)
00007562: 80                 CALT    ($0080)
00007563: 80                 CALT    ($0080)
00007564: 80                 CALT    ($0080)
00007565: 00                 NOP     
00007566: 00                 NOP     
00007567: 00                 NOP     
00007568: 00                 NOP     
00007569: 00                 NOP     
0000756A: 00                 NOP     
0000756B: 00                 NOP     
0000756C: 00                 NOP     
0000756D: 00                 NOP     
0000756E: 00                 NOP     
0000756F: 00                 NOP     
00007570: 00                 NOP     
00007571: 00                 NOP     
00007572: 00                 NOP     
00007573: 00                 NOP     
00007574: 00                 NOP     
00007575: 00                 NOP     
00007576: 00                 NOP     
00007577: 00                 NOP     
00007578: 00                 NOP     
00007579: 00                 NOP     
0000757A: 8A                 CALT    ($0094)
0000757B: 8B                 CALT    ($0096)
0000757C: 8B                 CALT    ($0096)
0000757D: 00                 NOP     
0000757E: 00                 NOP     
0000757F: 00                 NOP     
00007580: 00                 NOP     
00007581: 40 80 00           CALL    $0080
00007584: 00                 NOP     
00007585: 00                 NOP     
00007586: 00                 NOP     
00007587: 8B                 CALT    ($0096)
00007588: 80                 CALT    ($0080)
00007589: 00                 NOP     
0000758A: 00                 NOP     
0000758B: 00                 NOP     
0000758C: 40 00 80           CALL    $8000
0000758F: 00                 NOP     
00007590: 00                 NOP     
00007591: 00                 NOP     
00007592: 08                 MOV     A,EAH
00007593: 07 C0              ANI     A,$C0
00007595: 00                 NOP     
00007596: 03                 DCX     SP
00007597: 40 00 00           CALL    $0000
0000759A: 00                 NOP     
0000759B: 80                 CALT    ($0080)
0000759C: 00                 NOP     
0000759D: 80                 CALT    ($0080)
0000759E: 00                 NOP     
0000759F: 00                 NOP     
000075A0: 80                 CALT    ($0080)
000075A1: 00                 NOP     
000075A2: 80                 CALT    ($0080)
000075A3: 00                 NOP     
000075A4: 00                 NOP     
000075A5: 8A                 CALT    ($0094)
000075A6: 8B                 CALT    ($0096)
000075A7: 8B                 CALT    ($0096)
000075A8: 01 10              LDAW    VV:10
000075AA: 10                 EXA     
000075AB: 10                 EXA     
000075AC: 10                 EXA     
000075AD: 10                 EXA     
000075AE: 10                 EXA     
000075AF: 10                 EXA     
000075B0: 10                 EXA     
000075B1: 10                 EXA     
000075B2: 8B                 CALT    ($0096)
000075B3: 01 10              LDAW    VV:10
000075B5: 10                 EXA     
000075B6: 10                 EXA     
000075B7: 10                 EXA     
000075B8: 10                 EXA     
000075B9: 10                 EXA     
000075BA: 10                 EXA     
000075BB: 10                 EXA     
000075BC: 10                 EXA     
000075BD: 00                 NOP     
000075BE: 15 00 00           ORIW    VV:00,$00
000075C1: 2B                 LDAX    (HL)
000075C2: 00                 NOP     
000075C3: 00                 NOP     
000075C4: 00                 NOP     
000075C5: 00                 NOP     
000075C6: 00                 NOP     
000075C7: 00                 NOP     
000075C8: 00                 NOP     
000075C9: 00                 NOP     
000075CA: 00                 NOP     
000075CB: 00                 NOP     
000075CC: 00                 NOP     
000075CD: 00                 NOP     
000075CE: 00                 NOP     
000075CF: 00                 NOP     
000075D0: 00                 NOP     
000075D1: 00                 NOP     
000075D2: 00                 NOP     
000075D3: 00                 NOP     
000075D4: 00                 NOP     
000075D5: 00                 NOP     
000075D6: 00                 NOP     
000075D7: 10                 EXA     
000075D8: 10                 EXA     
000075D9: 10                 EXA     
000075DA: 10                 EXA     
000075DB: 10                 EXA     
000075DC: 10                 EXA     
000075DD: 10                 EXA     
000075DE: 10                 EXA     
000075DF: 10                 EXA     
000075E0: 10                 EXA     
000075E1: 10                 EXA     
000075E2: 10                 EXA     
000075E3: 10                 EXA     
000075E4: 10                 EXA     
000075E5: 10                 EXA     
000075E6: 10                 EXA     
000075E7: 10                 EXA     
000075E8: 10                 EXA     
000075E9: 10                 EXA     
000075EA: 10                 EXA     
000075EB: 10                 EXA     
000075EC: 8A                 CALT    ($0094)
000075ED: 0B                 MOV     A,C
000075EE: 0B                 MOV     A,C
000075EF: 01 03              LDAW    VV:03
000075F1: 03                 DCX     SP
000075F2: 03                 DCX     SP
000075F3: 03                 DCX     SP
000075F4: 03                 DCX     SP
000075F5: 03                 DCX     SP
000075F6: 03                 DCX     SP
000075F7: 03                 DCX     SP
000075F8: 03                 DCX     SP
000075F9: 0B                 MOV     A,C
000075FA: 01 03              LDAW    VV:03
000075FC: 03                 DCX     SP
000075FD: 03                 DCX     SP
000075FE: 03                 DCX     SP
000075FF: 03                 DCX     SP
00007600: 03                 DCX     SP
00007601: 03                 DCX     SP
00007602: 03                 DCX     SP
00007603: 03                 DCX     SP
00007604: 80                 CALT    ($0080)
00007605: 15 00 00           ORIW    VV:00,$00
00007608: 2B                 LDAX    (HL)
00007609: 00                 NOP     
0000760A: 00                 NOP     
0000760B: 00                 NOP     
0000760C: 00                 NOP     
0000760D: 00                 NOP     
0000760E: 00                 NOP     
0000760F: 00                 NOP     
00007610: 00                 NOP     
00007611: 00                 NOP     
00007612: 00                 NOP     
00007613: 00                 NOP     
00007614: 00                 NOP     
00007615: 00                 NOP     
00007616: 00                 NOP     
00007617: 00                 NOP     
00007618: 00                 NOP     
00007619: 00                 NOP     
0000761A: 00                 NOP     
0000761B: 00                 NOP     
0000761C: 00                 NOP     
0000761D: 00                 NOP     
0000761E: 00                 NOP     
0000761F: 00                 NOP     
00007620: 00                 NOP     
00007621: FF                 JR      $7621
00007622: FF                 JR      $7622
00007623: F8                 JR      $761C
00007624: 01 01              LDAW    VV:01
00007626: 01 01              LDAW    VV:01
00007628: 01 01              LDAW    VV:01
0000762A: 01 01              LDAW    VV:01
0000762C: 01 01              LDAW    VV:01
0000762E: 01 01              LDAW    VV:01
00007630: 01 01              LDAW    VV:01
00007632: 01 01              LDAW    VV:01
00007634: 01 01              LDAW    VV:01
00007636: 01 01              LDAW    VV:01
00007638: 01 9E              LDAW    VV:9E
0000763A: 8B                 CALT    ($0096)
0000763B: 8B                 CALT    ($0096)
0000763C: 00                 NOP     
0000763D: AA                 EI      
0000763E: AC                 LDAX    (HL+A)
0000763F: E8                 JR      $7628
00007640: 30 22              DCRW    VV:22
00007642: 46 8A              ADI     A,$8A
00007644: 02                 INX     SP
00007645: 1F                 MOV     L,A
00007646: AA                 EI      
00007647: AC                 LDAX    (HL+A)
00007648: A8                 INX     EA
00007649: 52                 DCR     B
0000764A: 06                 illegal 
0000764B: 2A                 LDAX    (DE)
0000764C: 42                 INR     B
0000764D: 9F                 CALT    ($00BE)
0000764E: 8B                 CALT    ($0096)
0000764F: 00                 NOP     
00007650: 08                 MOV     A,EAH
00007651: AA                 EI      
00007652: AC                 LDAX    (HL+A)
00007653: B0                 PUSH    VA
00007654: 4A 16              MVIX    DE,$16
00007656: 2A                 LDAX    (DE)
00007657: 43                 INR     C
00007658: 9E                 CALT    ($00BC)
00007659: 0A                 MOV     A,B
0000765A: AC                 LDAX    (HL+A)
0000765B: A8                 INX     EA
0000765C: B2                 PUSH    DE
0000765D: 46 2A              ADI     A,$2A
0000765F: 43                 INR     C
00007660: 9E                 CALT    ($00BC)
00007661: C0                 JR      $7662
00007662: 17 00              ORI     A,$00
00007664: 9A                 CALT    ($00B4)
00007665: 76 00              SBI     A,$00
00007667: 01 FC              LDAW    VV:FC
00007669: 00                 NOP     
0000766A: 00                 NOP     
0000766B: 92                 CALT    ($00A4)
0000766C: 90                 CALT    ($00A0)
0000766D: 90                 CALT    ($00A0)
0000766E: 90                 CALT    ($00A0)
0000766F: 94                 CALT    ($00A8)
00007670: 90                 CALT    ($00A0)
00007671: 90                 CALT    ($00A0)
00007672: 90                 CALT    ($00A0)
00007673: 9A                 CALT    ($00B4)
00007674: 60 00              illegal 
00007676: 04 10 00           LXI     SP,$0010
00007679: 08                 MOV     A,EAH
0000767A: 00                 NOP     
0000767B: 2F                 LDAX    (HL-)
0000767C: 00                 NOP     
0000767D: 00                 NOP     
0000767E: 00                 NOP     
0000767F: 40 00 00           CALL    $0000
00007682: 00                 NOP     
00007683: A0                 POP     VA
00007684: 00                 NOP     
00007685: 00                 NOP     
00007686: 00                 NOP     
00007687: 44 40 40           LXI     EA,$4040
0000768A: 40 48 42           CALL    $4248
0000768D: 42                 INR     B
0000768E: A2                 POP     DE
0000768F: 16 02              XRI     A,$02
00007691: 02                 INX     SP
00007692: 0A                 MOV     A,B
00007693: 22                 INX     DE
00007694: 02                 INX     SP
00007695: 1F                 MOV     L,A
00007696: 02                 INX     SP
00007697: 42                 INR     B
00007698: 02                 INX     SP
00007699: 00                 NOP     
0000769A: 80                 CALT    ($0080)
0000769B: 13                 DCX     BC
0000769C: 00                 NOP     
0000769D: 1F                 MOV     L,A
0000769E: C0                 JR      $769F
0000769F: 02                 INX     SP
000076A0: 90                 CALT    ($00A0)
000076A1: 90                 CALT    ($00A0)
000076A2: 90                 CALT    ($00A0)
000076A3: 94                 CALT    ($00A8)
000076A4: 90                 CALT    ($00A0)
000076A5: 90                 CALT    ($00A0)
000076A6: 92                 CALT    ($00A4)
000076A7: 98                 CALT    ($00B0)
000076A8: 90                 CALT    ($00A0)
000076A9: 64 00 00           MVI     PA,$00
000076AC: 08                 MOV     A,EAH
000076AD: 20 0F              INRW    VV:0F
000076AF: 00                 NOP     
000076B0: 00                 NOP     
000076B1: 40 00 00           CALL    $0000
000076B4: 00                 NOP     
000076B5: A0                 POP     VA
000076B6: 00                 NOP     
000076B7: 04 40 40           LXI     SP,$4040
000076BA: 40 48 42           CALL    $4248
000076BD: 42                 INR     B
000076BE: 46 B2              ADI     A,$B2
000076C0: 02                 INX     SP
000076C1: 2A                 LDAX    (DE)
000076C2: 02                 INX     SP
000076C3: 02                 INX     SP
000076C4: 1F                 MOV     L,A
000076C5: 42                 INR     B
000076C6: 02                 INX     SP
000076C7: 00                 NOP     
000076C8: 9E                 CALT    ($00BC)
000076C9: 8B                 CALT    ($0096)
000076CA: 8B                 CALT    ($0096)
000076CB: 00                 NOP     
000076CC: 60 60              SUB     V,A
000076CE: F0                 JR      $76BF
000076CF: F0                 JR      $76C0
000076D0: FE                 JR      $76CF
000076D1: 80                 CALT    ($0080)
000076D2: 80                 CALT    ($0080)
000076D3: 80                 CALT    ($0080)
000076D4: FE                 JR      $76D3
000076D5: 60 E0              SUB     A,V
000076D7: F0                 JR      $76C8
000076D8: F0                 JR      $76C9
000076D9: FE                 JR      $76D8
000076DA: 80                 CALT    ($0080)
000076DB: 80                 CALT    ($0080)
000076DC: FE                 JR      $76DB
000076DD: 8B                 CALT    ($0096)
000076DE: 00                 NOP     
000076DF: 60 70              SBB     V,A
000076E1: F6                 JR      $76D8
000076E2: F8                 JR      $76DB
000076E3: E0                 JR      $76C4
000076E4: 80                 CALT    ($0080)
000076E5: 86                 CALT    ($008C)
000076E6: 98                 CALT    ($00B0)
000076E7: E0                 JR      $76C8
000076E8: 60 F0              SBB     A,V
000076EA: F6                 JR      $76E1
000076EB: F8                 JR      $76E4
000076EC: E0                 JR      $76CD
000076ED: 86                 CALT    ($008C)
000076EE: 98                 CALT    ($00B0)
000076EF: E0                 JR      $76D0
000076F0: 02                 INX     SP
000076F1: 13                 DCX     BC
000076F2: C0                 JR      $76F3
000076F3: 00                 NOP     
000076F4: 03                 DCX     SP
000076F5: 60 70              SBB     V,A
000076F7: F0                 JR      $76E8
000076F8: F1                 JR      $76EA
000076F9: 91                 CALT    ($00A2)
000076FA: F1                 JR      $76EC
000076FB: F1                 JR      $76ED
000076FC: FF                 JR      $76FC
000076FD: 80                 CALT    ($0080)
000076FE: 80                 CALT    ($0080)
000076FF: 80                 CALT    ($0080)
00007700: 80                 CALT    ($0080)
00007701: 80                 CALT    ($0080)
00007702: 80                 CALT    ($0080)
00007703: FF                 JR      $7703
00007704: 81                 CALT    ($0082)
00007705: 81                 CALT    ($0082)
00007706: 81                 CALT    ($0082)
00007707: 81                 CALT    ($0082)
00007708: 60 A0              ADDNC   A,V
0000770A: 80                 CALT    ($0080)
0000770B: F0                 JR      $76FC
0000770C: F0                 JR      $76FD
0000770D: F0                 JR      $76FE
0000770E: F0                 JR      $76FF
0000770F: FE                 JR      $770E
00007710: 00                 NOP     
00007711: 00                 NOP     
00007712: 00                 NOP     
00007713: 00                 NOP     
00007714: 00                 NOP     
00007715: 00                 NOP     
00007716: FE                 JR      $7715
00007717: 00                 NOP     
00007718: 00                 NOP     
00007719: 00                 NOP     
0000771A: 00                 NOP     
0000771B: 8A                 CALT    ($0094)
0000771C: 0B                 MOV     A,C
0000771D: 0B                 MOV     A,C
0000771E: 00                 NOP     
0000771F: 00                 NOP     
00007720: 00                 NOP     
00007721: 01 01              LDAW    VV:01
00007723: 01 06              LDAW    VV:06
00007725: 00                 NOP     
00007726: 00                 NOP     
00007727: 00                 NOP     
00007728: 0B                 MOV     A,C
00007729: 80                 CALT    ($0080)
0000772A: 00                 NOP     
0000772B: 01 01              LDAW    VV:01
0000772D: 01 02              LDAW    VV:02
0000772F: 04 00 00           LXI     SP,$0000
00007732: 00                 NOP     
00007733: 88                 CALT    ($0090)
00007734: 06                 illegal 
00007735: C0                 JR      $7736
00007736: 00                 NOP     
00007737: 03                 DCX     SP
00007738: 04 00 00           LXI     SP,$0000
0000773B: 00                 NOP     
0000773C: 00                 NOP     
0000773D: 00                 NOP     
0000773E: 01 00              LDAW    VV:00
00007740: 00                 NOP     
00007741: F8                 JR      $773A
00007742: 00                 NOP     
00007743: 00                 NOP     
00007744: 00                 NOP     
00007745: 00                 NOP     
00007746: 00                 NOP     
00007747: 02                 INX     SP
00007748: 01 00              LDAW    VV:00
0000774A: 8A                 CALT    ($0094)
0000774B: 8B                 CALT    ($0096)
0000774C: 8B                 CALT    ($0096)
0000774D: 00                 NOP     
0000774E: 48 08              SK      NV
00007750: F8                 JR      $7749
00007751: 08                 MOV     A,EAH
00007752: 08                 MOV     A,EAH
00007753: 00                 NOP     
00007754: 00                 NOP     
00007755: 00                 NOP     
00007756: 00                 NOP     
00007757: 8B                 CALT    ($0096)
00007758: 00                 NOP     
00007759: 08                 MOV     A,EAH
0000775A: 48 38              RLD     
0000775C: C8                 JR      $7765
0000775D: 08                 MOV     A,EAH
0000775E: 00                 NOP     
0000775F: 00                 NOP     
00007760: 00                 NOP     
00007761: 00                 NOP     
00007762: 03                 DCX     SP
00007763: 0B                 MOV     A,C
00007764: 00                 NOP     
00007765: 00                 NOP     
00007766: 0F                 MOV     A,L
00007767: 10                 EXA     
00007768: 10                 EXA     
00007769: 10                 EXA     
0000776A: 10                 EXA     
0000776B: 10                 EXA     
0000776C: F0                 JR      $775D
0000776D: 10                 EXA     
0000776E: 10                 EXA     
0000776F: 10                 EXA     
00007770: 10                 EXA     
00007771: 10                 EXA     
00007772: 00                 NOP     
00007773: 80                 CALT    ($0080)
00007774: 80                 CALT    ($0080)
00007775: 80                 CALT    ($0080)
00007776: 80                 CALT    ($0080)
00007777: E0                 JR      $7758
00007778: 00                 NOP     
00007779: 00                 NOP     
0000777A: 00                 NOP     
0000777B: 00                 NOP     
0000777C: 00                 NOP     
0000777D: 8A                 CALT    ($0094)
0000777E: 8B                 CALT    ($0096)
0000777F: 8B                 CALT    ($0096)
00007780: 00                 NOP     
00007781: 00                 NOP     
00007782: A8                 INX     EA
00007783: A8                 INX     EA
00007784: A8                 INX     EA
00007785: 50                 EXH     
00007786: 00                 NOP     
00007787: 00                 NOP     
00007788: 00                 NOP     
00007789: 00                 NOP     
0000778A: 8B                 CALT    ($0096)
0000778B: 00                 NOP     
0000778C: 00                 NOP     
0000778D: 08                 MOV     A,EAH
0000778E: A8                 INX     EA
0000778F: A8                 INX     EA
00007790: B0                 PUSH    VA
00007791: 40 00 00           CALL    $0000
00007794: 00                 NOP     
00007795: 03                 DCX     SP
00007796: 0B                 MOV     A,C
00007797: 00                 NOP     
00007798: 00                 NOP     
00007799: 0F                 MOV     A,L
0000779A: 00                 NOP     
0000779B: 00                 NOP     
0000779C: 90                 CALT    ($00A0)
0000779D: 90                 CALT    ($00A0)
0000779E: 90                 CALT    ($00A0)
0000779F: 90                 CALT    ($00A0)
000077A0: 90                 CALT    ($00A0)
000077A1: 90                 CALT    ($00A0)
000077A2: 90                 CALT    ($00A0)
000077A3: 00                 NOP     
000077A4: 60 A0              ADDNC   A,V
000077A6: 00                 NOP     
000077A7: 00                 NOP     
000077A8: 40 40 40           CALL    $4040
000077AB: 40 40 40           CALL    $4040
000077AE: 40 A0 FF           CALL    $FFA0
000077B1: 40 6A 7C           CALL    $7C6A
000077B4: 69 00              MVI     A,$00
000077B6: 70 79 08 C0        MOV     ($C008),A
000077BA: 69 00              MVI     A,$00
000077BC: 70 79 0B C0        MOV     ($C00B),A
000077C0: 69 BA              MVI     A,$BA
000077C2: 70 79 0A C0        MOV     ($C00A),A
000077C6: 69 B5              MVI     A,$B5
000077C8: 70 79 09 C0        MOV     ($C009),A
000077CC: 69 0D              MVI     A,$0D
000077CE: 70 79 08 C0        MOV     ($C008),A
000077D2: 40 86 7B           CALL    $7B86
000077D5: 34 76 7B           LXI     HL,$7B76
000077D8: 34 66 7B           LXI     HL,$7B66
000077DB: 70 3E 1D 99        SHLD    $991D
000077DF: 40 5E 7C           CALL    $7C5E
000077E2: 71 1D 03           MVIW    VV:1D,$03
000077E5: 6B 19              MVI     C,$19
000077E7: 80                 CALT    ($0080)
000077E8: 40 45 78           CALL    $7845
000077EB: 30 1D              DCRW    VV:1D
000077ED: FA                 JR      $77E8
000077EE: 40 6A 7C           CALL    $7C6A
000077F1: 6B 4B              MVI     C,$4B
000077F3: 80                 CALT    ($0080)
000077F4: 15 00 80           ORIW    VV:00,$80
000077F7: 40 86 7B           CALL    $7B86
000077FA: C1                 JR      $77FC
000077FB: CA                 JR      $7806
000077FC: 34 E3 03           LXI     HL,$03E3
000077FF: 70 3E 17 99        SHLD    $9917
00007803: 40 75 78           CALL    $7875
00007806: 34 00 00           LXI     HL,$0000
00007809: 70 3E 17 99        SHLD    $9917
0000780D: 40 82 78           CALL    $7882
00007810: 05 00 7F           ANIW    VV:00,$7F
00007813: 34 76 7B           LXI     HL,$7B76
00007816: 70 3E 1D 99        SHLD    $991D
0000781A: 40 5E 7C           CALL    $7C5E
0000781D: 6B 06              MVI     C,$06
0000781F: 80                 CALT    ($0080)
00007820: 71 1D 14           MVIW    VV:1D,$14
00007823: 40 45 78           CALL    $7845
00007826: 96                 CALT    ($00AC)
00007827: C4                 JR      $782C
00007828: 55 00 02           OFFIW   VV:00,$02
0000782B: C5                 JR      $7831
0000782C: 30 1D              DCRW    VV:1D
0000782E: F4                 JR      $7823
0000782F: 4E 33              JRE     $7864
00007831: 40 45 78           CALL    $7845
00007834: 40 45 78           CALL    $7845
00007837: 40 6A 7C           CALL    $7C6A
0000783A: 6B 4B              MVI     C,$4B
0000783C: 80                 CALT    ($0080)
0000783D: 34 03 00           LXI     HL,$0003
00007840: 70 3E 17 99        SHLD    $9917
00007844: B8                 RET     
00007845: 15 00 02           ORIW    VV:00,$02
00007848: 94                 CALT    ($00A8)
00007849: 6B 03              MVI     C,$03
0000784B: 80                 CALT    ($0080)
0000784C: 96                 CALT    ($00AC)
0000784D: 05 00 FD           ANIW    VV:00,$FD
00007850: B8                 RET     
00007851: 70 69 08 C0        MOV     A,($C008)
00007855: 6B 04              MVI     C,$04
00007857: 34 60 78           LXI     HL,$7860
0000785A: 70 ED              NEAX    (HL+)
0000785C: B8                 RET     
0000785D: 53                 DCR     C
0000785E: FB                 JR      $785A
0000785F: B9                 RETS    
00007860: 0C                 MOV     A,D
00007861: 0D                 MOV     A,E
00007862: 0E                 MOV     A,H
00007863: 0F                 MOV     A,L
00007864: 34 4A 10           LXI     HL,$104A
00007867: 34 47 10           LXI     HL,$1047
0000786A: B3                 PUSH    HL
0000786B: 40 48 0C           CALL    $0C48
0000786E: 40 9A 0C           CALL    $0C9A
00007871: A1                 POP     BC
00007872: 48 29              CALB    
00007874: FF                 JR      $7874
00007875: 70 2F 17 99        LDED    $9917
00007879: 44 0A 00           LXI     EA,$000A
0000787C: 74 BE              DLT     EA,DE
0000787E: B8                 RET     
0000787F: 34 0A 00           LXI     HL,$000A
00007882: 34 0D 01           LXI     HL,$010D
00007885: 34 D1 00           LXI     HL,$00D1
00007888: 70 2F 17 99        LDED    $9917
0000788C: A7                 DMOV    EA,HL
0000788D: 74 EE              DNE     EA,DE
0000788F: 54 A4 7B           JMP     $7BA4
00007892: B3                 PUSH    HL
00007893: 93                 CALT    ($00A6)
00007894: A3                 POP     HL
00007895: 5F 00              BIT     7,VV:00
00007897: 69 03              MVI     A,$03
00007899: 69 01              MVI     A,$01
0000789B: 63 1F              STAW    VV:1F
0000789D: B3                 PUSH    HL
0000789E: 70 2F 17 99        LDED    $9917
000078A2: A7                 DMOV    EA,HL
000078A3: 05 00 BF           ANIW    VV:00,$BF
000078A6: 74 B6              DSUBNB  EA,DE
000078A8: C1                 JR      $78AA
000078A9: C6                 JR      $78B0
000078AA: 15 00 40           ORIW    VV:00,$40
000078AD: A6                 DMOV    EA,DE
000078AE: 74 E7              DSUB    EA,HL
000078B0: 34 1E 00           LXI     HL,$001E
000078B3: 74 BF              DLT     EA,HL
000078B5: C9                 JR      $78BF
000078B6: 44 1E 00           LXI     EA,$001E
000078B9: 01 00              LDAW    VV:00
000078BB: 16 40              XRI     A,$40
000078BD: 63 00              STAW    VV:00
000078BF: 34 49 99           LXI     HL,$9949
000078C2: 48 93              STEAX   (HL)
000078C4: 95                 CALT    ($00AA)
000078C5: 5F 00              BIT     7,VV:00
000078C7: 15 00 01           ORIW    VV:00,$01
000078CA: A3                 POP     HL
000078CB: 5F 00              BIT     7,VV:00
000078CD: 4F B9              JRE     $7888
000078CF: 54 A4 7B           JMP     $7BA4
000078D2: 15 00 10           ORIW    VV:00,$10
000078D5: 58 00              BIT     0,VV:00
000078D7: C7                 JR      $78DF
000078D8: 40 B1 7B           CALL    $7BB1
000078DB: 05 00 FE           ANIW    VV:00,$FE
000078DE: C1                 JR      $78E0
000078DF: 93                 CALT    ($00A6)
000078E0: 71 1F 03           MVIW    VV:1F,$03
000078E3: 40 75 1F           CALL    $1F75
000078E6: 34 0B 99           LXI     HL,$990B
000078E9: 24 19 99           LXI     DE,$9919
000078EC: 48 85              LDEAX   (HL++)
000078EE: 14 B8 02           LXI     BC,$02B8
000078F1: 74 C5              DADD    EA,BC
000078F3: 5A 00              BIT     2,VV:00
000078F5: C3                 JR      $78F9
000078F6: 70 61              ESUB    EA,A
000078F8: C2                 JR      $78FB
000078F9: 70 41              EADD    EA,A
000078FB: 6A 18              MVI     B,$18
000078FD: 48 3E              DIV     B
000078FF: 48 94              STEAX   (DE++)
00007901: 48 83              LDEAX   (HL)
00007903: 14 B8 02           LXI     BC,$02B8
00007906: 74 C5              DADD    EA,BC
00007908: 5A 00              BIT     2,VV:00
0000790A: C3                 JR      $790E
0000790B: 70 61              ESUB    EA,A
0000790D: C2                 JR      $7910
0000790E: 70 41              EADD    EA,A
00007910: 69 18              MVI     A,$18
00007912: 48 3D              DIV     A
00007914: 77 00              EQI     A,$00
00007916: A8                 INX     EA
00007917: 48 92              STEAX   (DE)
00007919: 40 FB 7B           CALL    $7BFB
0000791C: A6                 DMOV    EA,DE
0000791D: 74 B5              DSUBNB  EA,BC
0000791F: 4E 1F              JRE     $7940
00007921: 15 00 40           ORIW    VV:00,$40
00007924: 34 0F 00           LXI     HL,$000F
00007927: 74 B7              DSUBNB  EA,HL
00007929: 4E 1E              JRE     $7949
0000792B: 34 1E 00           LXI     HL,$001E
0000792E: 75 20 03           EQIW    VV:20,$03
00007931: 74 B7              DSUBNB  EA,HL
00007933: 4E 29              JRE     $795E
00007935: A6                 DMOV    EA,DE
00007936: 74 E5              DSUB    EA,BC
00007938: 69 0F              MVI     A,$0F
0000793A: 70 61              ESUB    EA,A
0000793C: 05 00 BF           ANIW    VV:00,$BF
0000793F: D7                 JR      $7957
00007940: 34 10 00           LXI     HL,$0010
00007943: A5                 DMOV    EA,BC
00007944: 74 E6              DSUB    EA,DE
00007946: 74 BF              DLT     EA,HL
00007948: C7                 JR      $7950
00007949: 44 1E 00           LXI     EA,$001E
0000794C: 15 00 40           ORIW    VV:00,$40
0000794F: C7                 JR      $7957
00007950: 69 0F              MVI     A,$0F
00007952: 70 41              EADD    EA,A
00007954: 15 00 40           ORIW    VV:00,$40
00007957: 34 49 99           LXI     HL,$9949
0000795A: 48 93              STEAX   (HL)
0000795C: 95                 CALT    ($00AA)
0000795D: 93                 CALT    ($00A6)
0000795E: 40 9F 1F           CALL    $1F9F
00007961: FC                 JR      $795E
00007962: 40 FB 7B           CALL    $7BFB
00007965: 69 11              MVI     A,$11
00007967: A7                 DMOV    EA,HL
00007968: 74 E5              DSUB    EA,BC
0000796A: 70 41              EADD    EA,A
0000796C: B7                 DMOV    HL,EA
0000796D: 70 3E 49 99        SHLD    $9949
00007971: 15 0F 02           ORIW    VV:0F,$02
00007974: A6                 DMOV    EA,DE
00007975: 74 E5              DSUB    EA,BC
00007977: A9                 DCX     EA
00007978: B7                 DMOV    HL,EA
00007979: 70 3E 4B 99        SHLD    $994B
0000797D: 01 20              LDAW    VV:20
0000797F: 63 1F              STAW    VV:1F
00007981: 05 00 BF           ANIW    VV:00,$BF
00007984: 95                 CALT    ($00AA)
00007985: 05 00 EF           ANIW    VV:00,$EF
00007988: 69 04              MVI     A,$04
0000798A: 4D CC              MOV     ETMM,A
0000798C: B8                 RET     
0000798D: 40 BE 7B           CALL    $7BBE
00007990: 55 00 10           OFFIW   VV:00,$10
00007993: 5A 00              BIT     2,VV:00
00007995: C6                 JR      $799C
00007996: 01 00              LDAW    VV:00
00007998: 16 40              XRI     A,$40
0000799A: 63 00              STAW    VV:00
0000799C: 5E 00              BIT     6,VV:00
0000799E: 34 66 7B           LXI     HL,$7B66
000079A1: 34 76 7B           LXI     HL,$7B76
000079A4: 70 3E 1D 99        SHLD    $991D
000079A8: 01 1F              LDAW    VV:1F
000079AA: 48 25              SLL     A
000079AC: 48 A8              TABLE   
000079AE: CA                 JR      $79B9
000079AF: 6E 7C              MVI     H,$7C
000079B1: 7E 7C              CALF    $0E7C
000079B3: 9C                 CALT    ($00B8)
000079B4: 7C AC              CALF    $0CAC
000079B6: 7C BC              CALF    $0CBC
000079B8: 7C 70              CALF    $0C70
000079BA: 1E                 MOV     H,A
000079BB: 1F                 MOV     L,A
000079BC: 99                 CALT    ($00B2)
000079BD: 15 0F 90           ORIW    VV:0F,$90
000079C0: 40 1F 7C           CALL    $7C1F
000079C3: 65 1F 04           NEIW    VV:1F,$04
000079C6: C4                 JR      $79CB
000079C7: 75 1F 01           EQIW    VV:1F,$01
000079CA: D7                 JR      $79E2
000079CB: 15 00 20           ORIW    VV:00,$20
000079CE: 34 49 99           LXI     HL,$9949
000079D1: 48 83              LDEAX   (HL)
000079D3: 48 A4              DSLL    EA
000079D5: 48 93              STEAX   (HL)
000079D7: 34 4B 99           LXI     HL,$994B
000079DA: 48 83              LDEAX   (HL)
000079DC: 48 A4              DSLL    EA
000079DE: 48 93              STEAX   (HL)
000079E0: 69 1C              MVI     A,$1C
000079E2: 69 0E              MVI     A,$0E
000079E4: 63 1D              STAW    VV:1D
000079E6: 40 62 7C           CALL    $7C62
000079E9: 64 9D E0           ORI     TMM,$E0
000079EC: 34 04 7A           LXI     HL,$7A04
000079EF: 70 3E 18 98        SHLD    $9818
000079F3: 15 0F 01           ORIW    VV:0F,$01
000079F6: 69 E6              MVI     A,$E6
000079F8: 4D DB              MOV     TM1,A
000079FA: 48 42              SKIT    FT1
000079FC: 00                 NOP     
000079FD: 64 8D 3F           ANI     TMM,$3F
00007A00: 64 0F FB           ANI     MKL,$FB
00007A03: B8                 RET     
00007A04: 48 C0              DMOV    EA,ECNT
00007A06: B7                 DMOV    HL,EA
00007A07: 70 3E 21 99        SHLD    $9921
00007A0B: 40 34 7A           CALL    $7A34
00007A0E: C7                 JR      $7A16
00007A0F: 40 16 0C           CALL    $0C16
00007A12: 11                 EXX     
00007A13: 10                 EXA     
00007A14: AA                 EI      
00007A15: 62                 RETI    
00007A16: 94                 CALT    ($00A8)
00007A17: 11                 EXX     
00007A18: 10                 EXA     
00007A19: AA                 EI      
00007A1A: B0                 PUSH    VA
00007A1B: B4                 PUSH    EA
00007A1C: B1                 PUSH    BC
00007A1D: B2                 PUSH    DE
00007A1E: B3                 PUSH    HL
00007A1F: 01 1D              LDAW    VV:1D
00007A21: 70 3F 1F 99        LHLD    $991F
00007A25: AC                 LDAX    (HL+A)
00007A26: 4D DB              MOV     TM1,A
00007A28: 40 C4 7A           CALL    $7AC4
00007A2B: 40 99 7A           CALL    $7A99
00007A2E: A3                 POP     HL
00007A2F: A2                 POP     DE
00007A30: A1                 POP     BC
00007A31: A4                 POP     EA
00007A32: A0                 POP     VA
00007A33: 62                 RETI    
00007A34: 45 0F 41           ONIW    VV:0F,$41
00007A37: B8                 RET     
00007A38: 58 0F              BIT     0,VV:0F
00007A3A: D5                 JR      $7A50
00007A3B: 05 0F FE           ANIW    VV:0F,$FE
00007A3E: 5E 0F              BIT     6,VV:0F
00007A40: CB                 JR      $7A4C
00007A41: 40 6A 7C           CALL    $7C6A
00007A44: 69 C0              MVI     A,$C0
00007A46: 4D DB              MOV     TM1,A
00007A48: 71 1E 0E           MVIW    VV:1E,$0E
00007A4B: B9                 RETS    
00007A4C: 40 5E 7C           CALL    $7C5E
00007A4F: B8                 RET     
00007A50: 30 1E              DCRW    VV:1E
00007A52: B9                 RETS    
00007A53: 05 0F BF           ANIW    VV:0F,$BF
00007A56: 40 F7 0B           CALL    $0BF7
00007A59: B9                 RETS    
00007A5A: 94                 CALT    ($00A8)
00007A5B: 11                 EXX     
00007A5C: 10                 EXA     
00007A5D: AA                 EI      
00007A5E: B3                 PUSH    HL
00007A5F: 70 3F 49 99        LHLD    $9949
00007A63: 33                 DCX     HL
00007A64: 70 3E 49 99        SHLD    $9949
00007A68: A3                 POP     HL
00007A69: 62                 RETI    
00007A6A: 05 0F CF           ANIW    VV:0F,$CF
00007A6D: 15 0F 08           ORIW    VV:0F,$08
00007A70: 01 1F              LDAW    VV:1F
00007A72: 48 25              SLL     A
00007A74: 48 A8              TABLE   
00007A76: CA                 JR      $7A81
00007A77: 6F 7C              MVI     L,$7C
00007A79: 7F 7C              CALF    $0F7C
00007A7B: 9D                 CALT    ($00BA)
00007A7C: 7C AD              CALF    $0CAD
00007A7E: 7C BD              CALF    $0CBD
00007A80: 7C 70              CALF    $0C70
00007A82: 1E                 MOV     H,A
00007A83: 1F                 MOV     L,A
00007A84: 99                 CALT    ($00B2)
00007A85: 34 04 7A           LXI     HL,$7A04
00007A88: 70 3E 18 98        SHLD    $9818
00007A8C: 55 00 80           OFFIW   VV:00,$80
00007A8F: 5E 00              BIT     6,VV:00
00007A91: B8                 RET     
00007A92: 25 1D 13           GTIW    VV:1D,$13
00007A95: 71 1D 13           MVIW    VV:1D,$13
00007A98: B8                 RET     
00007A99: 55 0F 69           OFFIW   VV:0F,$69
00007A9C: B8                 RET     
00007A9D: 40 1D 7B           CALL    $7B1D
00007AA0: B8                 RET     
00007AA1: 55 00 80           OFFIW   VV:00,$80
00007AA4: D4                 JR      $7AB9
00007AA5: 55 0F 10           OFFIW   VV:0F,$10
00007AA8: B8                 RET     
00007AA9: 96                 CALT    ($00AC)
00007AAA: CA                 JR      $7AB5
00007AAB: 55 00 02           OFFIW   VV:00,$02
00007AAE: 54 64 78           JMP     $7864
00007AB1: 15 00 02           ORIW    VV:00,$02
00007AB4: B8                 RET     
00007AB5: 05 00 FD           ANIW    VV:00,$FD
00007AB8: B8                 RET     
00007AB9: 5E 00              BIT     6,VV:00
00007ABB: C4                 JR      $7AC0
00007ABC: 96                 CALT    ($00AC)
00007ABD: B8                 RET     
00007ABE: 4F AA              JRE     $7A6A
00007AC0: 96                 CALT    ($00AC)
00007AC1: 4F A7              JRE     $7A6A
00007AC3: B8                 RET     
00007AC4: 45 0F 18           ONIW    VV:0F,$18
00007AC7: B8                 RET     
00007AC8: 5C 0F              BIT     4,VV:0F
00007ACA: 4E 2B              JRE     $7AF7
00007ACC: 65 1F 04           NEIW    VV:1F,$04
00007ACF: C4                 JR      $7AD4
00007AD0: 75 1F 01           EQIW    VV:1F,$01
00007AD3: C6                 JR      $7ADA
00007AD4: 65 1D 0E           NEIW    VV:1D,$0E
00007AD7: 40 62 7C           CALL    $7C62
00007ADA: 30 1D              DCRW    VV:1D
00007ADC: 75 1D 00           EQIW    VV:1D,$00
00007ADF: B8                 RET     
00007AE0: 65 1F 04           NEIW    VV:1F,$04
00007AE3: C4                 JR      $7AE8
00007AE4: 75 1F 01           EQIW    VV:1F,$01
00007AE7: C4                 JR      $7AEC
00007AE8: 40 66 7C           CALL    $7C66
00007AEB: C3                 JR      $7AEF
00007AEC: 40 62 7C           CALL    $7C62
00007AEF: 05 0F EF           ANIW    VV:0F,$EF
00007AF2: 5D 0F              BIT     5,VV:0F
00007AF4: B8                 RET     
00007AF5: 4F 73              JRE     $7A6A
00007AF7: 20 1D              INRW    VV:1D
00007AF9: 5D 00              BIT     5,VV:00
00007AFB: 69 0F              MVI     A,$0F
00007AFD: 69 1D              MVI     A,$1D
00007AFF: 74 F8 1D           EQAW    VV:1D
00007B02: B8                 RET     
00007B03: 55 00 80           OFFIW   VV:00,$80
00007B06: 40 51 78           CALL    $7851
00007B09: C9                 JR      $7B13
00007B0A: 30 1D              DCRW    VV:1D
00007B0C: 70 69 9A 7C        MOV     A,($7C9A)
00007B10: 4D DB              MOV     TM1,A
00007B12: B8                 RET     
00007B13: 15 0F 41           ORIW    VV:0F,$41
00007B16: 05 0F 77           ANIW    VV:0F,$77
00007B19: 05 00 DF           ANIW    VV:00,$DF
00007B1C: B8                 RET     
00007B1D: 34 49 99           LXI     HL,$9949
00007B20: 9F                 CALT    ($00BE)
00007B21: 5F 00              BIT     7,VV:00
00007B23: C9                 JR      $7B2D
00007B24: 34 00 00           LXI     HL,$0000
00007B27: 74 FF              DEQ     EA,HL
00007B29: B9                 RETS    
00007B2A: 54 64 78           JMP     $7864
00007B2D: 55 0F 08           OFFIW   VV:0F,$08
00007B30: B9                 RETS    
00007B31: 5D 00              BIT     5,VV:00
00007B33: 34 0F 00           LXI     HL,$000F
00007B36: 34 1D 00           LXI     HL,$001D
00007B39: 74 AF              DGT     EA,HL
00007B3B: 4F 2D              JRE     $7A6A
00007B3D: 59 0F              BIT     1,VV:0F
00007B3F: B9                 RETS    
00007B40: 34 4B 99           LXI     HL,$994B
00007B43: 9F                 CALT    ($00BE)
00007B44: 24 00 00           LXI     DE,$0000
00007B47: 74 EE              DNE     EA,DE
00007B49: 54 8F 1E           JMP     $1E8F
00007B4C: B9                 RETS    
00007B4D: 70 3F 1D 99        LHLD    $991D
00007B51: 70 69 08 C0        MOV     A,($C008)
00007B55: 55 00 20           OFFIW   VV:00,$20
00007B58: C5                 JR      $7B5E
00007B59: AC                 LDAX    (HL+A)
00007B5A: 70 79 08 C0        MOV     ($C008),A
00007B5E: AC                 LDAX    (HL+A)
00007B5F: 70 79 08 C0        MOV     ($C008),A
00007B63: 54 16 0C           JMP     $0C16
00007B66: 0D                 MOV     A,E
00007B67: 0D                 MOV     A,E
00007B68: 0D                 MOV     A,E
00007B69: 0D                 MOV     A,E
00007B6A: 0D                 MOV     A,E
00007B6B: 0F                 MOV     A,L
00007B6C: 0C                 MOV     A,D
00007B6D: 0D                 MOV     A,E
00007B6E: 0D                 MOV     A,E
00007B6F: 0D                 MOV     A,E
00007B70: 0D                 MOV     A,E
00007B71: 0E                 MOV     A,H
00007B72: 08                 MOV     A,EAH
00007B73: 05 06 0B           ANIW    VV:06,$0B
00007B76: 0D                 MOV     A,E
00007B77: 0D                 MOV     A,E
00007B78: 0D                 MOV     A,E
00007B79: 0D                 MOV     A,E
00007B7A: 0D                 MOV     A,E
00007B7B: 0D                 MOV     A,E
00007B7C: 0E                 MOV     A,H
00007B7D: 0D                 MOV     A,E
00007B7E: 0C                 MOV     A,D
00007B7F: 0D                 MOV     A,E
00007B80: 0D                 MOV     A,E
00007B81: 0F                 MOV     A,L
00007B82: 06                 illegal 
00007B83: 08                 MOV     A,EAH
00007B84: 0B                 MOV     A,C
00007B85: 05 40 BF           ANIW    VV:40,$BF
00007B88: 0F                 MOV     A,L
00007B89: B0                 PUSH    VA
00007B8A: 6B 0A              MVI     C,$0A
00007B8C: 80                 CALT    ($0080)
00007B8D: 40 BF 0F           CALL    $0FBF
00007B90: A0                 POP     VA
00007B91: 60 FA              EQA     A,B
00007B93: F2                 JR      $7B86
00007B94: C3                 JR      $7B98
00007B95: 40 BF 0F           CALL    $0FBF
00007B98: 47 01              ONI     A,$01
00007B9A: B9                 RETS    
00007B9B: B8                 RET     
00007B9C: 55 00 10           OFFIW   VV:00,$10
00007B9F: 40 9F 1F           CALL    $1F9F
00007BA2: 00                 NOP     
00007BA3: 8D                 CALT    ($009A)
00007BA4: 55 0F C0           OFFIW   VV:0F,$C0
00007BA7: F4                 JR      $7B9C
00007BA8: B8                 RET     
00007BA9: 55 00 10           OFFIW   VV:00,$10
00007BAC: 40 9F 1F           CALL    $1F9F
00007BAF: 00                 NOP     
00007BB0: 8D                 CALT    ($009A)
00007BB1: 45 0F C0           ONIW    VV:0F,$C0
00007BB4: 55 01 30           OFFIW   VV:01,$30
00007BB7: F1                 JR      $7BA9
00007BB8: B8                 RET     
00007BB9: 40 9F 1F           CALL    $1F9F
00007BBC: 00                 NOP     
00007BBD: 8D                 CALT    ($009A)
00007BBE: 93                 CALT    ($00A6)
00007BBF: 59 0F              BIT     1,VV:0F
00007BC1: B8                 RET     
00007BC2: 5C 01              BIT     4,VV:01
00007BC4: 64 5A 04           OFFI    PC,$04
00007BC7: F1                 JR      $7BB9
00007BC8: BA                 DI      
00007BC9: 00                 NOP     
00007BCA: 5D 01              BIT     5,VV:01
00007BCC: C6                 JR      $7BD3
00007BCD: 64 1F 20           ORI     MKL,$20
00007BD0: 05 01 DF           ANIW    VV:01,$DF
00007BD3: AA                 EI      
00007BD4: B8                 RET     
00007BD5: 05 00 FB           ANIW    VV:00,$FB
00007BD8: 55 00 08           OFFIW   VV:00,$08
00007BDB: B8                 RET     
00007BDC: 34 0B 99           LXI     HL,$990B
00007BDF: 48 85              LDEAX   (HL++)
00007BE1: B5                 DMOV    BC,EA
00007BE2: 48 83              LDEAX   (HL)
00007BE4: B6                 DMOV    DE,EA
00007BE5: 74 C5              DADD    EA,BC
00007BE7: 48 A0              DSLR    EA
00007BE9: 69 18              MVI     A,$18
00007BEB: 48 3D              DIV     A
00007BED: 69 1D              MVI     A,$1D
00007BEF: 70 41              EADD    EA,A
00007BF1: 70 3F 17 99        LHLD    $9917
00007BF5: 74 B7              DSUBNB  EA,HL
00007BF7: 15 00 04           ORIW    VV:00,$04
00007BFA: B8                 RET     
00007BFB: 34 17 99           LXI     HL,$9917
00007BFE: 48 85              LDEAX   (HL++)
00007C00: B5                 DMOV    BC,EA
00007C01: 48 85              LDEAX   (HL++)
00007C03: B6                 DMOV    DE,EA
00007C04: 48 83              LDEAX   (HL)
00007C06: B7                 DMOV    HL,EA
00007C07: 5A 00              BIT     2,VV:00
00007C09: B8                 RET     
00007C0A: 44 63 03           LXI     EA,$0363
00007C0D: 74 E5              DSUB    EA,BC
00007C0F: B5                 DMOV    BC,EA
00007C10: 44 63 03           LXI     EA,$0363
00007C13: 74 E7              DSUB    EA,HL
00007C15: B4                 PUSH    EA
00007C16: 44 63 03           LXI     EA,$0363
00007C19: 74 E6              DSUB    EA,DE
00007C1B: B7                 DMOV    HL,EA
00007C1C: A4                 POP     EA
00007C1D: B6                 DMOV    DE,EA
00007C1E: B8                 RET     
00007C1F: 34 17 99           LXI     HL,$9917
00007C22: 48 83              LDEAX   (HL)
00007C24: 70 1F 49 99        LBCD    $9949
00007C28: 5E 00              BIT     6,VV:00
00007C2A: D8                 JR      $7C43
00007C2B: 74 E5              DSUB    EA,BC
00007C2D: 24 29 00           LXI     DE,$0029
00007C30: 74 BE              DLT     EA,DE
00007C32: 4E 27              JRE     $7C5B
00007C34: 24 0A 00           LXI     DE,$000A
00007C37: 74 E6              DSUB    EA,DE
00007C39: 74 C5              DADD    EA,BC
00007C3B: B5                 DMOV    BC,EA
00007C3C: 70 1E 49 99        SBCD    $9949
00007C40: A6                 DMOV    EA,DE
00007C41: 4E 18              JRE     $7C5B
00007C43: 74 C5              DADD    EA,BC
00007C45: 24 F4 01           LXI     DE,$01F4
00007C48: 74 AE              DGT     EA,DE
00007C4A: D0                 JR      $7C5B
00007C4B: B6                 DMOV    DE,EA
00007C4C: 44 13 02           LXI     EA,$0213
00007C4F: 74 E6              DSUB    EA,DE
00007C51: 74 C5              DADD    EA,BC
00007C53: B5                 DMOV    BC,EA
00007C54: 70 1E 49 99        SBCD    $9949
00007C58: 44 13 02           LXI     EA,$0213
00007C5B: 48 93              STEAX   (HL)
00007C5D: B8                 RET     
00007C5E: 64 00 30           MVI     PA,$30
00007C61: B8                 RET     
00007C62: 64 00 28           MVI     PA,$28
00007C65: B8                 RET     
00007C66: 64 00 18           MVI     PA,$18
00007C69: B8                 RET     
00007C6A: 64 00 38           MVI     PA,$38
00007C6D: B8                 RET     
00007C6E: 2B                 LDAX    (HL)
00007C6F: 2B                 LDAX    (HL)
00007C70: 2B                 LDAX    (HL)
00007C71: 2C                 LDAX    (DE+)
00007C72: 2D                 LDAX    (HL+)
00007C73: 2E                 LDAX    (DE-)
00007C74: 30 32              DCRW    VV:32
00007C76: 35 39 3F           LTIW    VV:39,$3F
00007C79: 47 52              ONI     A,$52
00007C7B: 62                 RETI    
00007C7C: 8A                 CALT    ($0094)
00007C7D: E6                 JR      $7C64
00007C7E: 2B                 LDAX    (HL)
00007C7F: 2B                 LDAX    (HL)
00007C80: 2B                 LDAX    (HL)
00007C81: 2B                 LDAX    (HL)
00007C82: 2B                 LDAX    (HL)
00007C83: 2B                 LDAX    (HL)
00007C84: 2B                 LDAX    (HL)
00007C85: 2B                 LDAX    (HL)
00007C86: 2B                 LDAX    (HL)
00007C87: 2B                 LDAX    (HL)
00007C88: 2B                 LDAX    (HL)
00007C89: 2C                 LDAX    (DE+)
00007C8A: 2C                 LDAX    (DE+)
00007C8B: 2D                 LDAX    (HL+)
00007C8C: 2E                 LDAX    (DE-)
00007C8D: 2F                 LDAX    (HL-)
00007C8E: 30 31              DCRW    VV:31
00007C90: 32                 INX     HL
00007C91: 35 37 3A           LTIW    VV:37,$3A
00007C94: 3D                 STAX    (HL+)
00007C95: 41                 INR     A
00007C96: 45 4D 59           ONIW    VV:4D,$59
00007C99: 6C 87              MVI     D,$87
00007C9B: E6                 JR      $7C82
00007C9C: 1B                 MOV     C,A
00007C9D: 1B                 MOV     C,A
00007C9E: 1B                 MOV     C,A
00007C9F: 1C                 MOV     D,A
00007CA0: 1D                 MOV     E,A
00007CA1: 1F                 MOV     L,A
00007CA2: 21                 JB      
00007CA3: 23                 DCX     DE
00007CA4: 26 2A              ADINC   A,$2A
00007CA6: 2F                 LDAX    (HL-)
00007CA7: 35 3D 49           LTIW    VV:3D,$49
00007CAA: 60 E6              SUB     A,H
00007CAC: 20 20              INRW    VV:20
00007CAE: 20 21              INRW    VV:21
00007CB0: 22                 INX     DE
00007CB1: 23                 DCX     DE
00007CB2: 24 26 29           LXI     DE,$2926
00007CB5: 2D                 LDAX    (HL+)
00007CB6: 31                 BLOCK   
00007CB7: 38                 illegal 
00007CB8: 40 4A 60           CALL    $604A
00007CBB: E6                 JR      $7CA2
00007CBC: 20 20              INRW    VV:20
00007CBE: 20 20              INRW    VV:20
00007CC0: 20 20              INRW    VV:20
00007CC2: 20 21              INRW    VV:21
00007CC4: 21                 JB      
00007CC5: 21                 JB      
00007CC6: 21                 JB      
00007CC7: 22                 INX     DE
00007CC8: 22                 INX     DE
00007CC9: 23                 DCX     DE
00007CCA: 23                 DCX     DE
00007CCB: 24 25 26           LXI     DE,$2625
00007CCE: 27 28              GTI     A,$28
00007CD0: 2A                 LDAX    (DE)
00007CD1: 2D                 LDAX    (HL+)
00007CD2: 30 35              DCRW    VV:35
00007CD4: 3B                 STAX    (HL)
00007CD5: 46 52              ADI     A,$52
00007CD7: 67 87              NEI     A,$87
00007CD9: E6                 JR      $7CC0
00007CDA: 8E                 CALT    ($009C)
00007CDB: 77 00              EQI     A,$00
00007CDD: B8                 RET     
00007CDE: 8E                 CALT    ($009C)
00007CDF: 1B                 MOV     C,A
00007CE0: B1                 PUSH    BC
00007CE1: 8E                 CALT    ($009C)
00007CE2: A1                 POP     BC
00007CE3: 1A                 MOV     B,A
00007CE4: 8E                 CALT    ($009C)
00007CE5: 67 00              NEI     A,$00
00007CE7: 54 32 7D           JMP     $7D32
00007CEA: 67 01              NEI     A,$01
00007CEC: 54 81 7D           JMP     $7D81
00007CEF: 67 03              NEI     A,$03
00007CF1: 54 10 7D           JMP     $7D10
00007CF4: 67 04              NEI     A,$04
00007CF6: 54 FA 7C           JMP     $7CFA
00007CF9: B8                 RET     
00007CFA: 8B                 CALT    ($0096)
00007CFB: 8E                 CALT    ($009C)
00007CFC: 77 FB              EQI     A,$FB
00007CFE: B8                 RET     
00007CFF: 8E                 CALT    ($009C)
00007D00: 77 02              EQI     A,$02
00007D02: B8                 RET     
00007D03: 8E                 CALT    ($009C)
00007D04: 1B                 MOV     C,A
00007D05: 6A 80              MVI     B,$80
00007D07: 40 88 2B           CALL    $2B88
00007D0A: 69 0C              MVI     A,$0C
00007D0C: 40 12 30           CALL    $3012
00007D0F: B8                 RET     
00007D10: 40 FD 16           CALL    $16FD
00007D13: 8E                 CALT    ($009C)
00007D14: 77 FC              EQI     A,$FC
00007D16: B8                 RET     
00007D17: 8E                 CALT    ($009C)
00007D18: 77 81              EQI     A,$81
00007D1A: B8                 RET     
00007D1B: 8E                 CALT    ($009C)
00007D1C: 37 03              LTI     A,$03
00007D1E: B8                 RET     
00007D1F: 15 06 80           ORIW    VV:06,$80
00007D22: 67 00              NEI     A,$00
00007D24: 05 06 5F           ANIW    VV:06,$5F
00007D27: 67 01              NEI     A,$01
00007D29: 15 06 20           ORIW    VV:06,$20
00007D2C: 67 02              NEI     A,$02
00007D2E: 05 06 DF           ANIW    VV:06,$DF
00007D31: B8                 RET     
00007D32: 8E                 CALT    ($009C)
00007D33: 77 FF              EQI     A,$FF
00007D35: B8                 RET     
00007D36: 8E                 CALT    ($009C)
00007D37: 77 00              EQI     A,$00
00007D39: B8                 RET     
00007D3A: 8E                 CALT    ($009C)
00007D3B: 37 02              LTI     A,$02
00007D3D: B8                 RET     
00007D3E: 77 00              EQI     A,$00
00007D40: 69 02              MVI     A,$02
00007D42: 5D 06              BIT     5,VV:06
00007D44: 41                 INR     A
00007D45: 44 7C 7D           LXI     EA,$7D7C
00007D48: 70 41              EADD    EA,A
00007D4A: B7                 DMOV    HL,EA
00007D4B: 2B                 LDAX    (HL)
00007D4C: 70 79 46 98        MOV     ($9846),A
00007D50: 44 21 0D           LXI     EA,$0D21
00007D53: 70 41              EADD    EA,A
00007D55: B7                 DMOV    HL,EA
00007D56: 44 50 98           LXI     EA,$9850
00007D59: 70 41              EADD    EA,A
00007D5B: 2B                 LDAX    (HL)
00007D5C: B7                 DMOV    HL,EA
00007D5D: 1A                 MOV     B,A
00007D5E: B3                 PUSH    HL
00007D5F: B1                 PUSH    BC
00007D60: 8E                 CALT    ($009C)
00007D61: A1                 POP     BC
00007D62: A3                 POP     HL
00007D63: 60 C2              ADD     A,B
00007D65: 3B                 STAX    (HL)
00007D66: 8E                 CALT    ($009C)
00007D67: B8                 RET     
00007D68: 40 C9 15           CALL    $15C9
00007D6B: 40 14 15           CALL    $1514
00007D6E: 40 2F 15           CALL    $152F
00007D71: C6                 JR      $7D78
00007D72: 40 2B 15           CALL    $152B
00007D75: 40 C9 15           CALL    $15C9
00007D78: 40 D6 04           CALL    $04D6
00007D7B: B8                 RET     
00007D7C: 03                 DCX     SP
00007D7D: 00                 NOP     
00007D7E: 04 01 00           LXI     SP,$0001
00007D81: 8E                 CALT    ($009C)
00007D82: 77 FE              EQI     A,$FE
00007D84: B8                 RET     
00007D85: 8E                 CALT    ($009C)
00007D86: 77 80              EQI     A,$80
00007D88: B8                 RET     
00007D89: 01 31              LDAW    VV:31
00007D8B: 16 FF              XRI     A,$FF
00007D8D: 40 9B 7D           CALL    $7D9B
00007D90: 01 32              LDAW    VV:32
00007D92: 16 FF              XRI     A,$FF
00007D94: 07 0F              ANI     A,$0F
00007D96: 40 9B 7D           CALL    $7D9B
00007D99: 8B                 CALT    ($0096)
00007D9A: B8                 RET     
00007D9B: 40 59 0E           CALL    $0E59
00007D9E: 09                 MOV     A,EAL
00007D9F: 63 15              STAW    VV:15
00007DA1: B4                 PUSH    EA
00007DA2: 40 CD 05           CALL    $05CD
00007DA5: A4                 POP     EA
00007DA6: 08                 MOV     A,EAH
00007DA7: 63 15              STAW    VV:15
00007DA9: 40 CD 05           CALL    $05CD
00007DAC: B8                 RET     
00007DAD: FF                 JR      $7DAD
00007DAE: FF                 JR      $7DAE
00007DAF: FF                 JR      $7DAF
00007DB0: FF                 JR      $7DB0
00007DB1: FF                 JR      $7DB1
00007DB2: FF                 JR      $7DB2
00007DB3: FF                 JR      $7DB3
00007DB4: FF                 JR      $7DB4
00007DB5: FF                 JR      $7DB5
00007DB6: FF                 JR      $7DB6
00007DB7: FF                 JR      $7DB7
00007DB8: FF                 JR      $7DB8
00007DB9: FF                 JR      $7DB9
00007DBA: FF                 JR      $7DBA
00007DBB: FF                 JR      $7DBB
00007DBC: FF                 JR      $7DBC
00007DBD: FF                 JR      $7DBD
00007DBE: FF                 JR      $7DBE
00007DBF: FF                 JR      $7DBF
00007DC0: FF                 JR      $7DC0
00007DC1: FF                 JR      $7DC1
00007DC2: FF                 JR      $7DC2
00007DC3: FF                 JR      $7DC3
00007DC4: FF                 JR      $7DC4
00007DC5: FF                 JR      $7DC5
00007DC6: FF                 JR      $7DC6
00007DC7: FF                 JR      $7DC7
00007DC8: FF                 JR      $7DC8
00007DC9: FF                 JR      $7DC9
00007DCA: FF                 JR      $7DCA
00007DCB: FF                 JR      $7DCB
00007DCC: FF                 JR      $7DCC
00007DCD: FF                 JR      $7DCD
00007DCE: FF                 JR      $7DCE
00007DCF: FF                 JR      $7DCF
00007DD0: FF                 JR      $7DD0
00007DD1: FF                 JR      $7DD1
00007DD2: FF                 JR      $7DD2
00007DD3: FF                 JR      $7DD3
00007DD4: FF                 JR      $7DD4
00007DD5: FF                 JR      $7DD5
00007DD6: FF                 JR      $7DD6
00007DD7: FF                 JR      $7DD7
00007DD8: FF                 JR      $7DD8
00007DD9: FF                 JR      $7DD9
00007DDA: FF                 JR      $7DDA
00007DDB: FF                 JR      $7DDB
00007DDC: FF                 JR      $7DDC
00007DDD: FF                 JR      $7DDD
00007DDE: FF                 JR      $7DDE
00007DDF: FF                 JR      $7DDF
00007DE0: FF                 JR      $7DE0
00007DE1: FF                 JR      $7DE1
00007DE2: FF                 JR      $7DE2
00007DE3: FF                 JR      $7DE3
00007DE4: FF                 JR      $7DE4
00007DE5: FF                 JR      $7DE5
00007DE6: FF                 JR      $7DE6
00007DE7: FF                 JR      $7DE7
00007DE8: FF                 JR      $7DE8
00007DE9: FF                 JR      $7DE9
00007DEA: FF                 JR      $7DEA
00007DEB: FF                 JR      $7DEB
00007DEC: FF                 JR      $7DEC
00007DED: FF                 JR      $7DED
00007DEE: FF                 JR      $7DEE
00007DEF: FF                 JR      $7DEF
00007DF0: FF                 JR      $7DF0
00007DF1: FF                 JR      $7DF1
00007DF2: FF                 JR      $7DF2
00007DF3: FF                 JR      $7DF3
00007DF4: FF                 JR      $7DF4
00007DF5: FF                 JR      $7DF5
00007DF6: FF                 JR      $7DF6
00007DF7: FF                 JR      $7DF7
00007DF8: FF                 JR      $7DF8
00007DF9: FF                 JR      $7DF9
00007DFA: FF                 JR      $7DFA
00007DFB: FF                 JR      $7DFB
00007DFC: FF                 JR      $7DFC
00007DFD: FF                 JR      $7DFD
00007DFE: FF                 JR      $7DFE
00007DFF: FF                 JR      $7DFF
00007E00: FF                 JR      $7E00
00007E01: FF                 JR      $7E01
00007E02: FF                 JR      $7E02
00007E03: FF                 JR      $7E03
00007E04: FF                 JR      $7E04
00007E05: FF                 JR      $7E05
00007E06: FF                 JR      $7E06
00007E07: FF                 JR      $7E07
00007E08: FF                 JR      $7E08
00007E09: FF                 JR      $7E09
00007E0A: FF                 JR      $7E0A
00007E0B: FF                 JR      $7E0B
00007E0C: FF                 JR      $7E0C
00007E0D: FF                 JR      $7E0D
00007E0E: FF                 JR      $7E0E
00007E0F: FF                 JR      $7E0F
00007E10: FF                 JR      $7E10
00007E11: FF                 JR      $7E11
00007E12: FF                 JR      $7E12
00007E13: FF                 JR      $7E13
00007E14: FF                 JR      $7E14
00007E15: FF                 JR      $7E15
00007E16: FF                 JR      $7E16
00007E17: FF                 JR      $7E17
00007E18: FF                 JR      $7E18
00007E19: FF                 JR      $7E19
00007E1A: FF                 JR      $7E1A
00007E1B: FF                 JR      $7E1B
00007E1C: FF                 JR      $7E1C
00007E1D: FF                 JR      $7E1D
00007E1E: FF                 JR      $7E1E
00007E1F: FF                 JR      $7E1F
00007E20: FF                 JR      $7E20
00007E21: FF                 JR      $7E21
00007E22: FF                 JR      $7E22
00007E23: FF                 JR      $7E23
00007E24: FF                 JR      $7E24
00007E25: FF                 JR      $7E25
00007E26: FF                 JR      $7E26
00007E27: FF                 JR      $7E27
00007E28: FF                 JR      $7E28
00007E29: FF                 JR      $7E29
00007E2A: FF                 JR      $7E2A
00007E2B: FF                 JR      $7E2B
00007E2C: FF                 JR      $7E2C
00007E2D: FF                 JR      $7E2D
00007E2E: FF                 JR      $7E2E
00007E2F: FF                 JR      $7E2F
00007E30: FF                 JR      $7E30
00007E31: FF                 JR      $7E31
00007E32: FF                 JR      $7E32
00007E33: FF                 JR      $7E33
00007E34: FF                 JR      $7E34
00007E35: FF                 JR      $7E35
00007E36: FF                 JR      $7E36
00007E37: FF                 JR      $7E37
00007E38: FF                 JR      $7E38
00007E39: FF                 JR      $7E39
00007E3A: FF                 JR      $7E3A
00007E3B: FF                 JR      $7E3B
00007E3C: FF                 JR      $7E3C
00007E3D: FF                 JR      $7E3D
00007E3E: FF                 JR      $7E3E
00007E3F: FF                 JR      $7E3F
00007E40: FF                 JR      $7E40
00007E41: FF                 JR      $7E41
00007E42: FF                 JR      $7E42
00007E43: FF                 JR      $7E43
00007E44: FF                 JR      $7E44
00007E45: FF                 JR      $7E45
00007E46: FF                 JR      $7E46
00007E47: FF                 JR      $7E47
00007E48: FF                 JR      $7E48
00007E49: FF                 JR      $7E49
00007E4A: FF                 JR      $7E4A
00007E4B: FF                 JR      $7E4B
00007E4C: FF                 JR      $7E4C
00007E4D: FF                 JR      $7E4D
00007E4E: FF                 JR      $7E4E
00007E4F: FF                 JR      $7E4F
00007E50: FF                 JR      $7E50
00007E51: FF                 JR      $7E51
00007E52: FF                 JR      $7E52
00007E53: FF                 JR      $7E53
00007E54: FF                 JR      $7E54
00007E55: FF                 JR      $7E55
00007E56: FF                 JR      $7E56
00007E57: FF                 JR      $7E57
00007E58: FF                 JR      $7E58
00007E59: FF                 JR      $7E59
00007E5A: FF                 JR      $7E5A
00007E5B: FF                 JR      $7E5B
00007E5C: FF                 JR      $7E5C
00007E5D: FF                 JR      $7E5D
00007E5E: FF                 JR      $7E5E
00007E5F: FF                 JR      $7E5F
00007E60: FF                 JR      $7E60
00007E61: FF                 JR      $7E61
00007E62: FF                 JR      $7E62
00007E63: FF                 JR      $7E63
00007E64: FF                 JR      $7E64
00007E65: FF                 JR      $7E65
00007E66: FF                 JR      $7E66
00007E67: FF                 JR      $7E67
00007E68: FF                 JR      $7E68
00007E69: FF                 JR      $7E69
00007E6A: FF                 JR      $7E6A
00007E6B: FF                 JR      $7E6B
00007E6C: FF                 JR      $7E6C
00007E6D: FF                 JR      $7E6D
00007E6E: FF                 JR      $7E6E
00007E6F: FF                 JR      $7E6F
00007E70: FF                 JR      $7E70
00007E71: FF                 JR      $7E71
00007E72: FF                 JR      $7E72
00007E73: FF                 JR      $7E73
00007E74: FF                 JR      $7E74
00007E75: FF                 JR      $7E75
00007E76: FF                 JR      $7E76
00007E77: FF                 JR      $7E77
00007E78: FF                 JR      $7E78
00007E79: FF                 JR      $7E79
00007E7A: FF                 JR      $7E7A
00007E7B: FF                 JR      $7E7B
00007E7C: FF                 JR      $7E7C
00007E7D: FF                 JR      $7E7D
00007E7E: FF                 JR      $7E7E
00007E7F: FF                 JR      $7E7F
00007E80: FF                 JR      $7E80
00007E81: FF                 JR      $7E81
00007E82: FF                 JR      $7E82
00007E83: FF                 JR      $7E83
00007E84: FF                 JR      $7E84
00007E85: FF                 JR      $7E85
00007E86: FF                 JR      $7E86
00007E87: FF                 JR      $7E87
00007E88: FF                 JR      $7E88
00007E89: FF                 JR      $7E89
00007E8A: FF                 JR      $7E8A
00007E8B: FF                 JR      $7E8B
00007E8C: FF                 JR      $7E8C
00007E8D: FF                 JR      $7E8D
00007E8E: FF                 JR      $7E8E
00007E8F: FF                 JR      $7E8F
00007E90: FF                 JR      $7E90
00007E91: FF                 JR      $7E91
00007E92: FF                 JR      $7E92
00007E93: FF                 JR      $7E93
00007E94: FF                 JR      $7E94
00007E95: FF                 JR      $7E95
00007E96: FF                 JR      $7E96
00007E97: FF                 JR      $7E97
00007E98: FF                 JR      $7E98
00007E99: FF                 JR      $7E99
00007E9A: FF                 JR      $7E9A
00007E9B: FF                 JR      $7E9B
00007E9C: FF                 JR      $7E9C
00007E9D: FF                 JR      $7E9D
00007E9E: FF                 JR      $7E9E
00007E9F: FF                 JR      $7E9F
00007EA0: FF                 JR      $7EA0
00007EA1: FF                 JR      $7EA1
00007EA2: FF                 JR      $7EA2
00007EA3: FF                 JR      $7EA3
00007EA4: FF                 JR      $7EA4
00007EA5: FF                 JR      $7EA5
00007EA6: FF                 JR      $7EA6
00007EA7: FF                 JR      $7EA7
00007EA8: FF                 JR      $7EA8
00007EA9: FF                 JR      $7EA9
00007EAA: FF                 JR      $7EAA
00007EAB: FF                 JR      $7EAB
00007EAC: FF                 JR      $7EAC
00007EAD: FF                 JR      $7EAD
00007EAE: FF                 JR      $7EAE
00007EAF: FF                 JR      $7EAF
00007EB0: FF                 JR      $7EB0
00007EB1: FF                 JR      $7EB1
00007EB2: FF                 JR      $7EB2
00007EB3: FF                 JR      $7EB3
00007EB4: FF                 JR      $7EB4
00007EB5: FF                 JR      $7EB5
00007EB6: FF                 JR      $7EB6
00007EB7: FF                 JR      $7EB7
00007EB8: FF                 JR      $7EB8
00007EB9: FF                 JR      $7EB9
00007EBA: FF                 JR      $7EBA
00007EBB: FF                 JR      $7EBB
00007EBC: FF                 JR      $7EBC
00007EBD: FF                 JR      $7EBD
00007EBE: FF                 JR      $7EBE
00007EBF: FF                 JR      $7EBF
00007EC0: FF                 JR      $7EC0
00007EC1: FF                 JR      $7EC1
00007EC2: FF                 JR      $7EC2
00007EC3: FF                 JR      $7EC3
00007EC4: FF                 JR      $7EC4
00007EC5: FF                 JR      $7EC5
00007EC6: FF                 JR      $7EC6
00007EC7: FF                 JR      $7EC7
00007EC8: FF                 JR      $7EC8
00007EC9: FF                 JR      $7EC9
00007ECA: FF                 JR      $7ECA
00007ECB: FF                 JR      $7ECB
00007ECC: FF                 JR      $7ECC
00007ECD: FF                 JR      $7ECD
00007ECE: FF                 JR      $7ECE
00007ECF: FF                 JR      $7ECF
00007ED0: FF                 JR      $7ED0
00007ED1: FF                 JR      $7ED1
00007ED2: FF                 JR      $7ED2
00007ED3: FF                 JR      $7ED3
00007ED4: FF                 JR      $7ED4
00007ED5: FF                 JR      $7ED5
00007ED6: FF                 JR      $7ED6
00007ED7: FF                 JR      $7ED7
00007ED8: FF                 JR      $7ED8
00007ED9: FF                 JR      $7ED9
00007EDA: FF                 JR      $7EDA
00007EDB: FF                 JR      $7EDB
00007EDC: FF                 JR      $7EDC
00007EDD: FF                 JR      $7EDD
00007EDE: FF                 JR      $7EDE
00007EDF: FF                 JR      $7EDF
00007EE0: FF                 JR      $7EE0
00007EE1: FF                 JR      $7EE1
00007EE2: FF                 JR      $7EE2
00007EE3: FF                 JR      $7EE3
00007EE4: FF                 JR      $7EE4
00007EE5: FF                 JR      $7EE5
00007EE6: FF                 JR      $7EE6
00007EE7: FF                 JR      $7EE7
00007EE8: FF                 JR      $7EE8
00007EE9: FF                 JR      $7EE9
00007EEA: FF                 JR      $7EEA
00007EEB: FF                 JR      $7EEB
00007EEC: FF                 JR      $7EEC
00007EED: FF                 JR      $7EED
00007EEE: FF                 JR      $7EEE
00007EEF: FF                 JR      $7EEF
00007EF0: FF                 JR      $7EF0
00007EF1: FF                 JR      $7EF1
00007EF2: FF                 JR      $7EF2
00007EF3: FF                 JR      $7EF3
00007EF4: FF                 JR      $7EF4
00007EF5: FF                 JR      $7EF5
00007EF6: FF                 JR      $7EF6
00007EF7: FF                 JR      $7EF7
00007EF8: FF                 JR      $7EF8
00007EF9: FF                 JR      $7EF9
00007EFA: FF                 JR      $7EFA
00007EFB: FF                 JR      $7EFB
00007EFC: FF                 JR      $7EFC
00007EFD: FF                 JR      $7EFD
00007EFE: FF                 JR      $7EFE
00007EFF: FF                 JR      $7EFF
00007F00: FF                 JR      $7F00
00007F01: FF                 JR      $7F01
00007F02: FF                 JR      $7F02
00007F03: FF                 JR      $7F03
00007F04: FF                 JR      $7F04
00007F05: FF                 JR      $7F05
00007F06: FF                 JR      $7F06
00007F07: FF                 JR      $7F07
00007F08: FF                 JR      $7F08
00007F09: FF                 JR      $7F09
00007F0A: FF                 JR      $7F0A
00007F0B: FF                 JR      $7F0B
00007F0C: FF                 JR      $7F0C
00007F0D: FF                 JR      $7F0D
00007F0E: FF                 JR      $7F0E
00007F0F: FF                 JR      $7F0F
00007F10: FF                 JR      $7F10
00007F11: FF                 JR      $7F11
00007F12: FF                 JR      $7F12
00007F13: FF                 JR      $7F13
00007F14: FF                 JR      $7F14
00007F15: FF                 JR      $7F15
00007F16: FF                 JR      $7F16
00007F17: FF                 JR      $7F17
00007F18: FF                 JR      $7F18
00007F19: FF                 JR      $7F19
00007F1A: FF                 JR      $7F1A
00007F1B: FF                 JR      $7F1B
00007F1C: FF                 JR      $7F1C
00007F1D: FF                 JR      $7F1D
00007F1E: FF                 JR      $7F1E
00007F1F: FF                 JR      $7F1F
00007F20: FF                 JR      $7F20
00007F21: FF                 JR      $7F21
00007F22: FF                 JR      $7F22
00007F23: FF                 JR      $7F23
00007F24: FF                 JR      $7F24
00007F25: FF                 JR      $7F25
00007F26: FF                 JR      $7F26
00007F27: FF                 JR      $7F27
00007F28: FF                 JR      $7F28
00007F29: FF                 JR      $7F29
00007F2A: FF                 JR      $7F2A
00007F2B: FF                 JR      $7F2B
00007F2C: FF                 JR      $7F2C
00007F2D: FF                 JR      $7F2D
00007F2E: FF                 JR      $7F2E
00007F2F: FF                 JR      $7F2F
00007F30: FF                 JR      $7F30
00007F31: FF                 JR      $7F31
00007F32: FF                 JR      $7F32
00007F33: FF                 JR      $7F33
00007F34: FF                 JR      $7F34
00007F35: FF                 JR      $7F35
00007F36: FF                 JR      $7F36
00007F37: FF                 JR      $7F37
00007F38: FF                 JR      $7F38
00007F39: FF                 JR      $7F39
00007F3A: FF                 JR      $7F3A
00007F3B: FF                 JR      $7F3B
00007F3C: FF                 JR      $7F3C
00007F3D: FF                 JR      $7F3D
00007F3E: FF                 JR      $7F3E
00007F3F: FF                 JR      $7F3F
00007F40: FF                 JR      $7F40
00007F41: FF                 JR      $7F41
00007F42: FF                 JR      $7F42
00007F43: FF                 JR      $7F43
00007F44: FF                 JR      $7F44
00007F45: FF                 JR      $7F45
00007F46: FF                 JR      $7F46
00007F47: FF                 JR      $7F47
00007F48: FF                 JR      $7F48
00007F49: FF                 JR      $7F49
00007F4A: FF                 JR      $7F4A
00007F4B: FF                 JR      $7F4B
00007F4C: FF                 JR      $7F4C
00007F4D: FF                 JR      $7F4D
00007F4E: FF                 JR      $7F4E
00007F4F: FF                 JR      $7F4F
00007F50: FF                 JR      $7F50
00007F51: FF                 JR      $7F51
00007F52: FF                 JR      $7F52
00007F53: FF                 JR      $7F53
00007F54: FF                 JR      $7F54
00007F55: FF                 JR      $7F55
00007F56: FF                 JR      $7F56
00007F57: FF                 JR      $7F57
00007F58: FF                 JR      $7F58
00007F59: FF                 JR      $7F59
00007F5A: FF                 JR      $7F5A
00007F5B: FF                 JR      $7F5B
00007F5C: FF                 JR      $7F5C
00007F5D: FF                 JR      $7F5D
00007F5E: FF                 JR      $7F5E
00007F5F: FF                 JR      $7F5F
00007F60: FF                 JR      $7F60
00007F61: FF                 JR      $7F61
00007F62: FF                 JR      $7F62
00007F63: FF                 JR      $7F63
00007F64: FF                 JR      $7F64
00007F65: FF                 JR      $7F65
00007F66: FF                 JR      $7F66
00007F67: FF                 JR      $7F67
00007F68: FF                 JR      $7F68
00007F69: FF                 JR      $7F69
00007F6A: FF                 JR      $7F6A
00007F6B: FF                 JR      $7F6B
00007F6C: FF                 JR      $7F6C
00007F6D: FF                 JR      $7F6D
00007F6E: FF                 JR      $7F6E
00007F6F: FF                 JR      $7F6F
00007F70: FF                 JR      $7F70
00007F71: FF                 JR      $7F71
00007F72: FF                 JR      $7F72
00007F73: FF                 JR      $7F73
00007F74: FF                 JR      $7F74
00007F75: FF                 JR      $7F75
00007F76: FF                 JR      $7F76
00007F77: FF                 JR      $7F77
00007F78: FF                 JR      $7F78
00007F79: FF                 JR      $7F79
00007F7A: FF                 JR      $7F7A
00007F7B: FF                 JR      $7F7B
00007F7C: FF                 JR      $7F7C
00007F7D: FF                 JR      $7F7D
00007F7E: FF                 JR      $7F7E
00007F7F: FF                 JR      $7F7F
00007F80: FF                 JR      $7F80
00007F81: FF                 JR      $7F81
00007F82: FF                 JR      $7F82
00007F83: FF                 JR      $7F83
00007F84: FF                 JR      $7F84
00007F85: FF                 JR      $7F85
00007F86: FF                 JR      $7F86
00007F87: FF                 JR      $7F87
00007F88: FF                 JR      $7F88
00007F89: FF                 JR      $7F89
00007F8A: FF                 JR      $7F8A
00007F8B: FF                 JR      $7F8B
00007F8C: FF                 JR      $7F8C
00007F8D: FF                 JR      $7F8D
00007F8E: FF                 JR      $7F8E
00007F8F: FF                 JR      $7F8F
00007F90: FF                 JR      $7F90
00007F91: FF                 JR      $7F91
00007F92: FF                 JR      $7F92
00007F93: FF                 JR      $7F93
00007F94: FF                 JR      $7F94
00007F95: FF                 JR      $7F95
00007F96: FF                 JR      $7F96
00007F97: FF                 JR      $7F97
00007F98: FF                 JR      $7F98
00007F99: FF                 JR      $7F99
00007F9A: FF                 JR      $7F9A
00007F9B: FF                 JR      $7F9B
00007F9C: FF                 JR      $7F9C
00007F9D: FF                 JR      $7F9D
00007F9E: FF                 JR      $7F9E
00007F9F: FF                 JR      $7F9F
00007FA0: FF                 JR      $7FA0
00007FA1: FF                 JR      $7FA1
00007FA2: FF                 JR      $7FA2
00007FA3: FF                 JR      $7FA3
00007FA4: FF                 JR      $7FA4
00007FA5: FF                 JR      $7FA5
00007FA6: FF                 JR      $7FA6
00007FA7: FF                 JR      $7FA7
00007FA8: FF                 JR      $7FA8
00007FA9: FF                 JR      $7FA9
00007FAA: FF                 JR      $7FAA
00007FAB: FF                 JR      $7FAB
00007FAC: FF                 JR      $7FAC
00007FAD: FF                 JR      $7FAD
00007FAE: FF                 JR      $7FAE
00007FAF: FF                 JR      $7FAF
00007FB0: FF                 JR      $7FB0
00007FB1: FF                 JR      $7FB1
00007FB2: FF                 JR      $7FB2
00007FB3: FF                 JR      $7FB3
00007FB4: FF                 JR      $7FB4
00007FB5: FF                 JR      $7FB5
00007FB6: FF                 JR      $7FB6
00007FB7: FF                 JR      $7FB7
00007FB8: FF                 JR      $7FB8
00007FB9: FF                 JR      $7FB9
00007FBA: FF                 JR      $7FBA
00007FBB: FF                 JR      $7FBB
00007FBC: FF                 JR      $7FBC
00007FBD: FF                 JR      $7FBD
00007FBE: FF                 JR      $7FBE
00007FBF: FF                 JR      $7FBF
00007FC0: FF                 JR      $7FC0
00007FC1: FF                 JR      $7FC1
00007FC2: FF                 JR      $7FC2
00007FC3: FF                 JR      $7FC3
00007FC4: FF                 JR      $7FC4
00007FC5: FF                 JR      $7FC5
00007FC6: FF                 JR      $7FC6
00007FC7: FF                 JR      $7FC7
00007FC8: FF                 JR      $7FC8
00007FC9: FF                 JR      $7FC9
00007FCA: FF                 JR      $7FCA
00007FCB: FF                 JR      $7FCB
00007FCC: FF                 JR      $7FCC
00007FCD: FF                 JR      $7FCD
00007FCE: FF                 JR      $7FCE
00007FCF: FF                 JR      $7FCF
00007FD0: FF                 JR      $7FD0
00007FD1: FF                 JR      $7FD1
00007FD2: FF                 JR      $7FD2
00007FD3: FF                 JR      $7FD3
00007FD4: FF                 JR      $7FD4
00007FD5: FF                 JR      $7FD5
00007FD6: FF                 JR      $7FD6
00007FD7: FF                 JR      $7FD7
00007FD8: FF                 JR      $7FD8
00007FD9: FF                 JR      $7FD9
00007FDA: FF                 JR      $7FDA
00007FDB: FF                 JR      $7FDB
00007FDC: FF                 JR      $7FDC
00007FDD: FF                 JR      $7FDD
00007FDE: FF                 JR      $7FDE
00007FDF: FF                 JR      $7FDF
00007FE0: FF                 JR      $7FE0
00007FE1: FF                 JR      $7FE1
00007FE2: FF                 JR      $7FE2
00007FE3: FF                 JR      $7FE3
00007FE4: FF                 JR      $7FE4
00007FE5: FF                 JR      $7FE5
00007FE6: FF                 JR      $7FE6
00007FE7: FF                 JR      $7FE7
00007FE8: FF                 JR      $7FE8
00007FE9: FF                 JR      $7FE9
00007FEA: FF                 JR      $7FEA
00007FEB: FF                 JR      $7FEB
00007FEC: FF                 JR      $7FEC
00007FED: FF                 JR      $7FED
00007FEE: FF                 JR      $7FEE
00007FEF: FF                 JR      $7FEF
00007FF0: FF                 JR      $7FF0
00007FF1: FF                 JR      $7FF1
00007FF2: FF                 JR      $7FF2
00007FF3: FF                 JR      $7FF3
00007FF4: FF                 JR      $7FF4
00007FF5: FF                 JR      $7FF5
00007FF6: FF                 JR      $7FF6
00007FF7: FF                 JR      $7FF7
00007FF8: FF                 JR      $7FF8
00007FF9: FF                 JR      $7FF9
00007FFA: FF                 JR      $7FFA
00007FFB: FF                 JR      $7FFB
00007FFC: FF                 JR      $7FFC
00007FFD: FF                 JR      $7FFD
00007FFE: FF                 JR      $7FFE
00007FFF: FF                 JR      $7FFF
